   1              		.syntax unified
   2              		.cpu cortex-m3
   3              		.fpu softvfp
   4              		.eabi_attribute 20, 1
   5              		.eabi_attribute 21, 1
   6              		.eabi_attribute 23, 3
   7              		.eabi_attribute 24, 1
   8              		.eabi_attribute 25, 1
   9              		.eabi_attribute 26, 1
  10              		.eabi_attribute 30, 6
  11              		.eabi_attribute 34, 1
  12              		.eabi_attribute 18, 4
  13              		.thumb
  14              		.file	"csp_pm.c"
  15              		.text
  16              	.Ltext0:
  17              		.cfi_sections	.debug_frame
  18              		.align	2
  19              		.global	CSP_PM_Init
  20              		.thumb
  21              		.thumb_func
  23              	CSP_PM_Init:
  24              	.LFB0:
  25              		.file 1 "Libraries/uC-CSP/LPC17xx/csp_pm.c"
   1:Libraries/uC-CSP/LPC17xx/csp_pm.c **** /*
   2:Libraries/uC-CSP/LPC17xx/csp_pm.c **** ***************************************************************************************************
   3:Libraries/uC-CSP/LPC17xx/csp_pm.c **** *                                              uC/CSP
   4:Libraries/uC-CSP/LPC17xx/csp_pm.c **** *                                        Chip Support Package
   5:Libraries/uC-CSP/LPC17xx/csp_pm.c **** *
   6:Libraries/uC-CSP/LPC17xx/csp_pm.c **** *                            (c) Copyright 2010; Micrium, Inc.; Weston, FL
   7:Libraries/uC-CSP/LPC17xx/csp_pm.c **** *                         (c) Copyright 2003-2010; Micrium, Inc.; Weston, FL
   8:Libraries/uC-CSP/LPC17xx/csp_pm.c **** *
   9:Libraries/uC-CSP/LPC17xx/csp_pm.c **** *               All rights reserved. Protected by international copyright laws.
  10:Libraries/uC-CSP/LPC17xx/csp_pm.c **** *
  11:Libraries/uC-CSP/LPC17xx/csp_pm.c **** *               uC/CSP is provided in source form to registered licensees ONLY.  It is
  12:Libraries/uC-CSP/LPC17xx/csp_pm.c **** *               illegal to distribute this source code to any third party unless you receive
  13:Libraries/uC-CSP/LPC17xx/csp_pm.c **** *               written permission by an authorized Micrium representative.  Knowledge of
  14:Libraries/uC-CSP/LPC17xx/csp_pm.c **** *               the source code may NOT be used to develop a similar product.
  15:Libraries/uC-CSP/LPC17xx/csp_pm.c **** *
  16:Libraries/uC-CSP/LPC17xx/csp_pm.c **** *               Please help us continue to provide the Embedded community with the finest
  17:Libraries/uC-CSP/LPC17xx/csp_pm.c **** *               software available.  Your honesty is greatly appreciated.
  18:Libraries/uC-CSP/LPC17xx/csp_pm.c **** *
  19:Libraries/uC-CSP/LPC17xx/csp_pm.c **** *               You can contact us at www.micrium.com.
  20:Libraries/uC-CSP/LPC17xx/csp_pm.c **** ***************************************************************************************************
  21:Libraries/uC-CSP/LPC17xx/csp_pm.c **** */
  22:Libraries/uC-CSP/LPC17xx/csp_pm.c **** 
  23:Libraries/uC-CSP/LPC17xx/csp_pm.c **** /*
  24:Libraries/uC-CSP/LPC17xx/csp_pm.c **** ***************************************************************************************************
  25:Libraries/uC-CSP/LPC17xx/csp_pm.c **** *
  26:Libraries/uC-CSP/LPC17xx/csp_pm.c **** *                                       POWER & CLOCK MANAGEMENT
  27:Libraries/uC-CSP/LPC17xx/csp_pm.c **** *                                            NXP  LPC17XX
  28:Libraries/uC-CSP/LPC17xx/csp_pm.c **** *
  29:Libraries/uC-CSP/LPC17xx/csp_pm.c **** * Filename      : csp_pm.c
  30:Libraries/uC-CSP/LPC17xx/csp_pm.c **** * Version       : V1.00
  31:Libraries/uC-CSP/LPC17xx/csp_pm.c **** * Programmer(s) : FT
  32:Libraries/uC-CSP/LPC17xx/csp_pm.c **** ***************************************************************************************************
  33:Libraries/uC-CSP/LPC17xx/csp_pm.c **** * Note(s)       : 
  34:Libraries/uC-CSP/LPC17xx/csp_pm.c **** ***************************************************************************************************
  35:Libraries/uC-CSP/LPC17xx/csp_pm.c **** */
  36:Libraries/uC-CSP/LPC17xx/csp_pm.c **** 
  37:Libraries/uC-CSP/LPC17xx/csp_pm.c **** 
  38:Libraries/uC-CSP/LPC17xx/csp_pm.c **** /*
  39:Libraries/uC-CSP/LPC17xx/csp_pm.c **** ***************************************************************************************************
  40:Libraries/uC-CSP/LPC17xx/csp_pm.c **** *                                            INCLUDE FILES
  41:Libraries/uC-CSP/LPC17xx/csp_pm.c **** ***************************************************************************************************
  42:Libraries/uC-CSP/LPC17xx/csp_pm.c **** */
  43:Libraries/uC-CSP/LPC17xx/csp_pm.c **** 
  44:Libraries/uC-CSP/LPC17xx/csp_pm.c **** #define    CSP_PM_MODULE
  45:Libraries/uC-CSP/LPC17xx/csp_pm.c **** #include   <csp.h>
  46:Libraries/uC-CSP/LPC17xx/csp_pm.c **** 
  47:Libraries/uC-CSP/LPC17xx/csp_pm.c **** /*
  48:Libraries/uC-CSP/LPC17xx/csp_pm.c **** ***************************************************************************************************
  49:Libraries/uC-CSP/LPC17xx/csp_pm.c **** *                                            LOCAL DEFINES
  50:Libraries/uC-CSP/LPC17xx/csp_pm.c **** ***************************************************************************************************
  51:Libraries/uC-CSP/LPC17xx/csp_pm.c **** */
  52:Libraries/uC-CSP/LPC17xx/csp_pm.c **** 
  53:Libraries/uC-CSP/LPC17xx/csp_pm.c ****                                                                 /* ---------- PCONP REGISTERS RESER
  54:Libraries/uC-CSP/LPC17xx/csp_pm.c **** #define  CSP_PM_PER_CLK_NBR_PCONP_RSVD0               0u
  55:Libraries/uC-CSP/LPC17xx/csp_pm.c **** #define  CSP_PM_PER_CLK_NBR_PCONP_RSVD1               5u
  56:Libraries/uC-CSP/LPC17xx/csp_pm.c **** #define  CSP_PM_PER_CLK_NBR_PCONP_RSVD2              11u
  57:Libraries/uC-CSP/LPC17xx/csp_pm.c **** #define  CSP_PM_PER_CLK_NBR_PCONP_RSVD3              20u
  58:Libraries/uC-CSP/LPC17xx/csp_pm.c **** #define  CSP_PM_PER_CLK_NBR_PCONP_RSVD4              28u
  59:Libraries/uC-CSP/LPC17xx/csp_pm.c **** 
  60:Libraries/uC-CSP/LPC17xx/csp_pm.c ****                                                                 /* --------- PCLKSEL REGISTERS RESE
  61:Libraries/uC-CSP/LPC17xx/csp_pm.c **** #define  CSP_PM_PER_CLK_NBR_PCLKSEL_RSVD0             5u  
  62:Libraries/uC-CSP/LPC17xx/csp_pm.c **** #define  CSP_PM_PER_CLK_NBR_PCLKSEL_RSVD1             9u  
  63:Libraries/uC-CSP/LPC17xx/csp_pm.c **** #define  CSP_PM_PER_CLK_NBR_PCLKSEL_RSVD2            20u  
  64:Libraries/uC-CSP/LPC17xx/csp_pm.c **** #define  CSP_PM_PER_CLK_NBR_PCLKSEL_RSVD3            28u  
  65:Libraries/uC-CSP/LPC17xx/csp_pm.c **** 
  66:Libraries/uC-CSP/LPC17xx/csp_pm.c ****                                                                 /* ---------------- REGISTER DEFINE
  67:Libraries/uC-CSP/LPC17xx/csp_pm.c **** #define  CSP_PM_ADDR_PLL0                       ( (CPU_INT32U )0x400FC080)
  68:Libraries/uC-CSP/LPC17xx/csp_pm.c **** #define  CSP_PM_ADDR_PLL1                       ( (CPU_INT32U )0x400FC0A0)
  69:Libraries/uC-CSP/LPC17xx/csp_pm.c ****   
  70:Libraries/uC-CSP/LPC17xx/csp_pm.c **** #define  CSP_PM_REG_PLLCTRL0                    (*(CPU_REG32 *)(CSP_PM_ADDR_PLL0 + 0x00))
  71:Libraries/uC-CSP/LPC17xx/csp_pm.c **** #define  CSP_PM_REG_PLLCFG0                     (*(CPU_REG32 *)(CSP_PM_ADDR_PLL0 + 0x04))
  72:Libraries/uC-CSP/LPC17xx/csp_pm.c **** #define  CSP_PM_REG_PLLSTAT0                    (*(CPU_REG32 *)(CSP_PM_ADDR_PLL0 + 0x08))
  73:Libraries/uC-CSP/LPC17xx/csp_pm.c **** #define  CSP_PM_REG_PLLFEED0                    (*(CPU_REG32 *)(CSP_PM_ADDR_PLL0 + 0x0C))
  74:Libraries/uC-CSP/LPC17xx/csp_pm.c **** 
  75:Libraries/uC-CSP/LPC17xx/csp_pm.c **** #define  CSP_PM_REG_PLLCTRL1                    (*(CPU_REG32 *)(CSP_PM_ADDR_PLL1 + 0x00))
  76:Libraries/uC-CSP/LPC17xx/csp_pm.c **** #define  CSP_PM_REG_PLLCFG1                     (*(CPU_REG32 *)(CSP_PM_ADDR_PLL1 + 0x04))
  77:Libraries/uC-CSP/LPC17xx/csp_pm.c **** #define  CSP_PM_REG_PLLSTAT1                    (*(CPU_REG32 *)(CSP_PM_ADDR_PLL1 + 0x08))
  78:Libraries/uC-CSP/LPC17xx/csp_pm.c **** #define  CSP_PM_REG_PLLFEED1                    (*(CPU_REG32 *)(CSP_PM_ADDR_PLL1 + 0x0C))
  79:Libraries/uC-CSP/LPC17xx/csp_pm.c **** 
  80:Libraries/uC-CSP/LPC17xx/csp_pm.c ****                                                                 /* ---------- POWER CONTROL REGISTE
  81:Libraries/uC-CSP/LPC17xx/csp_pm.c **** #define  CSP_PM_REG_PCON                        (*(CPU_REG32 *)(0x400FC0C0))
  82:Libraries/uC-CSP/LPC17xx/csp_pm.c **** #define  CSP_PM_REG_PCONP                       (*(CPU_REG32 *)(0x400FC0C4))
  83:Libraries/uC-CSP/LPC17xx/csp_pm.c **** 
  84:Libraries/uC-CSP/LPC17xx/csp_pm.c ****                                                                 /* -------- CLOCK SOURCE SELECT REG
  85:Libraries/uC-CSP/LPC17xx/csp_pm.c **** #define  CSP_PM_REG_CLKSRCSEL                   (*(CPU_REG32 *)(0x400FC10Cu))
  86:Libraries/uC-CSP/LPC17xx/csp_pm.c **** 
  87:Libraries/uC-CSP/LPC17xx/csp_pm.c ****                                                                 /* ---------- PLL STATUS REGISTER B
  88:Libraries/uC-CSP/LPC17xx/csp_pm.c **** #define  CSP_PM_MSK_PLLSTAT0_MSEL               DEF_BIT_FIELD(15,  0)
  89:Libraries/uC-CSP/LPC17xx/csp_pm.c **** #define  CSP_PM_MSK_PLLSTAT0_PSEL               DEF_BIT_FIELD(8 , 16)
  90:Libraries/uC-CSP/LPC17xx/csp_pm.c **** #define  CSP_PM_MSK_PLLSTAT0_PLLE               DEF_BIT_24      /* Read-back for the PLL enable bit
  91:Libraries/uC-CSP/LPC17xx/csp_pm.c **** #define  CSP_PM_MSK_PLLSTAT0_PLLC               DEF_BIT_25      /* Read-back for the PLL connect bi
  92:Libraries/uC-CSP/LPC17xx/csp_pm.c **** #define  CSP_PM_MSK_PLLSTAT0_PLOCK              DEF_BIT_26      /* Refkect the PLL lock status.    
  93:Libraries/uC-CSP/LPC17xx/csp_pm.c **** 
  94:Libraries/uC-CSP/LPC17xx/csp_pm.c **** #define  CSP_PM_MSK_PLLSTAT1_MSEL               DEF_BIT_FIELD(5,  0)
  95:Libraries/uC-CSP/LPC17xx/csp_pm.c **** #define  CSP_PM_MSK_PLLSTAT1_PSEL               DEF_BIT_FIELD(2 , 5)
  96:Libraries/uC-CSP/LPC17xx/csp_pm.c **** #define  CSP_PM_MSK_PLLSTAT1_PLLE               DEF_BIT_08      /* Read-back for the PLL enable bit
  97:Libraries/uC-CSP/LPC17xx/csp_pm.c **** #define  CSP_PM_MSK_PLLSTAT1_PLLC               DEF_BIT_09      /* Read-back for the PLL connect bi
  98:Libraries/uC-CSP/LPC17xx/csp_pm.c **** #define  CSP_PM_MSK_PLLSTAT1_PLOCK              DEF_BIT_10      /* Refkect the PLL lock status.    
  99:Libraries/uC-CSP/LPC17xx/csp_pm.c **** 
 100:Libraries/uC-CSP/LPC17xx/csp_pm.c **** 
 101:Libraries/uC-CSP/LPC17xx/csp_pm.c ****                                                                 /* --------- CLOCK DIVIDERS REGISTE
 102:Libraries/uC-CSP/LPC17xx/csp_pm.c **** #define  CSP_PM_REG_CCLKCFG                     (*(CPU_REG32 *)(0x400FC104))
 103:Libraries/uC-CSP/LPC17xx/csp_pm.c **** #define  CSP_PM_REG_USBCLKCFG                   (*(CPU_REG32 *)(0x400FC108))
 104:Libraries/uC-CSP/LPC17xx/csp_pm.c **** #define  CSP_PM_REG_IRCTRIM                     (*(CPU_REG32 *)(0x400FC1A4))
 105:Libraries/uC-CSP/LPC17xx/csp_pm.c **** #define  CSP_PM_REG_PCLKSEL0                    (*(CPU_REG32 *)(0x400FC1A8))
 106:Libraries/uC-CSP/LPC17xx/csp_pm.c **** #define  CSP_PM_REG_PCLKSEL1                    (*(CPU_REG32 *)(0x400FC1AC))
 107:Libraries/uC-CSP/LPC17xx/csp_pm.c **** 
 108:Libraries/uC-CSP/LPC17xx/csp_pm.c ****                                                                 /* ------ INTERNAL OSCILLATOR/CLOCK
 109:Libraries/uC-CSP/LPC17xx/csp_pm.c **** #define  CSP_PM_INT_RC_OSC_FREQ_HZ               4000000L       /* IRC frequency is 4Mhz.          
 110:Libraries/uC-CSP/LPC17xx/csp_pm.c ****                                                                 /* RTC oscillator frequency        
 111:Libraries/uC-CSP/LPC17xx/csp_pm.c **** #define  CSP_PM_INT_RTC_OSC_FREQ_HZ              CSP_CFG_PM_SLOW_XTAL_FREQ_HZ
 112:Libraries/uC-CSP/LPC17xx/csp_pm.c **** 
 113:Libraries/uC-CSP/LPC17xx/csp_pm.c **** 
 114:Libraries/uC-CSP/LPC17xx/csp_pm.c **** /*
 115:Libraries/uC-CSP/LPC17xx/csp_pm.c **** ***************************************************************************************************
 116:Libraries/uC-CSP/LPC17xx/csp_pm.c **** *                                           LOCAL CONSTANTS
 117:Libraries/uC-CSP/LPC17xx/csp_pm.c **** ***************************************************************************************************
 118:Libraries/uC-CSP/LPC17xx/csp_pm.c **** */
 119:Libraries/uC-CSP/LPC17xx/csp_pm.c **** 
 120:Libraries/uC-CSP/LPC17xx/csp_pm.c **** 
 121:Libraries/uC-CSP/LPC17xx/csp_pm.c **** /*
 122:Libraries/uC-CSP/LPC17xx/csp_pm.c **** ***************************************************************************************************
 123:Libraries/uC-CSP/LPC17xx/csp_pm.c **** *                                          LOCAL DATA TYPES
 124:Libraries/uC-CSP/LPC17xx/csp_pm.c **** ***************************************************************************************************
 125:Libraries/uC-CSP/LPC17xx/csp_pm.c **** */
 126:Libraries/uC-CSP/LPC17xx/csp_pm.c **** 
 127:Libraries/uC-CSP/LPC17xx/csp_pm.c **** 
 128:Libraries/uC-CSP/LPC17xx/csp_pm.c **** /*
 129:Libraries/uC-CSP/LPC17xx/csp_pm.c **** ***************************************************************************************************
 130:Libraries/uC-CSP/LPC17xx/csp_pm.c **** *                                            LOCAL TABLES
 131:Libraries/uC-CSP/LPC17xx/csp_pm.c **** ***************************************************************************************************
 132:Libraries/uC-CSP/LPC17xx/csp_pm.c **** */
 133:Libraries/uC-CSP/LPC17xx/csp_pm.c **** 
 134:Libraries/uC-CSP/LPC17xx/csp_pm.c **** 
 135:Libraries/uC-CSP/LPC17xx/csp_pm.c **** /*
 136:Libraries/uC-CSP/LPC17xx/csp_pm.c **** ***************************************************************************************************
 137:Libraries/uC-CSP/LPC17xx/csp_pm.c **** *                                       LOCAL GLOBAL VARIABLES
 138:Libraries/uC-CSP/LPC17xx/csp_pm.c **** ***************************************************************************************************
 139:Libraries/uC-CSP/LPC17xx/csp_pm.c **** */
 140:Libraries/uC-CSP/LPC17xx/csp_pm.c **** 
 141:Libraries/uC-CSP/LPC17xx/csp_pm.c **** 
 142:Libraries/uC-CSP/LPC17xx/csp_pm.c **** /*
 143:Libraries/uC-CSP/LPC17xx/csp_pm.c **** ***************************************************************************************************
 144:Libraries/uC-CSP/LPC17xx/csp_pm.c **** *                                            LOCAL MACRO's
 145:Libraries/uC-CSP/LPC17xx/csp_pm.c **** ***************************************************************************************************
 146:Libraries/uC-CSP/LPC17xx/csp_pm.c **** */
 147:Libraries/uC-CSP/LPC17xx/csp_pm.c **** 
 148:Libraries/uC-CSP/LPC17xx/csp_pm.c **** 
 149:Libraries/uC-CSP/LPC17xx/csp_pm.c **** /*
 150:Libraries/uC-CSP/LPC17xx/csp_pm.c **** ***************************************************************************************************
 151:Libraries/uC-CSP/LPC17xx/csp_pm.c **** *                                      LOCAL FUNCTION PROTOTYPES
 152:Libraries/uC-CSP/LPC17xx/csp_pm.c **** ***************************************************************************************************
 153:Libraries/uC-CSP/LPC17xx/csp_pm.c **** */
 154:Libraries/uC-CSP/LPC17xx/csp_pm.c **** 
 155:Libraries/uC-CSP/LPC17xx/csp_pm.c **** 
 156:Libraries/uC-CSP/LPC17xx/csp_pm.c **** /*
 157:Libraries/uC-CSP/LPC17xx/csp_pm.c **** ***************************************************************************************************
 158:Libraries/uC-CSP/LPC17xx/csp_pm.c **** *                                     LOCAL CONFIGURATION ERRORS
 159:Libraries/uC-CSP/LPC17xx/csp_pm.c **** ***************************************************************************************************
 160:Libraries/uC-CSP/LPC17xx/csp_pm.c **** */
 161:Libraries/uC-CSP/LPC17xx/csp_pm.c **** 
 162:Libraries/uC-CSP/LPC17xx/csp_pm.c **** 
 163:Libraries/uC-CSP/LPC17xx/csp_pm.c **** /*
 164:Libraries/uC-CSP/LPC17xx/csp_pm.c **** ***************************************************************************************************
 165:Libraries/uC-CSP/LPC17xx/csp_pm.c **** ***************************************************************************************************
 166:Libraries/uC-CSP/LPC17xx/csp_pm.c **** *                                           LOCAL FUNCTIONS
 167:Libraries/uC-CSP/LPC17xx/csp_pm.c **** ***************************************************************************************************
 168:Libraries/uC-CSP/LPC17xx/csp_pm.c **** ***************************************************************************************************
 169:Libraries/uC-CSP/LPC17xx/csp_pm.c **** */
 170:Libraries/uC-CSP/LPC17xx/csp_pm.c **** 
 171:Libraries/uC-CSP/LPC17xx/csp_pm.c **** /*
 172:Libraries/uC-CSP/LPC17xx/csp_pm.c **** ***************************************************************************************************
 173:Libraries/uC-CSP/LPC17xx/csp_pm.c **** *                                            CSP_PM_Init()
 174:Libraries/uC-CSP/LPC17xx/csp_pm.c **** *
 175:Libraries/uC-CSP/LPC17xx/csp_pm.c **** * Description : Initialize power management module.
 176:Libraries/uC-CSP/LPC17xx/csp_pm.c **** *
 177:Libraries/uC-CSP/LPC17xx/csp_pm.c **** * Argument(s) : none.
 178:Libraries/uC-CSP/LPC17xx/csp_pm.c **** *
 179:Libraries/uC-CSP/LPC17xx/csp_pm.c **** * Return(s)   : None.
 180:Libraries/uC-CSP/LPC17xx/csp_pm.c **** *
 181:Libraries/uC-CSP/LPC17xx/csp_pm.c **** * Caller(s)   : Application.
 182:Libraries/uC-CSP/LPC17xx/csp_pm.c **** *
 183:Libraries/uC-CSP/LPC17xx/csp_pm.c **** * Note(s)     : None.
 184:Libraries/uC-CSP/LPC17xx/csp_pm.c **** ***************************************************************************************************
 185:Libraries/uC-CSP/LPC17xx/csp_pm.c **** */
 186:Libraries/uC-CSP/LPC17xx/csp_pm.c **** 
 187:Libraries/uC-CSP/LPC17xx/csp_pm.c **** void  CSP_PM_Init (void) 
 188:Libraries/uC-CSP/LPC17xx/csp_pm.c **** {
  26              		.loc 1 188 0
  27              		.cfi_startproc
  28              		@ args = 0, pretend = 0, frame = 0
  29              		@ frame_needed = 1, uses_anonymous_args = 0
  30              		@ link register save eliminated.
  31 0000 80B4     		push	{r7}
  32              	.LCFI0:
  33              		.cfi_def_cfa_offset 4
  34              		.cfi_offset 7, -4
  35 0002 00AF     		add	r7, sp, #0
  36              	.LCFI1:
  37              		.cfi_def_cfa_register 7
 189:Libraries/uC-CSP/LPC17xx/csp_pm.c **** 
 190:Libraries/uC-CSP/LPC17xx/csp_pm.c **** } 
  38              		.loc 1 190 0
  39 0004 BD46     		mov	sp, r7
  40 0006 80BC     		pop	{r7}
  41 0008 7047     		bx	lr
  42              		.cfi_endproc
  43              	.LFE0:
  45 000a 00BF     		.align	2
  46              		.global	CSP_PM_CPU_ClkFreqGet
  47              		.thumb
  48              		.thumb_func
  50              	CSP_PM_CPU_ClkFreqGet:
  51              	.LFB1:
 191:Libraries/uC-CSP/LPC17xx/csp_pm.c **** 
 192:Libraries/uC-CSP/LPC17xx/csp_pm.c **** 
 193:Libraries/uC-CSP/LPC17xx/csp_pm.c **** /*
 194:Libraries/uC-CSP/LPC17xx/csp_pm.c **** ***************************************************************************************************
 195:Libraries/uC-CSP/LPC17xx/csp_pm.c **** *                                         CSP_PM_CPU_ClkFreqGet()
 196:Libraries/uC-CSP/LPC17xx/csp_pm.c **** *
 197:Libraries/uC-CSP/LPC17xx/csp_pm.c **** * Description : Return the CPU clock frequency.
 198:Libraries/uC-CSP/LPC17xx/csp_pm.c **** *                   
 199:Libraries/uC-CSP/LPC17xx/csp_pm.c **** * Argument(s) : none
 200:Libraries/uC-CSP/LPC17xx/csp_pm.c **** *  
 201:Libraries/uC-CSP/LPC17xx/csp_pm.c **** * Return(s)   : The CPU frequency in Hertz.
 202:Libraries/uC-CSP/LPC17xx/csp_pm.c **** *
 203:Libraries/uC-CSP/LPC17xx/csp_pm.c **** * Caller(s)   : Application.
 204:Libraries/uC-CSP/LPC17xx/csp_pm.c **** *
 205:Libraries/uC-CSP/LPC17xx/csp_pm.c **** * Note(s)     : none.              
 206:Libraries/uC-CSP/LPC17xx/csp_pm.c **** ***************************************************************************************************
 207:Libraries/uC-CSP/LPC17xx/csp_pm.c **** */
 208:Libraries/uC-CSP/LPC17xx/csp_pm.c **** 
 209:Libraries/uC-CSP/LPC17xx/csp_pm.c **** CPU_INT32U  CSP_PM_CPU_ClkFreqGet (void)
 210:Libraries/uC-CSP/LPC17xx/csp_pm.c **** {
  52              		.loc 1 210 0
  53              		.cfi_startproc
  54              		@ args = 0, pretend = 0, frame = 16
  55              		@ frame_needed = 1, uses_anonymous_args = 0
  56              		@ link register save eliminated.
  57 000c 80B4     		push	{r7}
  58              	.LCFI2:
  59              		.cfi_def_cfa_offset 4
  60              		.cfi_offset 7, -4
  61 000e 85B0     		sub	sp, sp, #20
  62              	.LCFI3:
  63              		.cfi_def_cfa_offset 24
  64 0010 00AF     		add	r7, sp, #0
  65              	.LCFI4:
  66              		.cfi_def_cfa_register 7
 211:Libraries/uC-CSP/LPC17xx/csp_pm.c ****     CPU_INT32U  cpu_freq;
 212:Libraries/uC-CSP/LPC17xx/csp_pm.c ****     CPU_INT08U  cpu_div;
 213:Libraries/uC-CSP/LPC17xx/csp_pm.c ****     CPU_INT16U  pll_mul;
 214:Libraries/uC-CSP/LPC17xx/csp_pm.c ****     CPU_INT08U  pll_div;
 215:Libraries/uC-CSP/LPC17xx/csp_pm.c ****     CPU_INT32U  reg_val;
 216:Libraries/uC-CSP/LPC17xx/csp_pm.c **** 
 217:Libraries/uC-CSP/LPC17xx/csp_pm.c **** 
 218:Libraries/uC-CSP/LPC17xx/csp_pm.c ****     reg_val = CSP_PM_REG_CLKSRCSEL & DEF_BIT_FIELD(2u, 0u);
  67              		.loc 1 218 0
  68 0012 4CF20C13 		movw	r3, #49420
  69 0016 C4F20F03 		movt	r3, 16399
  70 001a 1B68     		ldr	r3, [r3, #0]
  71 001c 03F00303 		and	r3, r3, #3
  72 0020 BB60     		str	r3, [r7, #8]
 219:Libraries/uC-CSP/LPC17xx/csp_pm.c ****  
 220:Libraries/uC-CSP/LPC17xx/csp_pm.c ****     switch (reg_val) {
  73              		.loc 1 220 0
  74 0022 BB68     		ldr	r3, [r7, #8]
  75 0024 012B     		cmp	r3, #1
  76 0026 0AD0     		beq	.L5
  77 0028 012B     		cmp	r3, #1
  78 002a 02D3     		bcc	.L4
  79 002c 022B     		cmp	r3, #2
  80 002e 0CD0     		beq	.L6
  81 0030 0FE0     		b	.L10
  82              	.L4:
 221:Libraries/uC-CSP/LPC17xx/csp_pm.c ****         case 0u:
 222:Libraries/uC-CSP/LPC17xx/csp_pm.c ****              cpu_freq = CSP_PM_INT_RC_OSC_FREQ_HZ;
  83              		.loc 1 222 0
  84 0032 4FF41063 		mov	r3, #2304
  85 0036 C0F23D03 		movt	r3, 61
  86 003a FB60     		str	r3, [r7, #12]
 223:Libraries/uC-CSP/LPC17xx/csp_pm.c ****              break;
  87              		.loc 1 223 0
  88 003c 0CE0     		b	.L7
  89              	.L5:
 224:Libraries/uC-CSP/LPC17xx/csp_pm.c ****     
 225:Libraries/uC-CSP/LPC17xx/csp_pm.c ****         case 1u:
 226:Libraries/uC-CSP/LPC17xx/csp_pm.c ****              cpu_freq = CSP_CFG_PM_MAIN_XTAL_FREQ_HZ;
  90              		.loc 1 226 0
  91 003e 4FF4D853 		mov	r3, #6912
  92 0042 C0F2B703 		movt	r3, 183
  93 0046 FB60     		str	r3, [r7, #12]
 227:Libraries/uC-CSP/LPC17xx/csp_pm.c ****              break;
  94              		.loc 1 227 0
  95 0048 06E0     		b	.L7
  96              	.L6:
 228:Libraries/uC-CSP/LPC17xx/csp_pm.c **** 
 229:Libraries/uC-CSP/LPC17xx/csp_pm.c ****         case 2u:
 230:Libraries/uC-CSP/LPC17xx/csp_pm.c ****              cpu_freq = CSP_PM_INT_RTC_OSC_FREQ_HZ;
  97              		.loc 1 230 0
  98 004a 4FF40043 		mov	r3, #32768
  99 004e FB60     		str	r3, [r7, #12]
 231:Libraries/uC-CSP/LPC17xx/csp_pm.c ****              break;
 100              		.loc 1 231 0
 101 0050 02E0     		b	.L7
 102              	.L10:
 232:Libraries/uC-CSP/LPC17xx/csp_pm.c ****                   
 233:Libraries/uC-CSP/LPC17xx/csp_pm.c ****         default:
 234:Libraries/uC-CSP/LPC17xx/csp_pm.c ****              return ((CPU_INT32U)(0u));
 103              		.loc 1 234 0
 104 0052 4FF00003 		mov	r3, #0
 105 0056 3EE0     		b	.L8
 106              	.L7:
 235:Libraries/uC-CSP/LPC17xx/csp_pm.c ****     }
 236:Libraries/uC-CSP/LPC17xx/csp_pm.c ****  
 237:Libraries/uC-CSP/LPC17xx/csp_pm.c ****     pll_mul =   ((CSP_PM_REG_PLLSTAT0 & CSP_PM_MSK_PLLSTAT0_MSEL)          + 1u);
 107              		.loc 1 237 0
 108 0058 4CF28803 		movw	r3, #49288
 109 005c C4F20F03 		movt	r3, 16399
 110 0060 1B68     		ldr	r3, [r3, #0]
 111 0062 9BB2     		uxth	r3, r3
 112 0064 4FEA4343 		lsl	r3, r3, #17
 113 0068 4FEA5343 		lsr	r3, r3, #17
 114 006c 9BB2     		uxth	r3, r3
 115 006e 03F10103 		add	r3, r3, #1
 116 0072 FB80     		strh	r3, [r7, #6]	@ movhi
 238:Libraries/uC-CSP/LPC17xx/csp_pm.c ****     pll_div = ((((CSP_PM_REG_PLLSTAT0 & CSP_PM_MSK_PLLSTAT0_PSEL)) >> 16u) + 1u);
 117              		.loc 1 238 0
 118 0074 4CF28803 		movw	r3, #49288
 119 0078 C4F20F03 		movt	r3, 16399
 120 007c 1B68     		ldr	r3, [r3, #0]
 121 007e 03F47F03 		and	r3, r3, #16711680
 122 0082 4FEA1343 		lsr	r3, r3, #16
 123 0086 DBB2     		uxtb	r3, r3
 124 0088 03F10103 		add	r3, r3, #1
 125 008c 7B71     		strb	r3, [r7, #5]
 239:Libraries/uC-CSP/LPC17xx/csp_pm.c **** 
 240:Libraries/uC-CSP/LPC17xx/csp_pm.c ****     if (DEF_BIT_IS_SET(CSP_PM_REG_PLLSTAT0, (CSP_PM_MSK_PLLSTAT0_PLLE | 
 126              		.loc 1 240 0
 127 008e 4CF28803 		movw	r3, #49288
 128 0092 C4F20F03 		movt	r3, 16399
 129 0096 1B68     		ldr	r3, [r3, #0]
 130 0098 03F0E063 		and	r3, r3, #117440512
 131 009c B3F1E06F 		cmp	r3, #117440512
 132 00a0 09D1     		bne	.L9
 241:Libraries/uC-CSP/LPC17xx/csp_pm.c ****                                              CSP_PM_MSK_PLLSTAT0_PLLC |
 242:Libraries/uC-CSP/LPC17xx/csp_pm.c ****                                              CSP_PM_MSK_PLLSTAT0_PLOCK ))) {
 243:Libraries/uC-CSP/LPC17xx/csp_pm.c ****         cpu_freq = ((cpu_freq * 2u * pll_mul) / pll_div);
 133              		.loc 1 243 0
 134 00a2 FB88     		ldrh	r3, [r7, #6]
 135 00a4 FA68     		ldr	r2, [r7, #12]
 136 00a6 02FB03F3 		mul	r3, r2, r3
 137 00aa 4FEA4302 		lsl	r2, r3, #1
 138 00ae 7B79     		ldrb	r3, [r7, #5]	@ zero_extendqisi2
 139 00b0 B2FBF3F3 		udiv	r3, r2, r3
 140 00b4 FB60     		str	r3, [r7, #12]
 141              	.L9:
 244:Libraries/uC-CSP/LPC17xx/csp_pm.c ****     }
 245:Libraries/uC-CSP/LPC17xx/csp_pm.c ****         
 246:Libraries/uC-CSP/LPC17xx/csp_pm.c ****     cpu_div = CSP_PM_REG_CCLKCFG & DEF_BIT_FIELD(8u, 0u); 
 142              		.loc 1 246 0
 143 00b6 4CF20413 		movw	r3, #49412
 144 00ba C4F20F03 		movt	r3, 16399
 145 00be 1B68     		ldr	r3, [r3, #0]
 146 00c0 3B71     		strb	r3, [r7, #4]
 247:Libraries/uC-CSP/LPC17xx/csp_pm.c ****     cpu_div++;
 147              		.loc 1 247 0
 148 00c2 3B79     		ldrb	r3, [r7, #4]
 149 00c4 03F10103 		add	r3, r3, #1
 150 00c8 3B71     		strb	r3, [r7, #4]
 248:Libraries/uC-CSP/LPC17xx/csp_pm.c ****     
 249:Libraries/uC-CSP/LPC17xx/csp_pm.c ****     cpu_freq /= cpu_div;
 151              		.loc 1 249 0
 152 00ca 3B79     		ldrb	r3, [r7, #4]	@ zero_extendqisi2
 153 00cc FA68     		ldr	r2, [r7, #12]
 154 00ce B2FBF3F3 		udiv	r3, r2, r3
 155 00d2 FB60     		str	r3, [r7, #12]
 250:Libraries/uC-CSP/LPC17xx/csp_pm.c ****         
 251:Libraries/uC-CSP/LPC17xx/csp_pm.c ****     return (cpu_freq);
 156              		.loc 1 251 0
 157 00d4 FB68     		ldr	r3, [r7, #12]
 158              	.L8:
 252:Libraries/uC-CSP/LPC17xx/csp_pm.c **** 
 253:Libraries/uC-CSP/LPC17xx/csp_pm.c **** }
 159              		.loc 1 253 0
 160 00d6 1846     		mov	r0, r3
 161 00d8 07F11407 		add	r7, r7, #20
 162 00dc BD46     		mov	sp, r7
 163 00de 80BC     		pop	{r7}
 164 00e0 7047     		bx	lr
 165              		.cfi_endproc
 166              	.LFE1:
 168 00e2 00BF     		.align	2
 169              		.global	CSP_PM_PerClkDivCfg
 170              		.thumb
 171              		.thumb_func
 173              	CSP_PM_PerClkDivCfg:
 174              	.LFB2:
 254:Libraries/uC-CSP/LPC17xx/csp_pm.c **** 
 255:Libraries/uC-CSP/LPC17xx/csp_pm.c **** /*
 256:Libraries/uC-CSP/LPC17xx/csp_pm.c **** ***************************************************************************************************
 257:Libraries/uC-CSP/LPC17xx/csp_pm.c **** *                                       CSP_PM_PerClkDivCfg()
 258:Libraries/uC-CSP/LPC17xx/csp_pm.c **** *
 259:Libraries/uC-CSP/LPC17xx/csp_pm.c **** * Description : Configure peripheral clock divider.
 260:Libraries/uC-CSP/LPC17xx/csp_pm.c **** *                   
 261:Libraries/uC-CSP/LPC17xx/csp_pm.c **** * Argument(s) : clk_nbr     Peripheral clock id (see note #1).
 262:Libraries/uC-CSP/LPC17xx/csp_pm.c **** *  
 263:Libraries/uC-CSP/LPC17xx/csp_pm.c **** *               clk_div     Peripheral clock divider.
 264:Libraries/uC-CSP/LPC17xx/csp_pm.c **** *
 265:Libraries/uC-CSP/LPC17xx/csp_pm.c **** * Return(s)   : DEF_OK,   If the clock was configured correctly.
 266:Libraries/uC-CSP/LPC17xx/csp_pm.c **** *               DEF_FAIL, Otherwise.
 267:Libraries/uC-CSP/LPC17xx/csp_pm.c **** *
 268:Libraries/uC-CSP/LPC17xx/csp_pm.c **** * Caller(s)   : Application.
 269:Libraries/uC-CSP/LPC17xx/csp_pm.c **** *
 270:Libraries/uC-CSP/LPC17xx/csp_pm.c **** * Note(s)     : (1) Peripheral clk number are defined in 'csp_grp.h'.
 271:Libraries/uC-CSP/LPC17xx/csp_pm.c **** *
 272:Libraries/uC-CSP/LPC17xx/csp_pm.c **** *                       CSP_PER_CLK_NBR_XX  where 'XX' is the peripheral name.
 273:Libraries/uC-CSP/LPC17xx/csp_pm.c **** *
 274:Libraries/uC-CSP/LPC17xx/csp_pm.c **** *               (2) A divider of value '6' divider can be only used with the following clks:
 275:Libraries/uC-CSP/LPC17xx/csp_pm.c **** *                             CSP_PM_PER_CLK_NBR_CAN1          
 276:Libraries/uC-CSP/LPC17xx/csp_pm.c **** *                             CSP_PM_PER_CLK_NBR_CAN2          
 277:Libraries/uC-CSP/LPC17xx/csp_pm.c **** *                             CSP_PM_PER_CLK_NBR_ACF              
 278:Libraries/uC-CSP/LPC17xx/csp_pm.c **** ***************************************************************************************************
 279:Libraries/uC-CSP/LPC17xx/csp_pm.c **** */
 280:Libraries/uC-CSP/LPC17xx/csp_pm.c **** 
 281:Libraries/uC-CSP/LPC17xx/csp_pm.c **** CPU_BOOLEAN  CSP_PM_PerClkDivCfg (CSP_DEV_NBR    clk_nbr,
 282:Libraries/uC-CSP/LPC17xx/csp_pm.c ****                                   CPU_SIZE_T     clk_div)
 283:Libraries/uC-CSP/LPC17xx/csp_pm.c **** 
 284:Libraries/uC-CSP/LPC17xx/csp_pm.c **** {
 175              		.loc 1 284 0
 176              		.cfi_startproc
 177              		@ args = 0, pretend = 0, frame = 16
 178              		@ frame_needed = 1, uses_anonymous_args = 0
 179 00e4 80B5     		push	{r7, lr}
 180              	.LCFI5:
 181              		.cfi_def_cfa_offset 8
 182              		.cfi_offset 14, -4
 183              		.cfi_offset 7, -8
 184 00e6 84B0     		sub	sp, sp, #16
 185              	.LCFI6:
 186              		.cfi_def_cfa_offset 24
 187 00e8 00AF     		add	r7, sp, #0
 188              	.LCFI7:
 189              		.cfi_def_cfa_register 7
 190 00ea 0346     		mov	r3, r0
 191 00ec 3960     		str	r1, [r7, #0]
 192 00ee FB80     		strh	r3, [r7, #6]	@ movhi
 285:Libraries/uC-CSP/LPC17xx/csp_pm.c ****     CPU_INT08U  pclk_sel;
 286:Libraries/uC-CSP/LPC17xx/csp_pm.c ****     CPU_SR_ALLOC();
 193              		.loc 1 286 0
 194 00f0 4FF00003 		mov	r3, #0
 195 00f4 BB60     		str	r3, [r7, #8]
 287:Libraries/uC-CSP/LPC17xx/csp_pm.c **** 
 288:Libraries/uC-CSP/LPC17xx/csp_pm.c **** 
 289:Libraries/uC-CSP/LPC17xx/csp_pm.c ****                                                                 /* ------------------- ARGUMENTS CH
 290:Libraries/uC-CSP/LPC17xx/csp_pm.c **** #if (CSP_CFG_ARG_CHK_EN == DEF_ENABLED)         
 291:Libraries/uC-CSP/LPC17xx/csp_pm.c ****     if (clk_nbr >= CSP_PM_PER_CLK_NBR_MAX) {
 196              		.loc 1 291 0
 197 00f6 FB88     		ldrh	r3, [r7, #6]
 198 00f8 1F2B     		cmp	r3, #31
 199 00fa 02D9     		bls	.L12
 292:Libraries/uC-CSP/LPC17xx/csp_pm.c ****         return (DEF_FAIL);    
 200              		.loc 1 292 0
 201 00fc 4FF00003 		mov	r3, #0
 202 0100 B0E0     		b	.L13
 203              	.L12:
 293:Libraries/uC-CSP/LPC17xx/csp_pm.c ****     }
 294:Libraries/uC-CSP/LPC17xx/csp_pm.c **** 
 295:Libraries/uC-CSP/LPC17xx/csp_pm.c ****     switch (clk_nbr) {
 204              		.loc 1 295 0
 205 0102 FA88     		ldrh	r2, [r7, #6]
 206 0104 1C2A     		cmp	r2, #28
 207 0106 0AD8     		bhi	.L33
 208 0108 40F60803 		movw	r3, #2056
 209 010c C0F24043 		movt	r3, 1088
 210 0110 03FA02F3 		lsl	r3, r3, r2
 211 0114 002B     		cmp	r3, #0
 212 0116 02DA     		bge	.L32
 213              	.L15:
 296:Libraries/uC-CSP/LPC17xx/csp_pm.c ****         case CSP_PM_PER_CLK_NBR_PCLKSEL_RSVD0:
 297:Libraries/uC-CSP/LPC17xx/csp_pm.c ****         case CSP_PM_PER_CLK_NBR_PCLKSEL_RSVD1:
 298:Libraries/uC-CSP/LPC17xx/csp_pm.c ****         case CSP_PM_PER_CLK_NBR_PCLKSEL_RSVD2:
 299:Libraries/uC-CSP/LPC17xx/csp_pm.c ****         case CSP_PM_PER_CLK_NBR_PCLKSEL_RSVD3:
 300:Libraries/uC-CSP/LPC17xx/csp_pm.c ****              return (DEF_FAIL);
 214              		.loc 1 300 0
 215 0118 4FF00003 		mov	r3, #0
 216 011c A2E0     		b	.L13
 217              	.L32:
 218              	.L33:
 301:Libraries/uC-CSP/LPC17xx/csp_pm.c ****        
 302:Libraries/uC-CSP/LPC17xx/csp_pm.c ****         default:
 303:Libraries/uC-CSP/LPC17xx/csp_pm.c ****              break;    
 219              		.loc 1 303 0
 220 011e 00BF     		nop
 221              	.L31:
 304:Libraries/uC-CSP/LPC17xx/csp_pm.c ****     }
 305:Libraries/uC-CSP/LPC17xx/csp_pm.c **** #endif
 306:Libraries/uC-CSP/LPC17xx/csp_pm.c ****     
 307:Libraries/uC-CSP/LPC17xx/csp_pm.c ****     switch (clk_div) {
 222              		.loc 1 307 0
 223 0120 3B68     		ldr	r3, [r7, #0]
 224 0122 03F1FF33 		add	r3, r3, #-1
 225 0126 072B     		cmp	r3, #7
 226 0128 37D8     		bhi	.L16
 227 012a 01A2     		adr	r2, .L22
 228 012c 52F823F0 		ldr	pc, [r2, r3, lsl #2]
 229              		.align	2
 230              	.L22:
 231 0130 51010000 		.word	.L17+1
 232 0134 59010000 		.word	.L18+1
 233 0138 9B010000 		.word	.L16+1
 234 013c 61010000 		.word	.L19+1
 235 0140 9B010000 		.word	.L16+1
 236 0144 69010000 		.word	.L20+1
 237 0148 9B010000 		.word	.L16+1
 238 014c 83010000 		.word	.L21+1
 239              	.L17:
 308:Libraries/uC-CSP/LPC17xx/csp_pm.c ****         case 1u:
 309:Libraries/uC-CSP/LPC17xx/csp_pm.c ****              pclk_sel = 1u;
 240              		.loc 1 309 0
 241 0150 4FF00103 		mov	r3, #1
 242 0154 FB73     		strb	r3, [r7, #15]
 310:Libraries/uC-CSP/LPC17xx/csp_pm.c ****              break;
 243              		.loc 1 310 0
 244 0156 23E0     		b	.L23
 245              	.L18:
 311:Libraries/uC-CSP/LPC17xx/csp_pm.c ****              
 312:Libraries/uC-CSP/LPC17xx/csp_pm.c ****         case 2u:
 313:Libraries/uC-CSP/LPC17xx/csp_pm.c ****              pclk_sel = 2u;
 246              		.loc 1 313 0
 247 0158 4FF00203 		mov	r3, #2
 248 015c FB73     		strb	r3, [r7, #15]
 314:Libraries/uC-CSP/LPC17xx/csp_pm.c ****              break;
 249              		.loc 1 314 0
 250 015e 1FE0     		b	.L23
 251              	.L19:
 315:Libraries/uC-CSP/LPC17xx/csp_pm.c ****              
 316:Libraries/uC-CSP/LPC17xx/csp_pm.c ****         case 4u:
 317:Libraries/uC-CSP/LPC17xx/csp_pm.c ****              pclk_sel = 0u;
 252              		.loc 1 317 0
 253 0160 4FF00003 		mov	r3, #0
 254 0164 FB73     		strb	r3, [r7, #15]
 318:Libraries/uC-CSP/LPC17xx/csp_pm.c ****              break;
 255              		.loc 1 318 0
 256 0166 1BE0     		b	.L23
 257              	.L20:
 319:Libraries/uC-CSP/LPC17xx/csp_pm.c ****              
 320:Libraries/uC-CSP/LPC17xx/csp_pm.c ****         case 6u:
 321:Libraries/uC-CSP/LPC17xx/csp_pm.c ****              switch (clk_nbr) {                                 /* See note #2.                    
 258              		.loc 1 321 0
 259 0168 FB88     		ldrh	r3, [r7, #6]
 260 016a A3F10D03 		sub	r3, r3, #13
 261 016e 022B     		cmp	r3, #2
 262 0170 04D8     		bhi	.L24
 322:Libraries/uC-CSP/LPC17xx/csp_pm.c ****                  case CSP_PM_PER_CLK_NBR_CAN_01:
 323:Libraries/uC-CSP/LPC17xx/csp_pm.c ****                  case CSP_PM_PER_CLK_NBR_CAN_02:
 324:Libraries/uC-CSP/LPC17xx/csp_pm.c ****                  case CSP_PM_PER_CLK_NBR_ACF_00:
 325:Libraries/uC-CSP/LPC17xx/csp_pm.c ****                       pclk_sel = 3u;
 263              		.loc 1 325 0
 264 0172 4FF00303 		mov	r3, #3
 265 0176 FB73     		strb	r3, [r7, #15]
 326:Libraries/uC-CSP/LPC17xx/csp_pm.c ****                       break;
 266              		.loc 1 326 0
 267 0178 00BF     		nop
 327:Libraries/uC-CSP/LPC17xx/csp_pm.c ****                  
 328:Libraries/uC-CSP/LPC17xx/csp_pm.c ****                  default:
 329:Libraries/uC-CSP/LPC17xx/csp_pm.c ****                       return (DEF_FAIL);     
 330:Libraries/uC-CSP/LPC17xx/csp_pm.c ****              }
 331:Libraries/uC-CSP/LPC17xx/csp_pm.c ****              break;
 268              		.loc 1 331 0
 269 017a 11E0     		b	.L23
 270              	.L24:
 329:Libraries/uC-CSP/LPC17xx/csp_pm.c ****                       return (DEF_FAIL);     
 271              		.loc 1 329 0
 272 017c 4FF00003 		mov	r3, #0
 273 0180 70E0     		b	.L13
 274              	.L21:
 332:Libraries/uC-CSP/LPC17xx/csp_pm.c ****              
 333:Libraries/uC-CSP/LPC17xx/csp_pm.c ****         case 8u:                                                /* See note #2.                    
 334:Libraries/uC-CSP/LPC17xx/csp_pm.c ****              switch (clk_nbr) {
 275              		.loc 1 334 0
 276 0182 FB88     		ldrh	r3, [r7, #6]
 277 0184 A3F10D03 		sub	r3, r3, #13
 278 0188 022B     		cmp	r3, #2
 279 018a 02D8     		bhi	.L27
 335:Libraries/uC-CSP/LPC17xx/csp_pm.c ****                  case CSP_PM_PER_CLK_NBR_CAN_01:
 336:Libraries/uC-CSP/LPC17xx/csp_pm.c ****                  case CSP_PM_PER_CLK_NBR_CAN_02:
 337:Libraries/uC-CSP/LPC17xx/csp_pm.c ****                  case CSP_PM_PER_CLK_NBR_ACF_00:
 338:Libraries/uC-CSP/LPC17xx/csp_pm.c ****                       return (DEF_FAIL);
 280              		.loc 1 338 0
 281 018c 4FF00003 		mov	r3, #0
 282 0190 68E0     		b	.L13
 283              	.L27:
 339:Libraries/uC-CSP/LPC17xx/csp_pm.c **** 
 340:Libraries/uC-CSP/LPC17xx/csp_pm.c ****                  default:
 341:Libraries/uC-CSP/LPC17xx/csp_pm.c ****                       pclk_sel = 3u;
 284              		.loc 1 341 0
 285 0192 4FF00303 		mov	r3, #3
 286 0196 FB73     		strb	r3, [r7, #15]
 342:Libraries/uC-CSP/LPC17xx/csp_pm.c ****                       break;
 287              		.loc 1 342 0
 288 0198 00BF     		nop
 289              	.L16:
 343:Libraries/uC-CSP/LPC17xx/csp_pm.c ****               }
 344:Libraries/uC-CSP/LPC17xx/csp_pm.c **** 
 345:Libraries/uC-CSP/LPC17xx/csp_pm.c ****         default:
 346:Libraries/uC-CSP/LPC17xx/csp_pm.c ****              return (DEF_FAIL);
 290              		.loc 1 346 0
 291 019a 4FF00003 		mov	r3, #0
 292 019e 61E0     		b	.L13
 293              	.L23:
 347:Libraries/uC-CSP/LPC17xx/csp_pm.c ****     }
 348:Libraries/uC-CSP/LPC17xx/csp_pm.c ****                   
 349:Libraries/uC-CSP/LPC17xx/csp_pm.c ****     CPU_CRITICAL_ENTER();
 294              		.loc 1 349 0
 295 01a0 FFF7FEFF 		bl	CPU_SR_Save
 296 01a4 B860     		str	r0, [r7, #8]
 297 01a6 FFF7FEFF 		bl	CPU_IntDisMeasStart
 350:Libraries/uC-CSP/LPC17xx/csp_pm.c ****     
 351:Libraries/uC-CSP/LPC17xx/csp_pm.c ****     if (clk_nbr < 16u) {
 298              		.loc 1 351 0
 299 01aa FB88     		ldrh	r3, [r7, #6]
 300 01ac 0F2B     		cmp	r3, #15
 301 01ae 25D8     		bhi	.L29
 352:Libraries/uC-CSP/LPC17xx/csp_pm.c ****         DEF_BIT_CLR(CSP_PM_REG_PCLKSEL0, DEF_BIT_FIELD(2u,       clk_nbr       * 2u));
 302              		.loc 1 352 0
 303 01b0 4CF2A813 		movw	r3, #49576
 304 01b4 C4F20F03 		movt	r3, 16399
 305 01b8 4CF2A812 		movw	r2, #49576
 306 01bc C4F20F02 		movt	r2, 16399
 307 01c0 1168     		ldr	r1, [r2, #0]
 308 01c2 FA88     		ldrh	r2, [r7, #6]
 309 01c4 4FEA4202 		lsl	r2, r2, #1
 310 01c8 4FF00300 		mov	r0, #3
 311 01cc 00FA02F2 		lsl	r2, r0, r2
 312 01d0 6FEA0202 		mvn	r2, r2
 313 01d4 0A40     		ands	r2, r2, r1
 314 01d6 1A60     		str	r2, [r3, #0]
 353:Libraries/uC-CSP/LPC17xx/csp_pm.c ****         DEF_BIT_SET(CSP_PM_REG_PCLKSEL0, DEF_BIT_MASK(pclk_sel,  clk_nbr       * 2u));             
 315              		.loc 1 353 0
 316 01d8 4CF2A813 		movw	r3, #49576
 317 01dc C4F20F03 		movt	r3, 16399
 318 01e0 4CF2A812 		movw	r2, #49576
 319 01e4 C4F20F02 		movt	r2, 16399
 320 01e8 1168     		ldr	r1, [r2, #0]
 321 01ea F87B     		ldrb	r0, [r7, #15]	@ zero_extendqisi2
 322 01ec FA88     		ldrh	r2, [r7, #6]
 323 01ee 4FEA4202 		lsl	r2, r2, #1
 324 01f2 00FA02F2 		lsl	r2, r0, r2
 325 01f6 0A43     		orrs	r2, r2, r1
 326 01f8 1A60     		str	r2, [r3, #0]
 327 01fa 2CE0     		b	.L30
 328              	.L29:
 354:Libraries/uC-CSP/LPC17xx/csp_pm.c ****     } else {
 355:Libraries/uC-CSP/LPC17xx/csp_pm.c ****         DEF_BIT_CLR(CSP_PM_REG_PCLKSEL1, DEF_BIT_FIELD(2u,      (clk_nbr - 16u) * 2u));
 329              		.loc 1 355 0
 330 01fc 4CF2AC13 		movw	r3, #49580
 331 0200 C4F20F03 		movt	r3, 16399
 332 0204 4CF2AC12 		movw	r2, #49580
 333 0208 C4F20F02 		movt	r2, 16399
 334 020c 1168     		ldr	r1, [r2, #0]
 335 020e FA88     		ldrh	r2, [r7, #6]
 336 0210 02F10042 		add	r2, r2, #-2147483648
 337 0214 A2F11002 		sub	r2, r2, #16
 338 0218 4FEA4202 		lsl	r2, r2, #1
 339 021c 4FF00300 		mov	r0, #3
 340 0220 00FA02F2 		lsl	r2, r0, r2
 341 0224 6FEA0202 		mvn	r2, r2
 342 0228 0A40     		ands	r2, r2, r1
 343 022a 1A60     		str	r2, [r3, #0]
 356:Libraries/uC-CSP/LPC17xx/csp_pm.c ****         DEF_BIT_SET(CSP_PM_REG_PCLKSEL1, DEF_BIT_MASK(pclk_sel, (clk_nbr - 16u) * 2u));            
 344              		.loc 1 356 0
 345 022c 4CF2AC13 		movw	r3, #49580
 346 0230 C4F20F03 		movt	r3, 16399
 347 0234 4CF2AC12 		movw	r2, #49580
 348 0238 C4F20F02 		movt	r2, 16399
 349 023c 1168     		ldr	r1, [r2, #0]
 350 023e F87B     		ldrb	r0, [r7, #15]	@ zero_extendqisi2
 351 0240 FA88     		ldrh	r2, [r7, #6]
 352 0242 02F10042 		add	r2, r2, #-2147483648
 353 0246 A2F11002 		sub	r2, r2, #16
 354 024a 4FEA4202 		lsl	r2, r2, #1
 355 024e 00FA02F2 		lsl	r2, r0, r2
 356 0252 0A43     		orrs	r2, r2, r1
 357 0254 1A60     		str	r2, [r3, #0]
 358              	.L30:
 357:Libraries/uC-CSP/LPC17xx/csp_pm.c ****     }
 358:Libraries/uC-CSP/LPC17xx/csp_pm.c ****     
 359:Libraries/uC-CSP/LPC17xx/csp_pm.c ****     CPU_CRITICAL_EXIT();    
 359              		.loc 1 359 0
 360 0256 FFF7FEFF 		bl	CPU_IntDisMeasStop
 361 025a B868     		ldr	r0, [r7, #8]
 362 025c FFF7FEFF 		bl	CPU_SR_Restore
 360:Libraries/uC-CSP/LPC17xx/csp_pm.c ****     
 361:Libraries/uC-CSP/LPC17xx/csp_pm.c ****     return (DEF_OK);
 363              		.loc 1 361 0
 364 0260 4FF00103 		mov	r3, #1
 365              	.L13:
 362:Libraries/uC-CSP/LPC17xx/csp_pm.c **** }    
 366              		.loc 1 362 0
 367 0264 1846     		mov	r0, r3
 368 0266 07F11007 		add	r7, r7, #16
 369 026a BD46     		mov	sp, r7
 370 026c 80BD     		pop	{r7, pc}
 371              		.cfi_endproc
 372              	.LFE2:
 374 026e 00BF     		.align	2
 375              		.global	CSP_PM_PerClkEn
 376              		.thumb
 377              		.thumb_func
 379              	CSP_PM_PerClkEn:
 380              	.LFB3:
 363:Libraries/uC-CSP/LPC17xx/csp_pm.c **** 
 364:Libraries/uC-CSP/LPC17xx/csp_pm.c **** 
 365:Libraries/uC-CSP/LPC17xx/csp_pm.c **** /*
 366:Libraries/uC-CSP/LPC17xx/csp_pm.c **** ***************************************************************************************************
 367:Libraries/uC-CSP/LPC17xx/csp_pm.c **** *                                          CSP_PM_PerClkEn()
 368:Libraries/uC-CSP/LPC17xx/csp_pm.c **** *
 369:Libraries/uC-CSP/LPC17xx/csp_pm.c **** * Description : Enable a peripheral clock.
 370:Libraries/uC-CSP/LPC17xx/csp_pm.c **** *                   
 371:Libraries/uC-CSP/LPC17xx/csp_pm.c **** * Argument(s) : clk_nbr     Peripheral clock number (see 'CSP_PM_PerClkDivCfg()' note #1).
 372:Libraries/uC-CSP/LPC17xx/csp_pm.c **** *
 373:Libraries/uC-CSP/LPC17xx/csp_pm.c **** * Return(s)   : None.
 374:Libraries/uC-CSP/LPC17xx/csp_pm.c **** *
 375:Libraries/uC-CSP/LPC17xx/csp_pm.c **** * Caller(s)   : Application.
 376:Libraries/uC-CSP/LPC17xx/csp_pm.c **** *
 377:Libraries/uC-CSP/LPC17xx/csp_pm.c **** * Note(s)     : None.               
 378:Libraries/uC-CSP/LPC17xx/csp_pm.c **** ***************************************************************************************************
 379:Libraries/uC-CSP/LPC17xx/csp_pm.c **** */
 380:Libraries/uC-CSP/LPC17xx/csp_pm.c **** 
 381:Libraries/uC-CSP/LPC17xx/csp_pm.c **** void  CSP_PM_PerClkEn (CSP_DEV_NBR clk_nbr)
 382:Libraries/uC-CSP/LPC17xx/csp_pm.c **** {
 381              		.loc 1 382 0
 382              		.cfi_startproc
 383              		@ args = 0, pretend = 0, frame = 16
 384              		@ frame_needed = 1, uses_anonymous_args = 0
 385 0270 80B5     		push	{r7, lr}
 386              	.LCFI8:
 387              		.cfi_def_cfa_offset 8
 388              		.cfi_offset 14, -4
 389              		.cfi_offset 7, -8
 390 0272 84B0     		sub	sp, sp, #16
 391              	.LCFI9:
 392              		.cfi_def_cfa_offset 24
 393 0274 00AF     		add	r7, sp, #0
 394              	.LCFI10:
 395              		.cfi_def_cfa_register 7
 396 0276 0346     		mov	r3, r0
 397 0278 FB80     		strh	r3, [r7, #6]	@ movhi
 383:Libraries/uC-CSP/LPC17xx/csp_pm.c ****     CPU_SR_ALLOC();
 398              		.loc 1 383 0
 399 027a 4FF00003 		mov	r3, #0
 400 027e FB60     		str	r3, [r7, #12]
 384:Libraries/uC-CSP/LPC17xx/csp_pm.c **** 
 385:Libraries/uC-CSP/LPC17xx/csp_pm.c **** 
 386:Libraries/uC-CSP/LPC17xx/csp_pm.c ****     if (clk_nbr >= CSP_PM_PER_CLK_NBR_MAX) {
 401              		.loc 1 386 0
 402 0280 FB88     		ldrh	r3, [r7, #6]
 403 0282 1F2B     		cmp	r3, #31
 404 0284 26D8     		bhi	.L40
 405              	.L35:
 387:Libraries/uC-CSP/LPC17xx/csp_pm.c ****         return;    
 388:Libraries/uC-CSP/LPC17xx/csp_pm.c ****     }
 389:Libraries/uC-CSP/LPC17xx/csp_pm.c ****     
 390:Libraries/uC-CSP/LPC17xx/csp_pm.c ****     switch (clk_nbr) {
 406              		.loc 1 390 0
 407 0286 FA88     		ldrh	r2, [r7, #6]
 408 0288 1C2A     		cmp	r2, #28
 409 028a 07D8     		bhi	.L41
 410 028c 40F60803 		movw	r3, #2056
 411 0290 C8F21043 		movt	r3, 33808
 412 0294 03FA02F3 		lsl	r3, r3, r2
 413 0298 002B     		cmp	r3, #0
 414 029a 1DDB     		blt	.L42
 415              	.L41:
 391:Libraries/uC-CSP/LPC17xx/csp_pm.c ****         case CSP_PM_PER_CLK_NBR_PCONP_RSVD0:
 392:Libraries/uC-CSP/LPC17xx/csp_pm.c ****         case CSP_PM_PER_CLK_NBR_PCONP_RSVD1:
 393:Libraries/uC-CSP/LPC17xx/csp_pm.c ****         case CSP_PM_PER_CLK_NBR_PCONP_RSVD2:
 394:Libraries/uC-CSP/LPC17xx/csp_pm.c ****         case CSP_PM_PER_CLK_NBR_PCONP_RSVD3:
 395:Libraries/uC-CSP/LPC17xx/csp_pm.c ****         case CSP_PM_PER_CLK_NBR_PCONP_RSVD4:
 396:Libraries/uC-CSP/LPC17xx/csp_pm.c ****              return;
 397:Libraries/uC-CSP/LPC17xx/csp_pm.c ****        
 398:Libraries/uC-CSP/LPC17xx/csp_pm.c ****         default:
 399:Libraries/uC-CSP/LPC17xx/csp_pm.c ****              break;    
 416              		.loc 1 399 0
 417 029c 00BF     		nop
 418              	.L39:
 400:Libraries/uC-CSP/LPC17xx/csp_pm.c ****     }
 401:Libraries/uC-CSP/LPC17xx/csp_pm.c ****     
 402:Libraries/uC-CSP/LPC17xx/csp_pm.c ****     CPU_CRITICAL_ENTER();
 419              		.loc 1 402 0
 420 029e FFF7FEFF 		bl	CPU_SR_Save
 421 02a2 F860     		str	r0, [r7, #12]
 422 02a4 FFF7FEFF 		bl	CPU_IntDisMeasStart
 403:Libraries/uC-CSP/LPC17xx/csp_pm.c ****     DEF_BIT_SET(CSP_PM_REG_PCONP, DEF_BIT(clk_nbr));
 423              		.loc 1 403 0
 424 02a8 4CF2C403 		movw	r3, #49348
 425 02ac C4F20F03 		movt	r3, 16399
 426 02b0 4CF2C402 		movw	r2, #49348
 427 02b4 C4F20F02 		movt	r2, 16399
 428 02b8 1168     		ldr	r1, [r2, #0]
 429 02ba FA88     		ldrh	r2, [r7, #6]
 430 02bc 4FF00100 		mov	r0, #1
 431 02c0 00FA02F2 		lsl	r2, r0, r2
 432 02c4 0A43     		orrs	r2, r2, r1
 433 02c6 1A60     		str	r2, [r3, #0]
 404:Libraries/uC-CSP/LPC17xx/csp_pm.c ****     CPU_CRITICAL_EXIT();    
 434              		.loc 1 404 0
 435 02c8 FFF7FEFF 		bl	CPU_IntDisMeasStop
 436 02cc F868     		ldr	r0, [r7, #12]
 437 02ce FFF7FEFF 		bl	CPU_SR_Restore
 438 02d2 02E0     		b	.L34
 439              	.L40:
 387:Libraries/uC-CSP/LPC17xx/csp_pm.c ****         return;    
 440              		.loc 1 387 0
 441 02d4 00BF     		nop
 442 02d6 00E0     		b	.L34
 443              	.L42:
 396:Libraries/uC-CSP/LPC17xx/csp_pm.c ****              return;
 444              		.loc 1 396 0
 445 02d8 00BF     		nop
 446              	.L34:
 405:Libraries/uC-CSP/LPC17xx/csp_pm.c **** }
 447              		.loc 1 405 0
 448 02da 07F11007 		add	r7, r7, #16
 449 02de BD46     		mov	sp, r7
 450 02e0 80BD     		pop	{r7, pc}
 451              		.cfi_endproc
 452              	.LFE3:
 454 02e2 00BF     		.align	2
 455              		.global	CSP_PM_PerClkDis
 456              		.thumb
 457              		.thumb_func
 459              	CSP_PM_PerClkDis:
 460              	.LFB4:
 406:Libraries/uC-CSP/LPC17xx/csp_pm.c **** 
 407:Libraries/uC-CSP/LPC17xx/csp_pm.c **** 
 408:Libraries/uC-CSP/LPC17xx/csp_pm.c **** /*
 409:Libraries/uC-CSP/LPC17xx/csp_pm.c **** ***************************************************************************************************
 410:Libraries/uC-CSP/LPC17xx/csp_pm.c **** *                                         CSP_PM_PerClkDis()
 411:Libraries/uC-CSP/LPC17xx/csp_pm.c **** *
 412:Libraries/uC-CSP/LPC17xx/csp_pm.c **** * Description : Disable a peripheral clock.
 413:Libraries/uC-CSP/LPC17xx/csp_pm.c **** *                   
 414:Libraries/uC-CSP/LPC17xx/csp_pm.c **** * Argument(s) : clk_nbr     Peripheral clock number (see 'CSP_PM_PerClkDivCfg()' note #1).
 415:Libraries/uC-CSP/LPC17xx/csp_pm.c **** *
 416:Libraries/uC-CSP/LPC17xx/csp_pm.c **** * Return(s)   : None.
 417:Libraries/uC-CSP/LPC17xx/csp_pm.c **** *
 418:Libraries/uC-CSP/LPC17xx/csp_pm.c **** * Caller(s)   : Application.
 419:Libraries/uC-CSP/LPC17xx/csp_pm.c **** *
 420:Libraries/uC-CSP/LPC17xx/csp_pm.c **** * Note(s)     : None.
 421:Libraries/uC-CSP/LPC17xx/csp_pm.c **** ***************************************************************************************************
 422:Libraries/uC-CSP/LPC17xx/csp_pm.c **** */
 423:Libraries/uC-CSP/LPC17xx/csp_pm.c **** 
 424:Libraries/uC-CSP/LPC17xx/csp_pm.c **** void  CSP_PM_PerClkDis (CSP_DEV_NBR clk_nbr)
 425:Libraries/uC-CSP/LPC17xx/csp_pm.c **** {
 461              		.loc 1 425 0
 462              		.cfi_startproc
 463              		@ args = 0, pretend = 0, frame = 16
 464              		@ frame_needed = 1, uses_anonymous_args = 0
 465 02e4 80B5     		push	{r7, lr}
 466              	.LCFI11:
 467              		.cfi_def_cfa_offset 8
 468              		.cfi_offset 14, -4
 469              		.cfi_offset 7, -8
 470 02e6 84B0     		sub	sp, sp, #16
 471              	.LCFI12:
 472              		.cfi_def_cfa_offset 24
 473 02e8 00AF     		add	r7, sp, #0
 474              	.LCFI13:
 475              		.cfi_def_cfa_register 7
 476 02ea 0346     		mov	r3, r0
 477 02ec FB80     		strh	r3, [r7, #6]	@ movhi
 426:Libraries/uC-CSP/LPC17xx/csp_pm.c ****     CPU_SR_ALLOC();
 478              		.loc 1 426 0
 479 02ee 4FF00003 		mov	r3, #0
 480 02f2 FB60     		str	r3, [r7, #12]
 427:Libraries/uC-CSP/LPC17xx/csp_pm.c **** 
 428:Libraries/uC-CSP/LPC17xx/csp_pm.c **** 
 429:Libraries/uC-CSP/LPC17xx/csp_pm.c ****     if (clk_nbr >= CSP_PM_PER_CLK_NBR_MAX) {
 481              		.loc 1 429 0
 482 02f4 FB88     		ldrh	r3, [r7, #6]
 483 02f6 1F2B     		cmp	r3, #31
 484 02f8 28D8     		bhi	.L49
 485              	.L44:
 430:Libraries/uC-CSP/LPC17xx/csp_pm.c ****         return;
 431:Libraries/uC-CSP/LPC17xx/csp_pm.c ****     }
 432:Libraries/uC-CSP/LPC17xx/csp_pm.c ****     
 433:Libraries/uC-CSP/LPC17xx/csp_pm.c ****     switch (clk_nbr) {
 486              		.loc 1 433 0
 487 02fa FA88     		ldrh	r2, [r7, #6]
 488 02fc 1C2A     		cmp	r2, #28
 489 02fe 07D8     		bhi	.L50
 490 0300 40F60803 		movw	r3, #2056
 491 0304 C8F21043 		movt	r3, 33808
 492 0308 03FA02F3 		lsl	r3, r3, r2
 493 030c 002B     		cmp	r3, #0
 494 030e 1FDB     		blt	.L51
 495              	.L50:
 434:Libraries/uC-CSP/LPC17xx/csp_pm.c ****         case CSP_PM_PER_CLK_NBR_PCONP_RSVD0:
 435:Libraries/uC-CSP/LPC17xx/csp_pm.c ****         case CSP_PM_PER_CLK_NBR_PCONP_RSVD1:
 436:Libraries/uC-CSP/LPC17xx/csp_pm.c ****         case CSP_PM_PER_CLK_NBR_PCONP_RSVD2:
 437:Libraries/uC-CSP/LPC17xx/csp_pm.c ****         case CSP_PM_PER_CLK_NBR_PCONP_RSVD3:
 438:Libraries/uC-CSP/LPC17xx/csp_pm.c ****         case CSP_PM_PER_CLK_NBR_PCONP_RSVD4:
 439:Libraries/uC-CSP/LPC17xx/csp_pm.c ****              return;
 440:Libraries/uC-CSP/LPC17xx/csp_pm.c ****        
 441:Libraries/uC-CSP/LPC17xx/csp_pm.c ****         default:
 442:Libraries/uC-CSP/LPC17xx/csp_pm.c ****              break;    
 496              		.loc 1 442 0
 497 0310 00BF     		nop
 498              	.L48:
 443:Libraries/uC-CSP/LPC17xx/csp_pm.c ****     }
 444:Libraries/uC-CSP/LPC17xx/csp_pm.c ****     
 445:Libraries/uC-CSP/LPC17xx/csp_pm.c ****     CPU_CRITICAL_ENTER();
 499              		.loc 1 445 0
 500 0312 FFF7FEFF 		bl	CPU_SR_Save
 501 0316 F860     		str	r0, [r7, #12]
 502 0318 FFF7FEFF 		bl	CPU_IntDisMeasStart
 446:Libraries/uC-CSP/LPC17xx/csp_pm.c ****     DEF_BIT_CLR(CSP_PM_REG_PCONP, DEF_BIT(clk_nbr));
 503              		.loc 1 446 0
 504 031c 4CF2C403 		movw	r3, #49348
 505 0320 C4F20F03 		movt	r3, 16399
 506 0324 4CF2C402 		movw	r2, #49348
 507 0328 C4F20F02 		movt	r2, 16399
 508 032c 1168     		ldr	r1, [r2, #0]
 509 032e FA88     		ldrh	r2, [r7, #6]
 510 0330 4FF00100 		mov	r0, #1
 511 0334 00FA02F2 		lsl	r2, r0, r2
 512 0338 6FEA0202 		mvn	r2, r2
 513 033c 0A40     		ands	r2, r2, r1
 514 033e 1A60     		str	r2, [r3, #0]
 447:Libraries/uC-CSP/LPC17xx/csp_pm.c ****     CPU_CRITICAL_EXIT();    
 515              		.loc 1 447 0
 516 0340 FFF7FEFF 		bl	CPU_IntDisMeasStop
 517 0344 F868     		ldr	r0, [r7, #12]
 518 0346 FFF7FEFF 		bl	CPU_SR_Restore
 519 034a 02E0     		b	.L43
 520              	.L49:
 430:Libraries/uC-CSP/LPC17xx/csp_pm.c ****         return;
 521              		.loc 1 430 0
 522 034c 00BF     		nop
 523 034e 00E0     		b	.L43
 524              	.L51:
 439:Libraries/uC-CSP/LPC17xx/csp_pm.c ****              return;
 525              		.loc 1 439 0
 526 0350 00BF     		nop
 527              	.L43:
 448:Libraries/uC-CSP/LPC17xx/csp_pm.c **** }
 528              		.loc 1 448 0
 529 0352 07F11007 		add	r7, r7, #16
 530 0356 BD46     		mov	sp, r7
 531 0358 80BD     		pop	{r7, pc}
 532              		.cfi_endproc
 533              	.LFE4:
 535 035a 00BF     		.align	2
 536              		.global	CSP_PM_PerClkFreqGet
 537              		.thumb
 538              		.thumb_func
 540              	CSP_PM_PerClkFreqGet:
 541              	.LFB5:
 449:Libraries/uC-CSP/LPC17xx/csp_pm.c **** 
 450:Libraries/uC-CSP/LPC17xx/csp_pm.c **** 
 451:Libraries/uC-CSP/LPC17xx/csp_pm.c **** /*
 452:Libraries/uC-CSP/LPC17xx/csp_pm.c **** ***************************************************************************************************
 453:Libraries/uC-CSP/LPC17xx/csp_pm.c **** *                                        CSP_PM_PerClkFreqGet()
 454:Libraries/uC-CSP/LPC17xx/csp_pm.c **** *
 455:Libraries/uC-CSP/LPC17xx/csp_pm.c **** * Description : Return the Peripheral clock
 456:Libraries/uC-CSP/LPC17xx/csp_pm.c **** *                   
 457:Libraries/uC-CSP/LPC17xx/csp_pm.c **** * Argument(s) : clk_nbr     Peripheral clock number. (see 'CSP_PM_PerClkDivCfg()' note #1).
 458:Libraries/uC-CSP/LPC17xx/csp_pm.c **** *
 459:Libraries/uC-CSP/LPC17xx/csp_pm.c **** * Return(s)   : The peripheral clock frequency.
 460:Libraries/uC-CSP/LPC17xx/csp_pm.c **** *
 461:Libraries/uC-CSP/LPC17xx/csp_pm.c **** * Caller(s)   : Application.
 462:Libraries/uC-CSP/LPC17xx/csp_pm.c **** *
 463:Libraries/uC-CSP/LPC17xx/csp_pm.c **** * Note(s)     : None.
 464:Libraries/uC-CSP/LPC17xx/csp_pm.c **** ***************************************************************************************************
 465:Libraries/uC-CSP/LPC17xx/csp_pm.c **** */
 466:Libraries/uC-CSP/LPC17xx/csp_pm.c **** 
 467:Libraries/uC-CSP/LPC17xx/csp_pm.c **** CPU_INT32U  CSP_PM_PerClkFreqGet  (CSP_DEV_NBR  clk_nbr)
 468:Libraries/uC-CSP/LPC17xx/csp_pm.c **** {
 542              		.loc 1 468 0
 543              		.cfi_startproc
 544              		@ args = 0, pretend = 0, frame = 16
 545              		@ frame_needed = 1, uses_anonymous_args = 0
 546 035c 80B5     		push	{r7, lr}
 547              	.LCFI14:
 548              		.cfi_def_cfa_offset 8
 549              		.cfi_offset 14, -4
 550              		.cfi_offset 7, -8
 551 035e 84B0     		sub	sp, sp, #16
 552              	.LCFI15:
 553              		.cfi_def_cfa_offset 24
 554 0360 00AF     		add	r7, sp, #0
 555              	.LCFI16:
 556              		.cfi_def_cfa_register 7
 557 0362 0346     		mov	r3, r0
 558 0364 FB80     		strh	r3, [r7, #6]	@ movhi
 469:Libraries/uC-CSP/LPC17xx/csp_pm.c ****     CPU_INT32U  clk_freq;    
 470:Libraries/uC-CSP/LPC17xx/csp_pm.c ****     CPU_INT08U  clk_div;
 471:Libraries/uC-CSP/LPC17xx/csp_pm.c ****   
 472:Libraries/uC-CSP/LPC17xx/csp_pm.c **** 
 473:Libraries/uC-CSP/LPC17xx/csp_pm.c ****     if (clk_nbr >= CSP_PM_PER_CLK_NBR_MAX) {
 559              		.loc 1 473 0
 560 0366 FB88     		ldrh	r3, [r7, #6]
 561 0368 1F2B     		cmp	r3, #31
 562 036a 02D9     		bls	.L53
 474:Libraries/uC-CSP/LPC17xx/csp_pm.c ****         return (DEF_FAIL);    
 563              		.loc 1 474 0
 564 036c 4FF00003 		mov	r3, #0
 565 0370 64E0     		b	.L54
 566              	.L53:
 475:Libraries/uC-CSP/LPC17xx/csp_pm.c ****     }
 476:Libraries/uC-CSP/LPC17xx/csp_pm.c **** 
 477:Libraries/uC-CSP/LPC17xx/csp_pm.c ****     switch (clk_nbr) {
 567              		.loc 1 477 0
 568 0372 FA88     		ldrh	r2, [r7, #6]
 569 0374 1C2A     		cmp	r2, #28
 570 0376 0AD8     		bhi	.L71
 571 0378 40F60803 		movw	r3, #2056
 572 037c C0F24043 		movt	r3, 1088
 573 0380 03FA02F3 		lsl	r3, r3, r2
 574 0384 002B     		cmp	r3, #0
 575 0386 02DA     		bge	.L70
 576              	.L56:
 478:Libraries/uC-CSP/LPC17xx/csp_pm.c ****         case CSP_PM_PER_CLK_NBR_PCLKSEL_RSVD0:
 479:Libraries/uC-CSP/LPC17xx/csp_pm.c ****         case CSP_PM_PER_CLK_NBR_PCLKSEL_RSVD1:
 480:Libraries/uC-CSP/LPC17xx/csp_pm.c ****         case CSP_PM_PER_CLK_NBR_PCLKSEL_RSVD2:
 481:Libraries/uC-CSP/LPC17xx/csp_pm.c ****         case CSP_PM_PER_CLK_NBR_PCLKSEL_RSVD3:
 482:Libraries/uC-CSP/LPC17xx/csp_pm.c ****              return (DEF_FAIL);
 577              		.loc 1 482 0
 578 0388 4FF00003 		mov	r3, #0
 579 038c 56E0     		b	.L54
 580              	.L70:
 581              	.L71:
 483:Libraries/uC-CSP/LPC17xx/csp_pm.c ****        
 484:Libraries/uC-CSP/LPC17xx/csp_pm.c ****         default:
 485:Libraries/uC-CSP/LPC17xx/csp_pm.c ****              break;    
 582              		.loc 1 485 0
 583 038e 00BF     		nop
 584              	.L69:
 486:Libraries/uC-CSP/LPC17xx/csp_pm.c ****     }
 487:Libraries/uC-CSP/LPC17xx/csp_pm.c ****     
 488:Libraries/uC-CSP/LPC17xx/csp_pm.c ****     if (clk_nbr < 16u) {
 585              		.loc 1 488 0
 586 0390 FB88     		ldrh	r3, [r7, #6]
 587 0392 0F2B     		cmp	r3, #15
 588 0394 0ED8     		bhi	.L57
 489:Libraries/uC-CSP/LPC17xx/csp_pm.c ****         clk_div = (CPU_INT08U)((CSP_PM_REG_PCLKSEL0 >> ( clk_nbr       * 2)) & DEF_BIT_FIELD(2, 0))
 589              		.loc 1 489 0
 590 0396 4CF2A813 		movw	r3, #49576
 591 039a C4F20F03 		movt	r3, 16399
 592 039e 1A68     		ldr	r2, [r3, #0]
 593 03a0 FB88     		ldrh	r3, [r7, #6]
 594 03a2 4FEA4303 		lsl	r3, r3, #1
 595 03a6 22FA03F3 		lsr	r3, r2, r3
 596 03aa DBB2     		uxtb	r3, r3
 597 03ac 03F00303 		and	r3, r3, #3
 598 03b0 FB73     		strb	r3, [r7, #15]
 599 03b2 0FE0     		b	.L58
 600              	.L57:
 490:Libraries/uC-CSP/LPC17xx/csp_pm.c ****     } else {
 491:Libraries/uC-CSP/LPC17xx/csp_pm.c ****         clk_div = (CPU_INT08U)((CSP_PM_REG_PCLKSEL0 >> ((clk_nbr - 16) * 2)) & DEF_BIT_FIELD(2, 0))
 601              		.loc 1 491 0
 602 03b4 4CF2A813 		movw	r3, #49576
 603 03b8 C4F20F03 		movt	r3, 16399
 604 03bc 1A68     		ldr	r2, [r3, #0]
 605 03be FB88     		ldrh	r3, [r7, #6]
 606 03c0 A3F11003 		sub	r3, r3, #16
 607 03c4 4FEA4303 		lsl	r3, r3, #1
 608 03c8 22FA03F3 		lsr	r3, r2, r3
 609 03cc DBB2     		uxtb	r3, r3
 610 03ce 03F00303 		and	r3, r3, #3
 611 03d2 FB73     		strb	r3, [r7, #15]
 612              	.L58:
 492:Libraries/uC-CSP/LPC17xx/csp_pm.c ****     }
 493:Libraries/uC-CSP/LPC17xx/csp_pm.c **** 
 494:Libraries/uC-CSP/LPC17xx/csp_pm.c ****     switch (clk_div) {
 613              		.loc 1 494 0
 614 03d4 FB7B     		ldrb	r3, [r7, #15]	@ zero_extendqisi2
 615 03d6 032B     		cmp	r3, #3
 616 03d8 24D8     		bhi	.L59
 617 03da 01A2     		adr	r2, .L64
 618 03dc 52F823F0 		ldr	pc, [r2, r3, lsl #2]
 619              		.align	2
 620              	.L64:
 621 03e0 F1030000 		.word	.L60+1
 622 03e4 F9030000 		.word	.L61+1
 623 03e8 01040000 		.word	.L62+1
 624 03ec 09040000 		.word	.L63+1
 625              	.L60:
 495:Libraries/uC-CSP/LPC17xx/csp_pm.c ****         case 0u:
 496:Libraries/uC-CSP/LPC17xx/csp_pm.c ****              clk_div = 4u;
 626              		.loc 1 496 0
 627 03f0 4FF00403 		mov	r3, #4
 628 03f4 FB73     		strb	r3, [r7, #15]
 497:Libraries/uC-CSP/LPC17xx/csp_pm.c ****              break;
 629              		.loc 1 497 0
 630 03f6 18E0     		b	.L65
 631              	.L61:
 498:Libraries/uC-CSP/LPC17xx/csp_pm.c ****              
 499:Libraries/uC-CSP/LPC17xx/csp_pm.c ****         case 1u:
 500:Libraries/uC-CSP/LPC17xx/csp_pm.c ****              clk_div = 1u;
 632              		.loc 1 500 0
 633 03f8 4FF00103 		mov	r3, #1
 634 03fc FB73     		strb	r3, [r7, #15]
 501:Libraries/uC-CSP/LPC17xx/csp_pm.c ****              break;
 635              		.loc 1 501 0
 636 03fe 14E0     		b	.L65
 637              	.L62:
 502:Libraries/uC-CSP/LPC17xx/csp_pm.c ****              
 503:Libraries/uC-CSP/LPC17xx/csp_pm.c ****         case 2u:
 504:Libraries/uC-CSP/LPC17xx/csp_pm.c ****              clk_div = 2u;
 638              		.loc 1 504 0
 639 0400 4FF00203 		mov	r3, #2
 640 0404 FB73     		strb	r3, [r7, #15]
 505:Libraries/uC-CSP/LPC17xx/csp_pm.c ****              break;
 641              		.loc 1 505 0
 642 0406 10E0     		b	.L65
 643              	.L63:
 506:Libraries/uC-CSP/LPC17xx/csp_pm.c ****              
 507:Libraries/uC-CSP/LPC17xx/csp_pm.c ****         case 3u:
 508:Libraries/uC-CSP/LPC17xx/csp_pm.c ****              switch (clk_nbr) {
 644              		.loc 1 508 0
 645 0408 FB88     		ldrh	r3, [r7, #6]
 646 040a A3F10D03 		sub	r3, r3, #13
 647 040e 022B     		cmp	r3, #2
 648 0410 03D8     		bhi	.L66
 509:Libraries/uC-CSP/LPC17xx/csp_pm.c ****                  case CSP_PM_PER_CLK_NBR_CAN_01:
 510:Libraries/uC-CSP/LPC17xx/csp_pm.c ****                  case CSP_PM_PER_CLK_NBR_CAN_02:
 511:Libraries/uC-CSP/LPC17xx/csp_pm.c ****                  case CSP_PM_PER_CLK_NBR_ACF_00:
 512:Libraries/uC-CSP/LPC17xx/csp_pm.c ****                       clk_div = 6u;
 649              		.loc 1 512 0
 650 0412 4FF00603 		mov	r3, #6
 651 0416 FB73     		strb	r3, [r7, #15]
 513:Libraries/uC-CSP/LPC17xx/csp_pm.c ****                       break;
 652              		.loc 1 513 0
 653 0418 03E0     		b	.L68
 654              	.L66:
 514:Libraries/uC-CSP/LPC17xx/csp_pm.c ****                       
 515:Libraries/uC-CSP/LPC17xx/csp_pm.c ****                  default:
 516:Libraries/uC-CSP/LPC17xx/csp_pm.c ****                       clk_div = 8u;
 655              		.loc 1 516 0
 656 041a 4FF00803 		mov	r3, #8
 657 041e FB73     		strb	r3, [r7, #15]
 517:Libraries/uC-CSP/LPC17xx/csp_pm.c ****                       break;
 658              		.loc 1 517 0
 659 0420 00BF     		nop
 660              	.L68:
 518:Libraries/uC-CSP/LPC17xx/csp_pm.c ****              }
 519:Libraries/uC-CSP/LPC17xx/csp_pm.c ****              break;
 661              		.loc 1 519 0
 662 0422 02E0     		b	.L65
 663              	.L59:
 520:Libraries/uC-CSP/LPC17xx/csp_pm.c ****              
 521:Libraries/uC-CSP/LPC17xx/csp_pm.c ****         default:
 522:Libraries/uC-CSP/LPC17xx/csp_pm.c ****              return ((CPU_INT32U)0);
 664              		.loc 1 522 0
 665 0424 4FF00003 		mov	r3, #0
 666 0428 08E0     		b	.L54
 667              	.L65:
 523:Libraries/uC-CSP/LPC17xx/csp_pm.c ****         
 524:Libraries/uC-CSP/LPC17xx/csp_pm.c ****     }
 525:Libraries/uC-CSP/LPC17xx/csp_pm.c ****     
 526:Libraries/uC-CSP/LPC17xx/csp_pm.c ****     clk_freq  = CSP_PM_CPU_ClkFreqGet();
 668              		.loc 1 526 0
 669 042a FFF7FEFF 		bl	CSP_PM_CPU_ClkFreqGet
 670 042e B860     		str	r0, [r7, #8]
 527:Libraries/uC-CSP/LPC17xx/csp_pm.c ****     clk_freq /= clk_div;
 671              		.loc 1 527 0
 672 0430 FB7B     		ldrb	r3, [r7, #15]	@ zero_extendqisi2
 673 0432 BA68     		ldr	r2, [r7, #8]
 674 0434 B2FBF3F3 		udiv	r3, r2, r3
 675 0438 BB60     		str	r3, [r7, #8]
 528:Libraries/uC-CSP/LPC17xx/csp_pm.c ****     
 529:Libraries/uC-CSP/LPC17xx/csp_pm.c ****     return (clk_freq);
 676              		.loc 1 529 0
 677 043a BB68     		ldr	r3, [r7, #8]
 678              	.L54:
 530:Libraries/uC-CSP/LPC17xx/csp_pm.c **** }
 679              		.loc 1 530 0
 680 043c 1846     		mov	r0, r3
 681 043e 07F11007 		add	r7, r7, #16
 682 0442 BD46     		mov	sp, r7
 683 0444 80BD     		pop	{r7, pc}
 684              		.cfi_endproc
 685              	.LFE5:
 687 0446 00BF     		.align	2
 688              		.global	CSP_PM_SysClkEn
 689              		.thumb
 690              		.thumb_func
 692              	CSP_PM_SysClkEn:
 693              	.LFB6:
 531:Libraries/uC-CSP/LPC17xx/csp_pm.c **** 
 532:Libraries/uC-CSP/LPC17xx/csp_pm.c **** 
 533:Libraries/uC-CSP/LPC17xx/csp_pm.c **** /*
 534:Libraries/uC-CSP/LPC17xx/csp_pm.c **** ***************************************************************************************************
 535:Libraries/uC-CSP/LPC17xx/csp_pm.c **** *                                        CSP_PM_SysClkEn()
 536:Libraries/uC-CSP/LPC17xx/csp_pm.c **** *
 537:Libraries/uC-CSP/LPC17xx/csp_pm.c **** * Description : Enable a System Clock.
 538:Libraries/uC-CSP/LPC17xx/csp_pm.c **** *                   
 539:Libraries/uC-CSP/LPC17xx/csp_pm.c **** * Argument(s) : clk_nbr     System clock number (see note #1)                            
 540:Libraries/uC-CSP/LPC17xx/csp_pm.c **** *
 541:Libraries/uC-CSP/LPC17xx/csp_pm.c **** * Return(s)   : none.
 542:Libraries/uC-CSP/LPC17xx/csp_pm.c **** *
 543:Libraries/uC-CSP/LPC17xx/csp_pm.c **** * Caller(s)   : Application.
 544:Libraries/uC-CSP/LPC17xx/csp_pm.c **** *
 545:Libraries/uC-CSP/LPC17xx/csp_pm.c **** * Note(s)     : (1) Sytem clk number are defined in 'csp_grp.h'.
 546:Libraries/uC-CSP/LPC17xx/csp_pm.c **** *
 547:Libraries/uC-CSP/LPC17xx/csp_pm.c **** *                       CSP_SYS_CLK_NBR_XX  where 'XX' is the system clk name.
 548:Libraries/uC-CSP/LPC17xx/csp_pm.c **** *
 549:Libraries/uC-CSP/LPC17xx/csp_pm.c **** *                (2) The USB clock is the only system system clock found on the LPC17xx family. Thi
 550:Libraries/uC-CSP/LPC17xx/csp_pm.c **** *                   enabled and configured trougth the PLL1 or PLL 0 and the USB clock divider.
 551:Libraries/uC-CSP/LPC17xx/csp_pm.c **** *                   Since these is part of the startup code, System clock functionality is not impl
 552:Libraries/uC-CSP/LPC17xx/csp_pm.c **** *                   this family.
 553:Libraries/uC-CSP/LPC17xx/csp_pm.c **** ***************************************************************************************************
 554:Libraries/uC-CSP/LPC17xx/csp_pm.c **** */
 555:Libraries/uC-CSP/LPC17xx/csp_pm.c **** 
 556:Libraries/uC-CSP/LPC17xx/csp_pm.c **** void  CSP_PM_SysClkEn (CSP_DEV_NBR  clk_nbr)
 557:Libraries/uC-CSP/LPC17xx/csp_pm.c **** {
 694              		.loc 1 557 0
 695              		.cfi_startproc
 696              		@ args = 0, pretend = 0, frame = 8
 697              		@ frame_needed = 1, uses_anonymous_args = 0
 698              		@ link register save eliminated.
 699 0448 80B4     		push	{r7}
 700              	.LCFI17:
 701              		.cfi_def_cfa_offset 4
 702              		.cfi_offset 7, -4
 703 044a 83B0     		sub	sp, sp, #12
 704              	.LCFI18:
 705              		.cfi_def_cfa_offset 16
 706 044c 00AF     		add	r7, sp, #0
 707              	.LCFI19:
 708              		.cfi_def_cfa_register 7
 709 044e 0346     		mov	r3, r0
 710 0450 FB80     		strh	r3, [r7, #6]	@ movhi
 558:Libraries/uC-CSP/LPC17xx/csp_pm.c ****     (void)clk_nbr;
 559:Libraries/uC-CSP/LPC17xx/csp_pm.c **** }
 711              		.loc 1 559 0
 712 0452 07F10C07 		add	r7, r7, #12
 713 0456 BD46     		mov	sp, r7
 714 0458 80BC     		pop	{r7}
 715 045a 7047     		bx	lr
 716              		.cfi_endproc
 717              	.LFE6:
 719              		.align	2
 720              		.global	CSP_PM_SysClkDis
 721              		.thumb
 722              		.thumb_func
 724              	CSP_PM_SysClkDis:
 725              	.LFB7:
 560:Libraries/uC-CSP/LPC17xx/csp_pm.c **** 
 561:Libraries/uC-CSP/LPC17xx/csp_pm.c **** 
 562:Libraries/uC-CSP/LPC17xx/csp_pm.c **** /*
 563:Libraries/uC-CSP/LPC17xx/csp_pm.c **** ***************************************************************************************************
 564:Libraries/uC-CSP/LPC17xx/csp_pm.c **** *                                        CSP_PM_SysClkDis()
 565:Libraries/uC-CSP/LPC17xx/csp_pm.c **** *
 566:Libraries/uC-CSP/LPC17xx/csp_pm.c **** * Description : Disable a System Clock
 567:Libraries/uC-CSP/LPC17xx/csp_pm.c **** *                   
 568:Libraries/uC-CSP/LPC17xx/csp_pm.c **** * Argument(s) : clk_nbr     System clock number (see 'CSP_PM_SysClkEn()' note #1)
 569:Libraries/uC-CSP/LPC17xx/csp_pm.c **** *
 570:Libraries/uC-CSP/LPC17xx/csp_pm.c **** * Return(s)   : None.
 571:Libraries/uC-CSP/LPC17xx/csp_pm.c **** *
 572:Libraries/uC-CSP/LPC17xx/csp_pm.c **** * Caller(s)   : Application.
 573:Libraries/uC-CSP/LPC17xx/csp_pm.c **** *
 574:Libraries/uC-CSP/LPC17xx/csp_pm.c **** * Note(s)     : None.
 575:Libraries/uC-CSP/LPC17xx/csp_pm.c **** ***************************************************************************************************
 576:Libraries/uC-CSP/LPC17xx/csp_pm.c **** */
 577:Libraries/uC-CSP/LPC17xx/csp_pm.c **** 
 578:Libraries/uC-CSP/LPC17xx/csp_pm.c **** void  CSP_PM_SysClkDis (CSP_DEV_NBR clk_nbr)
 579:Libraries/uC-CSP/LPC17xx/csp_pm.c **** {
 726              		.loc 1 579 0
 727              		.cfi_startproc
 728              		@ args = 0, pretend = 0, frame = 8
 729              		@ frame_needed = 1, uses_anonymous_args = 0
 730              		@ link register save eliminated.
 731 045c 80B4     		push	{r7}
 732              	.LCFI20:
 733              		.cfi_def_cfa_offset 4
 734              		.cfi_offset 7, -4
 735 045e 83B0     		sub	sp, sp, #12
 736              	.LCFI21:
 737              		.cfi_def_cfa_offset 16
 738 0460 00AF     		add	r7, sp, #0
 739              	.LCFI22:
 740              		.cfi_def_cfa_register 7
 741 0462 0346     		mov	r3, r0
 742 0464 FB80     		strh	r3, [r7, #6]	@ movhi
 580:Libraries/uC-CSP/LPC17xx/csp_pm.c ****     (void)clk_nbr;
 581:Libraries/uC-CSP/LPC17xx/csp_pm.c **** }
 743              		.loc 1 581 0
 744 0466 07F10C07 		add	r7, r7, #12
 745 046a BD46     		mov	sp, r7
 746 046c 80BC     		pop	{r7}
 747 046e 7047     		bx	lr
 748              		.cfi_endproc
 749              	.LFE7:
 751              		.align	2
 752              		.global	CSP_PM_SysClkDivCfg
 753              		.thumb
 754              		.thumb_func
 756              	CSP_PM_SysClkDivCfg:
 757              	.LFB8:
 582:Libraries/uC-CSP/LPC17xx/csp_pm.c **** 
 583:Libraries/uC-CSP/LPC17xx/csp_pm.c **** 
 584:Libraries/uC-CSP/LPC17xx/csp_pm.c **** /*
 585:Libraries/uC-CSP/LPC17xx/csp_pm.c **** ***************************************************************************************************
 586:Libraries/uC-CSP/LPC17xx/csp_pm.c **** *                                         CSP_PM_SysClkDivCfg()
 587:Libraries/uC-CSP/LPC17xx/csp_pm.c **** *
 588:Libraries/uC-CSP/LPC17xx/csp_pm.c **** * Description : Configure peripheral clock divider.
 589:Libraries/uC-CSP/LPC17xx/csp_pm.c **** *                   
 590:Libraries/uC-CSP/LPC17xx/csp_pm.c **** * Argument(s) : clk_nbr     System clock number (see 'CSP_PM_SysClkEn()' note #1)
 591:Libraries/uC-CSP/LPC17xx/csp_pm.c **** *  
 592:Libraries/uC-CSP/LPC17xx/csp_pm.c **** *               clk_div     System clock divider.
 593:Libraries/uC-CSP/LPC17xx/csp_pm.c **** *
 594:Libraries/uC-CSP/LPC17xx/csp_pm.c **** * Return(s)   : DEF_OK,    If the clock was configured,
 595:Libraries/uC-CSP/LPC17xx/csp_pm.c **** *               DEF_FAIL,  otherwise.
 596:Libraries/uC-CSP/LPC17xx/csp_pm.c **** *
 597:Libraries/uC-CSP/LPC17xx/csp_pm.c **** * Caller(s)   : Application.
 598:Libraries/uC-CSP/LPC17xx/csp_pm.c **** *
 599:Libraries/uC-CSP/LPC17xx/csp_pm.c **** * Note(s)     : None.
 600:Libraries/uC-CSP/LPC17xx/csp_pm.c **** ***************************************************************************************************
 601:Libraries/uC-CSP/LPC17xx/csp_pm.c **** */
 602:Libraries/uC-CSP/LPC17xx/csp_pm.c **** 
 603:Libraries/uC-CSP/LPC17xx/csp_pm.c **** CPU_BOOLEAN  CSP_PM_SysClkDivCfg (CSP_DEV_NBR  clk_nbr,
 604:Libraries/uC-CSP/LPC17xx/csp_pm.c ****                                   CPU_SIZE_T   clk_div)
 605:Libraries/uC-CSP/LPC17xx/csp_pm.c **** {
 758              		.loc 1 605 0
 759              		.cfi_startproc
 760              		@ args = 0, pretend = 0, frame = 8
 761              		@ frame_needed = 1, uses_anonymous_args = 0
 762              		@ link register save eliminated.
 763 0470 80B4     		push	{r7}
 764              	.LCFI23:
 765              		.cfi_def_cfa_offset 4
 766              		.cfi_offset 7, -4
 767 0472 83B0     		sub	sp, sp, #12
 768              	.LCFI24:
 769              		.cfi_def_cfa_offset 16
 770 0474 00AF     		add	r7, sp, #0
 771              	.LCFI25:
 772              		.cfi_def_cfa_register 7
 773 0476 0346     		mov	r3, r0
 774 0478 3960     		str	r1, [r7, #0]
 775 047a FB80     		strh	r3, [r7, #6]	@ movhi
 606:Libraries/uC-CSP/LPC17xx/csp_pm.c ****     (void)&clk_nbr;
 607:Libraries/uC-CSP/LPC17xx/csp_pm.c ****     (void)&clk_div;
 608:Libraries/uC-CSP/LPC17xx/csp_pm.c ****     
 609:Libraries/uC-CSP/LPC17xx/csp_pm.c ****     return (DEF_OK);
 776              		.loc 1 609 0
 777 047c 4FF00103 		mov	r3, #1
 610:Libraries/uC-CSP/LPC17xx/csp_pm.c **** }
 778              		.loc 1 610 0
 779 0480 1846     		mov	r0, r3
 780 0482 07F10C07 		add	r7, r7, #12
 781 0486 BD46     		mov	sp, r7
 782 0488 80BC     		pop	{r7}
 783 048a 7047     		bx	lr
 784              		.cfi_endproc
 785              	.LFE8:
 787              		.align	2
 788              		.global	CSP_PM_SysClkFreqGet
 789              		.thumb
 790              		.thumb_func
 792              	CSP_PM_SysClkFreqGet:
 793              	.LFB9:
 611:Libraries/uC-CSP/LPC17xx/csp_pm.c **** 
 612:Libraries/uC-CSP/LPC17xx/csp_pm.c **** 
 613:Libraries/uC-CSP/LPC17xx/csp_pm.c **** /*
 614:Libraries/uC-CSP/LPC17xx/csp_pm.c **** ***************************************************************************************************
 615:Libraries/uC-CSP/LPC17xx/csp_pm.c **** *                                        CSP_PM_SysClkFreqGet()
 616:Libraries/uC-CSP/LPC17xx/csp_pm.c **** *
 617:Libraries/uC-CSP/LPC17xx/csp_pm.c **** * Description : Return system clock frequency.
 618:Libraries/uC-CSP/LPC17xx/csp_pm.c **** *                   
 619:Libraries/uC-CSP/LPC17xx/csp_pm.c **** * Argument(s) : clk_nbr     System clock number (see 'CSP_PM_SysClkEn()' note #1)
 620:Libraries/uC-CSP/LPC17xx/csp_pm.c **** *
 621:Libraries/uC-CSP/LPC17xx/csp_pm.c **** * Return(s)   : System clock frequency.
 622:Libraries/uC-CSP/LPC17xx/csp_pm.c **** *
 623:Libraries/uC-CSP/LPC17xx/csp_pm.c **** * Caller(s)   : Application.
 624:Libraries/uC-CSP/LPC17xx/csp_pm.c **** *
 625:Libraries/uC-CSP/LPC17xx/csp_pm.c **** * Note(s)     : None.
 626:Libraries/uC-CSP/LPC17xx/csp_pm.c **** ***************************************************************************************************
 627:Libraries/uC-CSP/LPC17xx/csp_pm.c **** */
 628:Libraries/uC-CSP/LPC17xx/csp_pm.c **** 
 629:Libraries/uC-CSP/LPC17xx/csp_pm.c **** CPU_INT32U  CSP_PM_SysClkFreqGet (CSP_DEV_NBR  clk_nbr)
 630:Libraries/uC-CSP/LPC17xx/csp_pm.c **** {
 794              		.loc 1 630 0
 795              		.cfi_startproc
 796              		@ args = 0, pretend = 0, frame = 8
 797              		@ frame_needed = 1, uses_anonymous_args = 0
 798              		@ link register save eliminated.
 799 048c 80B4     		push	{r7}
 800              	.LCFI26:
 801              		.cfi_def_cfa_offset 4
 802              		.cfi_offset 7, -4
 803 048e 83B0     		sub	sp, sp, #12
 804              	.LCFI27:
 805              		.cfi_def_cfa_offset 16
 806 0490 00AF     		add	r7, sp, #0
 807              	.LCFI28:
 808              		.cfi_def_cfa_register 7
 809 0492 0346     		mov	r3, r0
 810 0494 FB80     		strh	r3, [r7, #6]	@ movhi
 631:Libraries/uC-CSP/LPC17xx/csp_pm.c ****     (void)clk_nbr;
 632:Libraries/uC-CSP/LPC17xx/csp_pm.c ****     
 633:Libraries/uC-CSP/LPC17xx/csp_pm.c ****     return ((CPU_INT32U)0);
 811              		.loc 1 633 0
 812 0496 4FF00003 		mov	r3, #0
 634:Libraries/uC-CSP/LPC17xx/csp_pm.c **** }
 813              		.loc 1 634 0
 814 049a 1846     		mov	r0, r3
 815 049c 07F10C07 		add	r7, r7, #12
 816 04a0 BD46     		mov	sp, r7
 817 04a2 80BC     		pop	{r7}
 818 04a4 7047     		bx	lr
 819              		.cfi_endproc
 820              	.LFE9:
 822              	.Letext0:
 823              		.file 2 "Libraries/uC-CPU/cpu.h"
 824              		.file 3 "Libraries/uC-CSP/csp_types.h"