   1              		.syntax unified
   2              		.cpu cortex-m3
   3              		.fpu softvfp
   4              		.eabi_attribute 20, 1
   5              		.eabi_attribute 21, 1
   6              		.eabi_attribute 23, 3
   7              		.eabi_attribute 24, 1
   8              		.eabi_attribute 25, 1
   9              		.eabi_attribute 26, 1
  10              		.eabi_attribute 30, 6
  11              		.eabi_attribute 34, 1
  12              		.eabi_attribute 18, 4
  13              		.thumb
  14              		.file	"lpc17xx_uart.c"
  15              		.text
  16              	.Ltext0:
  17              		.cfi_sections	.debug_frame
  18              		.global	__aeabi_uldivmod
  19              		.align	2
  20              		.thumb
  21              		.thumb_func
  23              	uart_set_divisors:
  24              	.LFB55:
  25              		.file 1 "Libraries/uC-CSP/LPC17xx/lpc17xx_uart.c"
   1:Libraries/uC-CSP/LPC17xx/lpc17xx_uart.c **** /**********************************************************************
   2:Libraries/uC-CSP/LPC17xx/lpc17xx_uart.c **** * $Id$		lpc17xx_uart.c			2011-06-06
   3:Libraries/uC-CSP/LPC17xx/lpc17xx_uart.c **** *//**
   4:Libraries/uC-CSP/LPC17xx/lpc17xx_uart.c **** * @file		lpc17xx_uart.c
   5:Libraries/uC-CSP/LPC17xx/lpc17xx_uart.c **** * @brief	Contains all functions support for UART firmware library
   6:Libraries/uC-CSP/LPC17xx/lpc17xx_uart.c **** * 			on LPC17xx
   7:Libraries/uC-CSP/LPC17xx/lpc17xx_uart.c **** * @version	3.2
   8:Libraries/uC-CSP/LPC17xx/lpc17xx_uart.c **** * @date		25. July. 2011
   9:Libraries/uC-CSP/LPC17xx/lpc17xx_uart.c **** * @author	NXP MCU SW Application Team
  10:Libraries/uC-CSP/LPC17xx/lpc17xx_uart.c **** *
  11:Libraries/uC-CSP/LPC17xx/lpc17xx_uart.c **** * Copyright(C) 2011, NXP Semiconductor
  12:Libraries/uC-CSP/LPC17xx/lpc17xx_uart.c **** * All rights reserved.
  13:Libraries/uC-CSP/LPC17xx/lpc17xx_uart.c **** *
  14:Libraries/uC-CSP/LPC17xx/lpc17xx_uart.c **** ***********************************************************************
  15:Libraries/uC-CSP/LPC17xx/lpc17xx_uart.c **** * Software that is described herein is for illustrative purposes only
  16:Libraries/uC-CSP/LPC17xx/lpc17xx_uart.c **** * which provides customers with programming information regarding the
  17:Libraries/uC-CSP/LPC17xx/lpc17xx_uart.c **** * products. This software is supplied "AS IS" without any warranties.
  18:Libraries/uC-CSP/LPC17xx/lpc17xx_uart.c **** * NXP Semiconductors assumes no responsibility or liability for the
  19:Libraries/uC-CSP/LPC17xx/lpc17xx_uart.c **** * use of the software, conveys no license or title under any patent,
  20:Libraries/uC-CSP/LPC17xx/lpc17xx_uart.c **** * copyright, or mask work right to the product. NXP Semiconductors
  21:Libraries/uC-CSP/LPC17xx/lpc17xx_uart.c **** * reserves the right to make changes in the software without
  22:Libraries/uC-CSP/LPC17xx/lpc17xx_uart.c **** * notification. NXP Semiconductors also make no representation or
  23:Libraries/uC-CSP/LPC17xx/lpc17xx_uart.c **** * warranty that such application will be suitable for the specified
  24:Libraries/uC-CSP/LPC17xx/lpc17xx_uart.c **** * use without further testing or modification.
  25:Libraries/uC-CSP/LPC17xx/lpc17xx_uart.c **** **********************************************************************/
  26:Libraries/uC-CSP/LPC17xx/lpc17xx_uart.c **** 
  27:Libraries/uC-CSP/LPC17xx/lpc17xx_uart.c **** /* Peripheral group ----------------------------------------------------------- */
  28:Libraries/uC-CSP/LPC17xx/lpc17xx_uart.c **** /** @addtogroup UART
  29:Libraries/uC-CSP/LPC17xx/lpc17xx_uart.c ****  * @{
  30:Libraries/uC-CSP/LPC17xx/lpc17xx_uart.c ****  */
  31:Libraries/uC-CSP/LPC17xx/lpc17xx_uart.c **** 
  32:Libraries/uC-CSP/LPC17xx/lpc17xx_uart.c **** /* Includes ------------------------------------------------------------------- */
  33:Libraries/uC-CSP/LPC17xx/lpc17xx_uart.c **** #include "lpc17xx_uart.h"
  34:Libraries/uC-CSP/LPC17xx/lpc17xx_uart.c **** #include "lpc17xx_clkpwr.h"
  35:Libraries/uC-CSP/LPC17xx/lpc17xx_uart.c **** 
  36:Libraries/uC-CSP/LPC17xx/lpc17xx_uart.c **** 
  37:Libraries/uC-CSP/LPC17xx/lpc17xx_uart.c **** #ifdef _UART
  38:Libraries/uC-CSP/LPC17xx/lpc17xx_uart.c **** 
  39:Libraries/uC-CSP/LPC17xx/lpc17xx_uart.c **** /* Private Functions ---------------------------------------------------------- */
  40:Libraries/uC-CSP/LPC17xx/lpc17xx_uart.c **** 
  41:Libraries/uC-CSP/LPC17xx/lpc17xx_uart.c **** static Status uart_set_divisors(LPC_UART_TypeDef *UARTx, uint32_t baudrate);
  42:Libraries/uC-CSP/LPC17xx/lpc17xx_uart.c **** 
  43:Libraries/uC-CSP/LPC17xx/lpc17xx_uart.c **** 
  44:Libraries/uC-CSP/LPC17xx/lpc17xx_uart.c **** /*********************************************************************//**
  45:Libraries/uC-CSP/LPC17xx/lpc17xx_uart.c ****  * @brief		Determines best dividers to get a target clock rate
  46:Libraries/uC-CSP/LPC17xx/lpc17xx_uart.c ****  * @param[in]	UARTx	Pointer to selected UART peripheral, should be:
  47:Libraries/uC-CSP/LPC17xx/lpc17xx_uart.c ****  * 				- LPC_UART0: UART0 peripheral
  48:Libraries/uC-CSP/LPC17xx/lpc17xx_uart.c ****  * 				- LPC_UART1: UART1 peripheral
  49:Libraries/uC-CSP/LPC17xx/lpc17xx_uart.c ****  * 				- LPC_UART2: UART2 peripheral
  50:Libraries/uC-CSP/LPC17xx/lpc17xx_uart.c ****  * 				- LPC_UART3: UART3 peripheral
  51:Libraries/uC-CSP/LPC17xx/lpc17xx_uart.c ****  * @param[in]	baudrate Desired UART baud rate.
  52:Libraries/uC-CSP/LPC17xx/lpc17xx_uart.c ****  * @return 		Error status, could be:
  53:Libraries/uC-CSP/LPC17xx/lpc17xx_uart.c ****  * 				- SUCCESS
  54:Libraries/uC-CSP/LPC17xx/lpc17xx_uart.c ****  * 				- ERROR
  55:Libraries/uC-CSP/LPC17xx/lpc17xx_uart.c ****  **********************************************************************/
  56:Libraries/uC-CSP/LPC17xx/lpc17xx_uart.c **** static Status uart_set_divisors(LPC_UART_TypeDef *UARTx, uint32_t baudrate)
  57:Libraries/uC-CSP/LPC17xx/lpc17xx_uart.c **** {
  26              		.loc 1 57 0
  27              		.cfi_startproc
  28              		@ args = 0, pretend = 0, frame = 88
  29              		@ frame_needed = 1, uses_anonymous_args = 0
  30 0000 2DE9B04F 		push	{r4, r5, r7, r8, r9, sl, fp, lr}
  31              	.LCFI0:
  32              		.cfi_def_cfa_offset 32
  33              		.cfi_offset 14, -4
  34              		.cfi_offset 11, -8
  35              		.cfi_offset 10, -12
  36              		.cfi_offset 9, -16
  37              		.cfi_offset 8, -20
  38              		.cfi_offset 7, -24
  39              		.cfi_offset 5, -28
  40              		.cfi_offset 4, -32
  41 0004 96B0     		sub	sp, sp, #88
  42              	.LCFI1:
  43              		.cfi_def_cfa_offset 120
  44 0006 00AF     		add	r7, sp, #0
  45              	.LCFI2:
  46              		.cfi_def_cfa_register 7
  47 0008 7861     		str	r0, [r7, #20]
  48 000a 3961     		str	r1, [r7, #16]
  58:Libraries/uC-CSP/LPC17xx/lpc17xx_uart.c **** 	Status errorStatus = ERROR;
  49              		.loc 1 58 0
  50 000c 4FF00003 		mov	r3, #0
  51 0010 87F85730 		strb	r3, [r7, #87]
  59:Libraries/uC-CSP/LPC17xx/lpc17xx_uart.c **** 
  60:Libraries/uC-CSP/LPC17xx/lpc17xx_uart.c **** 	uint32_t uClk;
  61:Libraries/uC-CSP/LPC17xx/lpc17xx_uart.c **** 	uint32_t d, m, bestd, bestm, tmp;
  62:Libraries/uC-CSP/LPC17xx/lpc17xx_uart.c **** 	uint64_t best_divisor, divisor;
  63:Libraries/uC-CSP/LPC17xx/lpc17xx_uart.c **** 	uint32_t current_error, best_error;
  64:Libraries/uC-CSP/LPC17xx/lpc17xx_uart.c **** 	uint32_t recalcbaud;
  65:Libraries/uC-CSP/LPC17xx/lpc17xx_uart.c **** 
  66:Libraries/uC-CSP/LPC17xx/lpc17xx_uart.c **** 	/* get UART block clock */
  67:Libraries/uC-CSP/LPC17xx/lpc17xx_uart.c **** 	if (UARTx == LPC_UART0)
  52              		.loc 1 67 0
  53 0014 7A69     		ldr	r2, [r7, #20]
  54 0016 4FF44043 		mov	r3, #49152
  55 001a C4F20003 		movt	r3, 16384
  56 001e 9A42     		cmp	r2, r3
  57 0020 05D1     		bne	.L2
  68:Libraries/uC-CSP/LPC17xx/lpc17xx_uart.c **** 	{
  69:Libraries/uC-CSP/LPC17xx/lpc17xx_uart.c **** 		uClk = CLKPWR_GetPCLK (CLKPWR_PCLKSEL_UART0);
  58              		.loc 1 69 0
  59 0022 4FF00600 		mov	r0, #6
  60 0026 FFF7FEFF 		bl	CLKPWR_GetPCLK
  61 002a 3865     		str	r0, [r7, #80]
  62 002c 25E0     		b	.L3
  63              	.L2:
  70:Libraries/uC-CSP/LPC17xx/lpc17xx_uart.c **** 	}
  71:Libraries/uC-CSP/LPC17xx/lpc17xx_uart.c **** 	else if (UARTx == (LPC_UART_TypeDef *)LPC_UART1)
  64              		.loc 1 71 0
  65 002e 7A69     		ldr	r2, [r7, #20]
  66 0030 4FF00003 		mov	r3, #0
  67 0034 C4F20103 		movt	r3, 16385
  68 0038 9A42     		cmp	r2, r3
  69 003a 05D1     		bne	.L4
  72:Libraries/uC-CSP/LPC17xx/lpc17xx_uart.c **** 	{
  73:Libraries/uC-CSP/LPC17xx/lpc17xx_uart.c **** 		uClk = CLKPWR_GetPCLK (CLKPWR_PCLKSEL_UART1);
  70              		.loc 1 73 0
  71 003c 4FF00800 		mov	r0, #8
  72 0040 FFF7FEFF 		bl	CLKPWR_GetPCLK
  73 0044 3865     		str	r0, [r7, #80]
  74 0046 18E0     		b	.L3
  75              	.L4:
  74:Libraries/uC-CSP/LPC17xx/lpc17xx_uart.c **** 	}
  75:Libraries/uC-CSP/LPC17xx/lpc17xx_uart.c **** 	else if (UARTx == LPC_UART2)
  76              		.loc 1 75 0
  77 0048 7A69     		ldr	r2, [r7, #20]
  78 004a 4FF40043 		mov	r3, #32768
  79 004e C4F20903 		movt	r3, 16393
  80 0052 9A42     		cmp	r2, r3
  81 0054 05D1     		bne	.L5
  76:Libraries/uC-CSP/LPC17xx/lpc17xx_uart.c **** 	{
  77:Libraries/uC-CSP/LPC17xx/lpc17xx_uart.c **** 		uClk = CLKPWR_GetPCLK (CLKPWR_PCLKSEL_UART2);
  82              		.loc 1 77 0
  83 0056 4FF03000 		mov	r0, #48
  84 005a FFF7FEFF 		bl	CLKPWR_GetPCLK
  85 005e 3865     		str	r0, [r7, #80]
  86 0060 0BE0     		b	.L3
  87              	.L5:
  78:Libraries/uC-CSP/LPC17xx/lpc17xx_uart.c **** 	}
  79:Libraries/uC-CSP/LPC17xx/lpc17xx_uart.c **** 	else if (UARTx == LPC_UART3)
  88              		.loc 1 79 0
  89 0062 7A69     		ldr	r2, [r7, #20]
  90 0064 4FF44043 		mov	r3, #49152
  91 0068 C4F20903 		movt	r3, 16393
  92 006c 9A42     		cmp	r2, r3
  93 006e 04D1     		bne	.L3
  80:Libraries/uC-CSP/LPC17xx/lpc17xx_uart.c **** 	{
  81:Libraries/uC-CSP/LPC17xx/lpc17xx_uart.c **** 		uClk = CLKPWR_GetPCLK (CLKPWR_PCLKSEL_UART3);
  94              		.loc 1 81 0
  95 0070 4FF03200 		mov	r0, #50
  96 0074 FFF7FEFF 		bl	CLKPWR_GetPCLK
  97 0078 3865     		str	r0, [r7, #80]
  98              	.L3:
  82:Libraries/uC-CSP/LPC17xx/lpc17xx_uart.c **** 	}
  83:Libraries/uC-CSP/LPC17xx/lpc17xx_uart.c **** 
  84:Libraries/uC-CSP/LPC17xx/lpc17xx_uart.c **** 
  85:Libraries/uC-CSP/LPC17xx/lpc17xx_uart.c **** 	/* In the Uart IP block, baud rate is calculated using FDR and DLL-DLM registers
  86:Libraries/uC-CSP/LPC17xx/lpc17xx_uart.c **** 	* The formula is :
  87:Libraries/uC-CSP/LPC17xx/lpc17xx_uart.c **** 	* BaudRate= uClk * (mulFracDiv/(mulFracDiv+dividerAddFracDiv) / (16 * (DLL)
  88:Libraries/uC-CSP/LPC17xx/lpc17xx_uart.c **** 	* It involves floating point calculations. That's the reason the formulae are adjusted with
  89:Libraries/uC-CSP/LPC17xx/lpc17xx_uart.c **** 	* Multiply and divide method.*/
  90:Libraries/uC-CSP/LPC17xx/lpc17xx_uart.c **** 	/* The value of mulFracDiv and dividerAddFracDiv should comply to the following expressions:
  91:Libraries/uC-CSP/LPC17xx/lpc17xx_uart.c **** 	* 0 < mulFracDiv <= 15, 0 <= dividerAddFracDiv <= 15 */
  92:Libraries/uC-CSP/LPC17xx/lpc17xx_uart.c **** 	best_error = 0xFFFFFFFF; /* Worst case */
  99              		.loc 1 92 0
 100 007a 4FF0FF33 		mov	r3, #-1
 101 007e BB62     		str	r3, [r7, #40]
  93:Libraries/uC-CSP/LPC17xx/lpc17xx_uart.c **** 	bestd = 0;
 102              		.loc 1 93 0
 103 0080 4FF00003 		mov	r3, #0
 104 0084 7B64     		str	r3, [r7, #68]
  94:Libraries/uC-CSP/LPC17xx/lpc17xx_uart.c **** 	bestm = 0;
 105              		.loc 1 94 0
 106 0086 4FF00003 		mov	r3, #0
 107 008a 3B64     		str	r3, [r7, #64]
  95:Libraries/uC-CSP/LPC17xx/lpc17xx_uart.c **** 	best_divisor = 0;
 108              		.loc 1 95 0
 109 008c 4FF00002 		mov	r2, #0
 110 0090 4FF00003 		mov	r3, #0
 111 0094 C7E90C23 		strd	r2, [r7, #48]
  96:Libraries/uC-CSP/LPC17xx/lpc17xx_uart.c **** 	for (m = 1 ; m <= 15 ;m++)
 112              		.loc 1 96 0
 113 0098 4FF00103 		mov	r3, #1
 114 009c BB64     		str	r3, [r7, #72]
 115 009e 72E0     		b	.L6
 116              	.L16:
  97:Libraries/uC-CSP/LPC17xx/lpc17xx_uart.c **** 	{
  98:Libraries/uC-CSP/LPC17xx/lpc17xx_uart.c **** 		for (d = 0 ; d < m ; d++)
 117              		.loc 1 98 0
 118 00a0 4FF00003 		mov	r3, #0
 119 00a4 FB64     		str	r3, [r7, #76]
 120 00a6 61E0     		b	.L7
 121              	.L13:
  99:Libraries/uC-CSP/LPC17xx/lpc17xx_uart.c **** 		{
 100:Libraries/uC-CSP/LPC17xx/lpc17xx_uart.c **** 		  divisor = ((uint64_t)uClk<<28)*m/(baudrate*(m+d));
 122              		.loc 1 100 0
 123 00a8 396D     		ldr	r1, [r7, #80]
 124 00aa 0A46     		mov	r2, r1
 125 00ac 4FF00003 		mov	r3, #0
 126 00b0 4FEA1211 		lsr	r1, r2, #4
 127 00b4 4FEA0379 		lsl	r9, r3, #28
 128 00b8 41EA0909 		orr	r9, r1, r9
 129 00bc 4FEA0278 		lsl	r8, r2, #28
 130 00c0 B96C     		ldr	r1, [r7, #72]
 131 00c2 0A46     		mov	r2, r1
 132 00c4 4FF00003 		mov	r3, #0
 133 00c8 02FB09F0 		mul	r0, r2, r9
 134 00cc 08FB03F1 		mul	r1, r8, r3
 135 00d0 4118     		adds	r1, r0, r1
 136 00d2 A8FB0223 		umull	r2, r3, r8, r2
 137 00d6 C918     		adds	r1, r1, r3
 138 00d8 0B46     		mov	r3, r1
 139 00da B86C     		ldr	r0, [r7, #72]
 140 00dc F96C     		ldr	r1, [r7, #76]
 141 00de 4118     		adds	r1, r0, r1
 142 00e0 3869     		ldr	r0, [r7, #16]
 143 00e2 00FB01F1 		mul	r1, r0, r1
 144 00e6 0C46     		mov	r4, r1
 145 00e8 4FF00005 		mov	r5, #0
 146 00ec 1046     		mov	r0, r2
 147 00ee 1946     		mov	r1, r3
 148 00f0 2246     		mov	r2, r4
 149 00f2 2B46     		mov	r3, r5
 150 00f4 FFF7FEFF 		bl	__aeabi_uldivmod
 151 00f8 0246     		mov	r2, r0
 152 00fa 0B46     		mov	r3, r1
 153 00fc C7E90823 		strd	r2, [r7, #32]
 101:Libraries/uC-CSP/LPC17xx/lpc17xx_uart.c **** 		  current_error = divisor & 0xFFFFFFFF;
 154              		.loc 1 101 0
 155 0100 3B6A     		ldr	r3, [r7, #32]
 156 0102 FB62     		str	r3, [r7, #44]
 102:Libraries/uC-CSP/LPC17xx/lpc17xx_uart.c **** 
 103:Libraries/uC-CSP/LPC17xx/lpc17xx_uart.c **** 		  tmp = divisor>>32;
 157              		.loc 1 103 0
 158 0104 7B6A     		ldr	r3, [r7, #36]
 159 0106 1B46     		mov	r3, r3
 160 0108 BB60     		str	r3, [r7, #8]
 161 010a 4FF00001 		mov	r1, #0
 162 010e F960     		str	r1, [r7, #12]
 163 0110 BB68     		ldr	r3, [r7, #8]
 164 0112 FB63     		str	r3, [r7, #60]
 104:Libraries/uC-CSP/LPC17xx/lpc17xx_uart.c **** 
 105:Libraries/uC-CSP/LPC17xx/lpc17xx_uart.c **** 		  /* Adjust error */
 106:Libraries/uC-CSP/LPC17xx/lpc17xx_uart.c **** 		  if(current_error > ((uint32_t)1<<31)){
 165              		.loc 1 106 0
 166 0114 FB6A     		ldr	r3, [r7, #44]
 167 0116 B3F1004F 		cmp	r3, #-2147483648
 168 011a 07D9     		bls	.L8
 107:Libraries/uC-CSP/LPC17xx/lpc17xx_uart.c **** 			current_error = -current_error;
 169              		.loc 1 107 0
 170 011c FB6A     		ldr	r3, [r7, #44]
 171 011e C3F10003 		rsb	r3, r3, #0
 172 0122 FB62     		str	r3, [r7, #44]
 108:Libraries/uC-CSP/LPC17xx/lpc17xx_uart.c **** 			tmp++;
 173              		.loc 1 108 0
 174 0124 FB6B     		ldr	r3, [r7, #60]
 175 0126 03F10103 		add	r3, r3, #1
 176 012a FB63     		str	r3, [r7, #60]
 177              	.L8:
 109:Libraries/uC-CSP/LPC17xx/lpc17xx_uart.c **** 			}
 110:Libraries/uC-CSP/LPC17xx/lpc17xx_uart.c **** 
 111:Libraries/uC-CSP/LPC17xx/lpc17xx_uart.c **** 		  if(tmp<1 || tmp>65536) /* Out of range */
 178              		.loc 1 111 0
 179 012c FB6B     		ldr	r3, [r7, #60]
 180 012e 002B     		cmp	r3, #0
 181 0130 17D0     		beq	.L24
 182              		.loc 1 111 0 is_stmt 0 discriminator 1
 183 0132 FB6B     		ldr	r3, [r7, #60]
 184 0134 B3F5803F 		cmp	r3, #65536
 185 0138 13D8     		bhi	.L24
 186              	.L10:
 112:Libraries/uC-CSP/LPC17xx/lpc17xx_uart.c **** 		  continue;
 113:Libraries/uC-CSP/LPC17xx/lpc17xx_uart.c **** 
 114:Libraries/uC-CSP/LPC17xx/lpc17xx_uart.c **** 		  if( current_error < best_error){
 187              		.loc 1 114 0 is_stmt 1
 188 013a FA6A     		ldr	r2, [r7, #44]
 189 013c BB6A     		ldr	r3, [r7, #40]
 190 013e 9A42     		cmp	r2, r3
 191 0140 10D2     		bcs	.L11
 115:Libraries/uC-CSP/LPC17xx/lpc17xx_uart.c **** 			best_error = current_error;
 192              		.loc 1 115 0
 193 0142 FB6A     		ldr	r3, [r7, #44]
 194 0144 BB62     		str	r3, [r7, #40]
 116:Libraries/uC-CSP/LPC17xx/lpc17xx_uart.c **** 			best_divisor = tmp;
 195              		.loc 1 116 0
 196 0146 F96B     		ldr	r1, [r7, #60]
 197 0148 0A46     		mov	r2, r1
 198 014a 4FF00003 		mov	r3, #0
 199 014e C7E90C23 		strd	r2, [r7, #48]
 117:Libraries/uC-CSP/LPC17xx/lpc17xx_uart.c **** 			bestd = d;
 200              		.loc 1 117 0
 201 0152 FB6C     		ldr	r3, [r7, #76]
 202 0154 7B64     		str	r3, [r7, #68]
 118:Libraries/uC-CSP/LPC17xx/lpc17xx_uart.c **** 			bestm = m;
 203              		.loc 1 118 0
 204 0156 BB6C     		ldr	r3, [r7, #72]
 205 0158 3B64     		str	r3, [r7, #64]
 119:Libraries/uC-CSP/LPC17xx/lpc17xx_uart.c **** 			if(best_error == 0) break;
 206              		.loc 1 119 0
 207 015a BB6A     		ldr	r3, [r7, #40]
 208 015c 002B     		cmp	r3, #0
 209 015e 0AD0     		beq	.L25
 210 0160 00E0     		b	.L11
 211              	.L24:
 112:Libraries/uC-CSP/LPC17xx/lpc17xx_uart.c **** 		  continue;
 212              		.loc 1 112 0
 213 0162 00BF     		nop
 214              	.L11:
  98:Libraries/uC-CSP/LPC17xx/lpc17xx_uart.c **** 		for (d = 0 ; d < m ; d++)
 215              		.loc 1 98 0
 216 0164 FB6C     		ldr	r3, [r7, #76]
 217 0166 03F10103 		add	r3, r3, #1
 218 016a FB64     		str	r3, [r7, #76]
 219              	.L7:
  98:Libraries/uC-CSP/LPC17xx/lpc17xx_uart.c **** 		for (d = 0 ; d < m ; d++)
 220              		.loc 1 98 0 is_stmt 0 discriminator 1
 221 016c FA6C     		ldr	r2, [r7, #76]
 222 016e BB6C     		ldr	r3, [r7, #72]
 223 0170 9A42     		cmp	r2, r3
 224 0172 99D3     		bcc	.L13
 225 0174 00E0     		b	.L12
 226              	.L25:
 227              		.loc 1 119 0 is_stmt 1
 228 0176 00BF     		nop
 229              	.L12:
 120:Libraries/uC-CSP/LPC17xx/lpc17xx_uart.c **** 			}
 121:Libraries/uC-CSP/LPC17xx/lpc17xx_uart.c **** 		} /* end of inner for loop */
 122:Libraries/uC-CSP/LPC17xx/lpc17xx_uart.c **** 
 123:Libraries/uC-CSP/LPC17xx/lpc17xx_uart.c **** 		if (best_error == 0)
 230              		.loc 1 123 0
 231 0178 BB6A     		ldr	r3, [r7, #40]
 232 017a 002B     		cmp	r3, #0
 233 017c 07D0     		beq	.L26
 234              	.L14:
  96:Libraries/uC-CSP/LPC17xx/lpc17xx_uart.c **** 	for (m = 1 ; m <= 15 ;m++)
 235              		.loc 1 96 0
 236 017e BB6C     		ldr	r3, [r7, #72]
 237 0180 03F10103 		add	r3, r3, #1
 238 0184 BB64     		str	r3, [r7, #72]
 239              	.L6:
  96:Libraries/uC-CSP/LPC17xx/lpc17xx_uart.c **** 	for (m = 1 ; m <= 15 ;m++)
 240              		.loc 1 96 0 is_stmt 0 discriminator 1
 241 0186 BB6C     		ldr	r3, [r7, #72]
 242 0188 0F2B     		cmp	r3, #15
 243 018a 89D9     		bls	.L16
 244 018c 00E0     		b	.L15
 245              	.L26:
 124:Libraries/uC-CSP/LPC17xx/lpc17xx_uart.c **** 		  break;
 246              		.loc 1 124 0 is_stmt 1
 247 018e 00BF     		nop
 248              	.L15:
 125:Libraries/uC-CSP/LPC17xx/lpc17xx_uart.c **** 	} /* end of outer for loop  */
 126:Libraries/uC-CSP/LPC17xx/lpc17xx_uart.c **** 
 127:Libraries/uC-CSP/LPC17xx/lpc17xx_uart.c **** 	if(best_divisor == 0) return ERROR; /* can not find best match */
 249              		.loc 1 127 0
 250 0190 D7E90C23 		ldrd	r2, [r7, #48]
 251 0194 52EA0301 		orrs	r1, r2, r3
 252 0198 02D1     		bne	.L17
 253              		.loc 1 127 0 is_stmt 0 discriminator 1
 254 019a 4FF00003 		mov	r3, #0
 255 019e AAE0     		b	.L18
 256              	.L17:
 128:Libraries/uC-CSP/LPC17xx/lpc17xx_uart.c **** 
 129:Libraries/uC-CSP/LPC17xx/lpc17xx_uart.c **** 	recalcbaud = (uClk>>4) * bestm/(best_divisor * (bestm + bestd));
 257              		.loc 1 129 0 is_stmt 1
 258 01a0 3B6D     		ldr	r3, [r7, #80]
 259 01a2 4FEA1313 		lsr	r3, r3, #4
 260 01a6 3A6C     		ldr	r2, [r7, #64]
 261 01a8 02FB03F3 		mul	r3, r2, r3
 262 01ac 1846     		mov	r0, r3
 263 01ae 4FF00001 		mov	r1, #0
 264 01b2 3A6C     		ldr	r2, [r7, #64]
 265 01b4 7B6C     		ldr	r3, [r7, #68]
 266 01b6 D418     		adds	r4, r2, r3
 267 01b8 2246     		mov	r2, r4
 268 01ba 4FF00003 		mov	r3, #0
 269 01be 3C6B     		ldr	r4, [r7, #48]
 270 01c0 03FB04F5 		mul	r5, r3, r4
 271 01c4 7C6B     		ldr	r4, [r7, #52]
 272 01c6 02FB04F4 		mul	r4, r2, r4
 273 01ca 2C19     		adds	r4, r5, r4
 274 01cc 3D6B     		ldr	r5, [r7, #48]
 275 01ce A5FB0223 		umull	r2, r3, r5, r2
 276 01d2 E418     		adds	r4, r4, r3
 277 01d4 2346     		mov	r3, r4
 278 01d6 FFF7FEFF 		bl	__aeabi_uldivmod
 279 01da 0246     		mov	r2, r0
 280 01dc 0B46     		mov	r3, r1
 281 01de 1346     		mov	r3, r2
 282 01e0 FB61     		str	r3, [r7, #28]
 130:Libraries/uC-CSP/LPC17xx/lpc17xx_uart.c **** 
 131:Libraries/uC-CSP/LPC17xx/lpc17xx_uart.c **** 	/* reuse best_error to evaluate baud error*/
 132:Libraries/uC-CSP/LPC17xx/lpc17xx_uart.c **** 	if(baudrate>recalcbaud) best_error = baudrate - recalcbaud;
 283              		.loc 1 132 0
 284 01e2 3A69     		ldr	r2, [r7, #16]
 285 01e4 FB69     		ldr	r3, [r7, #28]
 286 01e6 9A42     		cmp	r2, r3
 287 01e8 04D9     		bls	.L19
 288              		.loc 1 132 0 is_stmt 0 discriminator 1
 289 01ea 3A69     		ldr	r2, [r7, #16]
 290 01ec FB69     		ldr	r3, [r7, #28]
 291 01ee D31A     		subs	r3, r2, r3
 292 01f0 BB62     		str	r3, [r7, #40]
 293 01f2 03E0     		b	.L20
 294              	.L19:
 133:Libraries/uC-CSP/LPC17xx/lpc17xx_uart.c **** 	else best_error = recalcbaud -baudrate;
 295              		.loc 1 133 0 is_stmt 1
 296 01f4 FA69     		ldr	r2, [r7, #28]
 297 01f6 3B69     		ldr	r3, [r7, #16]
 298 01f8 D31A     		subs	r3, r2, r3
 299 01fa BB62     		str	r3, [r7, #40]
 300              	.L20:
 134:Libraries/uC-CSP/LPC17xx/lpc17xx_uart.c **** 
 135:Libraries/uC-CSP/LPC17xx/lpc17xx_uart.c **** 	best_error = best_error * 100 / baudrate;
 301              		.loc 1 135 0
 302 01fc BB6A     		ldr	r3, [r7, #40]
 303 01fe 4FF06402 		mov	r2, #100
 304 0202 02FB03F2 		mul	r2, r2, r3
 305 0206 3B69     		ldr	r3, [r7, #16]
 306 0208 B2FBF3F3 		udiv	r3, r2, r3
 307 020c BB62     		str	r3, [r7, #40]
 136:Libraries/uC-CSP/LPC17xx/lpc17xx_uart.c **** 
 137:Libraries/uC-CSP/LPC17xx/lpc17xx_uart.c **** 	if (best_error < UART_ACCEPTED_BAUDRATE_ERROR)
 308              		.loc 1 137 0
 309 020e BB6A     		ldr	r3, [r7, #40]
 310 0210 022B     		cmp	r3, #2
 311 0212 6ED8     		bhi	.L21
 138:Libraries/uC-CSP/LPC17xx/lpc17xx_uart.c **** 		{
 139:Libraries/uC-CSP/LPC17xx/lpc17xx_uart.c **** 			if (((LPC_UART1_TypeDef *)UARTx) == LPC_UART1)
 312              		.loc 1 139 0
 313 0214 7A69     		ldr	r2, [r7, #20]
 314 0216 4FF00003 		mov	r3, #0
 315 021a C4F20103 		movt	r3, 16385
 316 021e 9A42     		cmp	r2, r3
 317 0220 31D1     		bne	.L22
 140:Libraries/uC-CSP/LPC17xx/lpc17xx_uart.c **** 			{
 141:Libraries/uC-CSP/LPC17xx/lpc17xx_uart.c **** 				((LPC_UART1_TypeDef *)UARTx)->LCR |= UART_LCR_DLAB_EN;
 318              		.loc 1 141 0
 319 0222 7B69     		ldr	r3, [r7, #20]
 320 0224 1B7B     		ldrb	r3, [r3, #12]
 321 0226 DBB2     		uxtb	r3, r3
 322 0228 63F07F03 		orn	r3, r3, #127
 323 022c DAB2     		uxtb	r2, r3
 324 022e 7B69     		ldr	r3, [r7, #20]
 325 0230 1A73     		strb	r2, [r3, #12]
 142:Libraries/uC-CSP/LPC17xx/lpc17xx_uart.c **** 				((LPC_UART1_TypeDef *)UARTx)->/*DLIER.*/DLM = UART_LOAD_DLM(best_divisor);
 326              		.loc 1 142 0
 327 0232 7B6B     		ldr	r3, [r7, #52]
 328 0234 4FEA0363 		lsl	r3, r3, #24
 329 0238 3A6B     		ldr	r2, [r7, #48]
 330 023a 4FEA1222 		lsr	r2, r2, #8
 331 023e 3A60     		str	r2, [r7, #0]
 332 0240 3A68     		ldr	r2, [r7, #0]
 333 0242 1A43     		orrs	r2, r2, r3
 334 0244 3A60     		str	r2, [r7, #0]
 335 0246 7B6B     		ldr	r3, [r7, #52]
 336 0248 4FEA1323 		lsr	r3, r3, #8
 337 024c 7B60     		str	r3, [r7, #4]
 338 024e 3B78     		ldrb	r3, [r7, #0]
 339 0250 DAB2     		uxtb	r2, r3
 340 0252 7B69     		ldr	r3, [r7, #20]
 341 0254 1A71     		strb	r2, [r3, #4]
 143:Libraries/uC-CSP/LPC17xx/lpc17xx_uart.c **** 				((LPC_UART1_TypeDef *)UARTx)->/*RBTHDLR.*/DLL = UART_LOAD_DLL(best_divisor);
 342              		.loc 1 143 0
 343 0256 97F83020 		ldrb	r2, [r7, #48]	@ zero_extendqisi2
 344 025a 7B69     		ldr	r3, [r7, #20]
 345 025c 1A70     		strb	r2, [r3, #0]
 144:Libraries/uC-CSP/LPC17xx/lpc17xx_uart.c **** 				/* Then reset DLAB bit */
 145:Libraries/uC-CSP/LPC17xx/lpc17xx_uart.c **** 				((LPC_UART1_TypeDef *)UARTx)->LCR &= (~UART_LCR_DLAB_EN) & UART_LCR_BITMASK;
 346              		.loc 1 145 0
 347 025e 7B69     		ldr	r3, [r7, #20]
 348 0260 1B7B     		ldrb	r3, [r3, #12]
 349 0262 DBB2     		uxtb	r3, r3
 350 0264 03F07F03 		and	r3, r3, #127
 351 0268 DAB2     		uxtb	r2, r3
 352 026a 7B69     		ldr	r3, [r7, #20]
 353 026c 1A73     		strb	r2, [r3, #12]
 146:Libraries/uC-CSP/LPC17xx/lpc17xx_uart.c **** 				((LPC_UART1_TypeDef *)UARTx)->FDR = (UART_FDR_MULVAL(bestm) \
 354              		.loc 1 146 0
 355 026e 3B6C     		ldr	r3, [r7, #64]
 356 0270 4FEA0313 		lsl	r3, r3, #4
 357 0274 DAB2     		uxtb	r2, r3
 147:Libraries/uC-CSP/LPC17xx/lpc17xx_uart.c **** 						| UART_FDR_DIVADDVAL(bestd)) & UART_FDR_BITMASK;
 358              		.loc 1 147 0
 359 0276 7B6C     		ldr	r3, [r7, #68]
 360 0278 03F00F03 		and	r3, r3, #15
 361 027c 1343     		orrs	r3, r3, r2
 362 027e DAB2     		uxtb	r2, r3
 146:Libraries/uC-CSP/LPC17xx/lpc17xx_uart.c **** 				((LPC_UART1_TypeDef *)UARTx)->FDR = (UART_FDR_MULVAL(bestm) \
 363              		.loc 1 146 0
 364 0280 7B69     		ldr	r3, [r7, #20]
 365 0282 9A62     		str	r2, [r3, #40]
 366 0284 31E0     		b	.L23
 367              	.L22:
 148:Libraries/uC-CSP/LPC17xx/lpc17xx_uart.c **** 			}
 149:Libraries/uC-CSP/LPC17xx/lpc17xx_uart.c **** 			else
 150:Libraries/uC-CSP/LPC17xx/lpc17xx_uart.c **** 			{
 151:Libraries/uC-CSP/LPC17xx/lpc17xx_uart.c **** 				UARTx->LCR |= UART_LCR_DLAB_EN;
 368              		.loc 1 151 0
 369 0286 7B69     		ldr	r3, [r7, #20]
 370 0288 1B7B     		ldrb	r3, [r3, #12]
 371 028a DBB2     		uxtb	r3, r3
 372 028c 63F07F03 		orn	r3, r3, #127
 373 0290 DAB2     		uxtb	r2, r3
 374 0292 7B69     		ldr	r3, [r7, #20]
 375 0294 1A73     		strb	r2, [r3, #12]
 152:Libraries/uC-CSP/LPC17xx/lpc17xx_uart.c **** 				UARTx->/*DLIER.*/DLM = UART_LOAD_DLM(best_divisor);
 376              		.loc 1 152 0
 377 0296 7B6B     		ldr	r3, [r7, #52]
 378 0298 4FEA0363 		lsl	r3, r3, #24
 379 029c 3A6B     		ldr	r2, [r7, #48]
 380 029e 4FEA122A 		lsr	sl, r2, #8
 381 02a2 43EA0A0A 		orr	sl, r3, sl
 382 02a6 7B6B     		ldr	r3, [r7, #52]
 383 02a8 4FEA132B 		lsr	fp, r3, #8
 384 02ac 5FFA8AF2 		uxtb	r2, sl
 385 02b0 7B69     		ldr	r3, [r7, #20]
 386 02b2 1A71     		strb	r2, [r3, #4]
 153:Libraries/uC-CSP/LPC17xx/lpc17xx_uart.c **** 				UARTx->/*RBTHDLR.*/DLL = UART_LOAD_DLL(best_divisor);
 387              		.loc 1 153 0
 388 02b4 97F83020 		ldrb	r2, [r7, #48]	@ zero_extendqisi2
 389 02b8 7B69     		ldr	r3, [r7, #20]
 390 02ba 1A70     		strb	r2, [r3, #0]
 154:Libraries/uC-CSP/LPC17xx/lpc17xx_uart.c **** 				/* Then reset DLAB bit */
 155:Libraries/uC-CSP/LPC17xx/lpc17xx_uart.c **** 				UARTx->LCR &= (~UART_LCR_DLAB_EN) & UART_LCR_BITMASK;
 391              		.loc 1 155 0
 392 02bc 7B69     		ldr	r3, [r7, #20]
 393 02be 1B7B     		ldrb	r3, [r3, #12]
 394 02c0 DBB2     		uxtb	r3, r3
 395 02c2 03F07F03 		and	r3, r3, #127
 396 02c6 DAB2     		uxtb	r2, r3
 397 02c8 7B69     		ldr	r3, [r7, #20]
 398 02ca 1A73     		strb	r2, [r3, #12]
 156:Libraries/uC-CSP/LPC17xx/lpc17xx_uart.c **** 				UARTx->FDR = (UART_FDR_MULVAL(bestm) \
 399              		.loc 1 156 0
 400 02cc 3B6C     		ldr	r3, [r7, #64]
 401 02ce DBB2     		uxtb	r3, r3
 402 02d0 4FEA0313 		lsl	r3, r3, #4
 403 02d4 DAB2     		uxtb	r2, r3
 404 02d6 7B6C     		ldr	r3, [r7, #68]
 405 02d8 DBB2     		uxtb	r3, r3
 406 02da 03F00F03 		and	r3, r3, #15
 407 02de DBB2     		uxtb	r3, r3
 408 02e0 1343     		orrs	r3, r3, r2
 409 02e2 DAB2     		uxtb	r2, r3
 410 02e4 7B69     		ldr	r3, [r7, #20]
 411 02e6 83F82820 		strb	r2, [r3, #40]
 412              	.L23:
 157:Libraries/uC-CSP/LPC17xx/lpc17xx_uart.c **** 						| UART_FDR_DIVADDVAL(bestd)) & UART_FDR_BITMASK;
 158:Libraries/uC-CSP/LPC17xx/lpc17xx_uart.c **** 			}
 159:Libraries/uC-CSP/LPC17xx/lpc17xx_uart.c **** 			errorStatus = SUCCESS;
 413              		.loc 1 159 0
 414 02ea 4FF00103 		mov	r3, #1
 415 02ee 87F85730 		strb	r3, [r7, #87]
 416              	.L21:
 160:Libraries/uC-CSP/LPC17xx/lpc17xx_uart.c **** 		}
 161:Libraries/uC-CSP/LPC17xx/lpc17xx_uart.c **** 
 162:Libraries/uC-CSP/LPC17xx/lpc17xx_uart.c **** 		return errorStatus;
 417              		.loc 1 162 0
 418 02f2 97F85730 		ldrb	r3, [r7, #87]	@ zero_extendqisi2
 419              	.L18:
 163:Libraries/uC-CSP/LPC17xx/lpc17xx_uart.c **** }
 420              		.loc 1 163 0
 421 02f6 1846     		mov	r0, r3
 422 02f8 07F15807 		add	r7, r7, #88
 423 02fc BD46     		mov	sp, r7
 424 02fe BDE8B08F 		pop	{r4, r5, r7, r8, r9, sl, fp, pc}
 425              		.cfi_endproc
 426              	.LFE55:
 428 0302 00BF     		.align	2
 429              		.global	UART_Init
 430              		.thumb
 431              		.thumb_func
 433              	UART_Init:
 434              	.LFB56:
 164:Libraries/uC-CSP/LPC17xx/lpc17xx_uart.c **** 
 165:Libraries/uC-CSP/LPC17xx/lpc17xx_uart.c **** /* End of Private Functions ---------------------------------------------------- */
 166:Libraries/uC-CSP/LPC17xx/lpc17xx_uart.c **** 
 167:Libraries/uC-CSP/LPC17xx/lpc17xx_uart.c **** 
 168:Libraries/uC-CSP/LPC17xx/lpc17xx_uart.c **** /* Public Functions ----------------------------------------------------------- */
 169:Libraries/uC-CSP/LPC17xx/lpc17xx_uart.c **** /** @addtogroup UART_Public_Functions
 170:Libraries/uC-CSP/LPC17xx/lpc17xx_uart.c ****  * @{
 171:Libraries/uC-CSP/LPC17xx/lpc17xx_uart.c ****  */
 172:Libraries/uC-CSP/LPC17xx/lpc17xx_uart.c **** /* UART Init/DeInit functions -------------------------------------------------*/
 173:Libraries/uC-CSP/LPC17xx/lpc17xx_uart.c **** /********************************************************************//**
 174:Libraries/uC-CSP/LPC17xx/lpc17xx_uart.c ****  * @brief		Initializes the UARTx peripheral according to the specified
 175:Libraries/uC-CSP/LPC17xx/lpc17xx_uart.c ****  *               parameters in the UART_ConfigStruct.
 176:Libraries/uC-CSP/LPC17xx/lpc17xx_uart.c ****  * @param[in]	UARTx	UART peripheral selected, should be:
 177:Libraries/uC-CSP/LPC17xx/lpc17xx_uart.c ****  *   			- LPC_UART0: UART0 peripheral
 178:Libraries/uC-CSP/LPC17xx/lpc17xx_uart.c ****  * 				- LPC_UART1: UART1 peripheral
 179:Libraries/uC-CSP/LPC17xx/lpc17xx_uart.c ****  * 				- LPC_UART2: UART2 peripheral
 180:Libraries/uC-CSP/LPC17xx/lpc17xx_uart.c ****  * 				- LPC_UART3: UART3 peripheral
 181:Libraries/uC-CSP/LPC17xx/lpc17xx_uart.c ****  * @param[in]	UART_ConfigStruct Pointer to a UART_CFG_Type structure
 182:Libraries/uC-CSP/LPC17xx/lpc17xx_uart.c **** *                    that contains the configuration information for the
 183:Libraries/uC-CSP/LPC17xx/lpc17xx_uart.c **** *                    specified UART peripheral.
 184:Libraries/uC-CSP/LPC17xx/lpc17xx_uart.c ****  * @return 		None
 185:Libraries/uC-CSP/LPC17xx/lpc17xx_uart.c ****  *********************************************************************/
 186:Libraries/uC-CSP/LPC17xx/lpc17xx_uart.c **** void UART_Init(LPC_UART_TypeDef *UARTx, UART_CFG_Type *UART_ConfigStruct)
 187:Libraries/uC-CSP/LPC17xx/lpc17xx_uart.c **** {
 435              		.loc 1 187 0
 436              		.cfi_startproc
 437              		@ args = 0, pretend = 0, frame = 16
 438              		@ frame_needed = 1, uses_anonymous_args = 0
 439 0304 80B5     		push	{r7, lr}
 440              	.LCFI3:
 441              		.cfi_def_cfa_offset 8
 442              		.cfi_offset 14, -4
 443              		.cfi_offset 7, -8
 444 0306 84B0     		sub	sp, sp, #16
 445              	.LCFI4:
 446              		.cfi_def_cfa_offset 24
 447 0308 00AF     		add	r7, sp, #0
 448              	.LCFI5:
 449              		.cfi_def_cfa_register 7
 450 030a 7860     		str	r0, [r7, #4]
 451 030c 3960     		str	r1, [r7, #0]
 188:Libraries/uC-CSP/LPC17xx/lpc17xx_uart.c **** 	uint32_t tmp;
 189:Libraries/uC-CSP/LPC17xx/lpc17xx_uart.c **** 
 190:Libraries/uC-CSP/LPC17xx/lpc17xx_uart.c **** 	// For debug mode
 191:Libraries/uC-CSP/LPC17xx/lpc17xx_uart.c **** 	/*CHECK_PARAM(PARAM_UARTx(UARTx));
 192:Libraries/uC-CSP/LPC17xx/lpc17xx_uart.c **** 	CHECK_PARAM(PARAM_UART_DATABIT(UART_ConfigStruct->Databits));
 193:Libraries/uC-CSP/LPC17xx/lpc17xx_uart.c **** 	CHECK_PARAM(PARAM_UART_STOPBIT(UART_ConfigStruct->Stopbits));
 194:Libraries/uC-CSP/LPC17xx/lpc17xx_uart.c **** 	CHECK_PARAM(PARAM_UART_PARITY(UART_ConfigStruct->Parity));
 195:Libraries/uC-CSP/LPC17xx/lpc17xx_uart.c **** */
 196:Libraries/uC-CSP/LPC17xx/lpc17xx_uart.c **** #ifdef _UART0
 197:Libraries/uC-CSP/LPC17xx/lpc17xx_uart.c **** 	if(UARTx == LPC_UART0)
 452              		.loc 1 197 0
 453 030e 7A68     		ldr	r2, [r7, #4]
 454 0310 4FF44043 		mov	r3, #49152
 455 0314 C4F20003 		movt	r3, 16384
 456 0318 9A42     		cmp	r2, r3
 457 031a 05D1     		bne	.L28
 198:Libraries/uC-CSP/LPC17xx/lpc17xx_uart.c **** 	{
 199:Libraries/uC-CSP/LPC17xx/lpc17xx_uart.c **** 		/* Set up clock and power for UART module */
 200:Libraries/uC-CSP/LPC17xx/lpc17xx_uart.c **** 		CLKPWR_ConfigPPWR (CLKPWR_PCONP_PCUART0, ENABLE);
 458              		.loc 1 200 0
 459 031c 4FF00800 		mov	r0, #8
 460 0320 4FF00101 		mov	r1, #1
 461 0324 FFF7FEFF 		bl	CLKPWR_ConfigPPWR
 462              	.L28:
 201:Libraries/uC-CSP/LPC17xx/lpc17xx_uart.c **** 	}
 202:Libraries/uC-CSP/LPC17xx/lpc17xx_uart.c **** #endif
 203:Libraries/uC-CSP/LPC17xx/lpc17xx_uart.c **** 
 204:Libraries/uC-CSP/LPC17xx/lpc17xx_uart.c **** #ifdef _UART1
 205:Libraries/uC-CSP/LPC17xx/lpc17xx_uart.c **** 	if(((LPC_UART1_TypeDef *)UARTx) == LPC_UART1)
 463              		.loc 1 205 0
 464 0328 7A68     		ldr	r2, [r7, #4]
 465 032a 4FF00003 		mov	r3, #0
 466 032e C4F20103 		movt	r3, 16385
 467 0332 9A42     		cmp	r2, r3
 468 0334 05D1     		bne	.L29
 206:Libraries/uC-CSP/LPC17xx/lpc17xx_uart.c **** 	{
 207:Libraries/uC-CSP/LPC17xx/lpc17xx_uart.c **** 		/* Set up clock and power for UART module */
 208:Libraries/uC-CSP/LPC17xx/lpc17xx_uart.c **** 		CLKPWR_ConfigPPWR (CLKPWR_PCONP_PCUART1, ENABLE);
 469              		.loc 1 208 0
 470 0336 4FF01000 		mov	r0, #16
 471 033a 4FF00101 		mov	r1, #1
 472 033e FFF7FEFF 		bl	CLKPWR_ConfigPPWR
 473              	.L29:
 209:Libraries/uC-CSP/LPC17xx/lpc17xx_uart.c **** 	}
 210:Libraries/uC-CSP/LPC17xx/lpc17xx_uart.c **** #endif
 211:Libraries/uC-CSP/LPC17xx/lpc17xx_uart.c **** 
 212:Libraries/uC-CSP/LPC17xx/lpc17xx_uart.c **** #ifdef _UART2
 213:Libraries/uC-CSP/LPC17xx/lpc17xx_uart.c **** 	if(UARTx == LPC_UART2)
 214:Libraries/uC-CSP/LPC17xx/lpc17xx_uart.c **** 	{
 215:Libraries/uC-CSP/LPC17xx/lpc17xx_uart.c **** 		/* Set up clock and power for UART module */
 216:Libraries/uC-CSP/LPC17xx/lpc17xx_uart.c **** 		CLKPWR_ConfigPPWR (CLKPWR_PCONP_PCUART2, ENABLE);
 217:Libraries/uC-CSP/LPC17xx/lpc17xx_uart.c **** 	}
 218:Libraries/uC-CSP/LPC17xx/lpc17xx_uart.c **** #endif
 219:Libraries/uC-CSP/LPC17xx/lpc17xx_uart.c **** 
 220:Libraries/uC-CSP/LPC17xx/lpc17xx_uart.c **** #ifdef _UART3
 221:Libraries/uC-CSP/LPC17xx/lpc17xx_uart.c **** 	if(UARTx == LPC_UART3)
 222:Libraries/uC-CSP/LPC17xx/lpc17xx_uart.c **** 	{
 223:Libraries/uC-CSP/LPC17xx/lpc17xx_uart.c **** 		/* Set up clock and power for UART module */
 224:Libraries/uC-CSP/LPC17xx/lpc17xx_uart.c **** 		CLKPWR_ConfigPPWR (CLKPWR_PCONP_PCUART3, ENABLE);
 225:Libraries/uC-CSP/LPC17xx/lpc17xx_uart.c **** 	}
 226:Libraries/uC-CSP/LPC17xx/lpc17xx_uart.c **** #endif
 227:Libraries/uC-CSP/LPC17xx/lpc17xx_uart.c **** 
 228:Libraries/uC-CSP/LPC17xx/lpc17xx_uart.c **** 	if (((LPC_UART1_TypeDef *)UARTx) == LPC_UART1)
 474              		.loc 1 228 0
 475 0342 7A68     		ldr	r2, [r7, #4]
 476 0344 4FF00003 		mov	r3, #0
 477 0348 C4F20103 		movt	r3, 16385
 478 034c 9A42     		cmp	r2, r3
 479 034e 4ED1     		bne	.L30
 229:Libraries/uC-CSP/LPC17xx/lpc17xx_uart.c **** 	{
 230:Libraries/uC-CSP/LPC17xx/lpc17xx_uart.c **** 		/* FIFOs are empty */
 231:Libraries/uC-CSP/LPC17xx/lpc17xx_uart.c **** 		((LPC_UART1_TypeDef *)UARTx)->/*IIFCR.*/FCR = ( UART_FCR_FIFO_EN \
 480              		.loc 1 231 0
 481 0350 7B68     		ldr	r3, [r7, #4]
 482 0352 4FF00702 		mov	r2, #7
 483 0356 1A72     		strb	r2, [r3, #8]
 232:Libraries/uC-CSP/LPC17xx/lpc17xx_uart.c **** 				| UART_FCR_RX_RS | UART_FCR_TX_RS);
 233:Libraries/uC-CSP/LPC17xx/lpc17xx_uart.c **** 		// Disable FIFO
 234:Libraries/uC-CSP/LPC17xx/lpc17xx_uart.c **** 		((LPC_UART1_TypeDef *)UARTx)->/*IIFCR.*/FCR = 0;
 484              		.loc 1 234 0
 485 0358 7B68     		ldr	r3, [r7, #4]
 486 035a 4FF00002 		mov	r2, #0
 487 035e 1A72     		strb	r2, [r3, #8]
 235:Libraries/uC-CSP/LPC17xx/lpc17xx_uart.c **** 
 236:Libraries/uC-CSP/LPC17xx/lpc17xx_uart.c **** 		// Dummy reading
 237:Libraries/uC-CSP/LPC17xx/lpc17xx_uart.c **** 		while (((LPC_UART1_TypeDef *)UARTx)->LSR & UART_LSR_RDR)
 488              		.loc 1 237 0
 489 0360 03E0     		b	.L31
 490              	.L32:
 238:Libraries/uC-CSP/LPC17xx/lpc17xx_uart.c **** 		{
 239:Libraries/uC-CSP/LPC17xx/lpc17xx_uart.c **** 			tmp = ((LPC_UART1_TypeDef *)UARTx)->/*RBTHDLR.*/RBR;
 491              		.loc 1 239 0
 492 0362 7B68     		ldr	r3, [r7, #4]
 493 0364 1B78     		ldrb	r3, [r3, #0]
 494 0366 DBB2     		uxtb	r3, r3
 495 0368 FB60     		str	r3, [r7, #12]
 496              	.L31:
 237:Libraries/uC-CSP/LPC17xx/lpc17xx_uart.c **** 		while (((LPC_UART1_TypeDef *)UARTx)->LSR & UART_LSR_RDR)
 497              		.loc 1 237 0 discriminator 1
 498 036a 7B68     		ldr	r3, [r7, #4]
 499 036c 1B7D     		ldrb	r3, [r3, #20]
 500 036e DBB2     		uxtb	r3, r3
 501 0370 03F00103 		and	r3, r3, #1
 502 0374 DBB2     		uxtb	r3, r3
 503 0376 002B     		cmp	r3, #0
 504 0378 F3D1     		bne	.L32
 240:Libraries/uC-CSP/LPC17xx/lpc17xx_uart.c **** 		}
 241:Libraries/uC-CSP/LPC17xx/lpc17xx_uart.c **** 
 242:Libraries/uC-CSP/LPC17xx/lpc17xx_uart.c **** 		((LPC_UART1_TypeDef *)UARTx)->TER = UART_TER_TXEN;
 505              		.loc 1 242 0
 506 037a 7B68     		ldr	r3, [r7, #4]
 507 037c 4FF08002 		mov	r2, #128
 508 0380 83F83020 		strb	r2, [r3, #48]
 243:Libraries/uC-CSP/LPC17xx/lpc17xx_uart.c **** 		// Wait for current transmit complete
 244:Libraries/uC-CSP/LPC17xx/lpc17xx_uart.c **** 		while (!(((LPC_UART1_TypeDef *)UARTx)->LSR & UART_LSR_THRE));
 509              		.loc 1 244 0
 510 0384 00BF     		nop
 511              	.L33:
 512              		.loc 1 244 0 is_stmt 0 discriminator 1
 513 0386 7B68     		ldr	r3, [r7, #4]
 514 0388 1B7D     		ldrb	r3, [r3, #20]
 515 038a DBB2     		uxtb	r3, r3
 516 038c 03F02003 		and	r3, r3, #32
 517 0390 002B     		cmp	r3, #0
 518 0392 F8D0     		beq	.L33
 245:Libraries/uC-CSP/LPC17xx/lpc17xx_uart.c **** 		// Disable Tx
 246:Libraries/uC-CSP/LPC17xx/lpc17xx_uart.c **** 		((LPC_UART1_TypeDef *)UARTx)->TER = 0;
 519              		.loc 1 246 0 is_stmt 1
 520 0394 7B68     		ldr	r3, [r7, #4]
 521 0396 4FF00002 		mov	r2, #0
 522 039a 83F83020 		strb	r2, [r3, #48]
 247:Libraries/uC-CSP/LPC17xx/lpc17xx_uart.c **** 
 248:Libraries/uC-CSP/LPC17xx/lpc17xx_uart.c **** 		// Disable interrupt
 249:Libraries/uC-CSP/LPC17xx/lpc17xx_uart.c **** 		((LPC_UART1_TypeDef *)UARTx)->/*DLIER.*/IER = 0;
 523              		.loc 1 249 0
 524 039e 7B68     		ldr	r3, [r7, #4]
 525 03a0 4FF00002 		mov	r2, #0
 526 03a4 5A60     		str	r2, [r3, #4]
 250:Libraries/uC-CSP/LPC17xx/lpc17xx_uart.c **** 		// Set LCR to default state
 251:Libraries/uC-CSP/LPC17xx/lpc17xx_uart.c **** 		((LPC_UART1_TypeDef *)UARTx)->LCR = 0;
 527              		.loc 1 251 0
 528 03a6 7B68     		ldr	r3, [r7, #4]
 529 03a8 4FF00002 		mov	r2, #0
 530 03ac 1A73     		strb	r2, [r3, #12]
 252:Libraries/uC-CSP/LPC17xx/lpc17xx_uart.c **** 		// Set ACR to default state
 253:Libraries/uC-CSP/LPC17xx/lpc17xx_uart.c **** 		((LPC_UART1_TypeDef *)UARTx)->ACR = 0;
 531              		.loc 1 253 0
 532 03ae 7B68     		ldr	r3, [r7, #4]
 533 03b0 4FF00002 		mov	r2, #0
 534 03b4 1A62     		str	r2, [r3, #32]
 254:Libraries/uC-CSP/LPC17xx/lpc17xx_uart.c **** 		// Set Modem Control to default state
 255:Libraries/uC-CSP/LPC17xx/lpc17xx_uart.c **** 		((LPC_UART1_TypeDef *)UARTx)->MCR = 0;
 535              		.loc 1 255 0
 536 03b6 7B68     		ldr	r3, [r7, #4]
 537 03b8 4FF00002 		mov	r2, #0
 538 03bc 1A74     		strb	r2, [r3, #16]
 256:Libraries/uC-CSP/LPC17xx/lpc17xx_uart.c **** 		// Set RS485 control to default state
 257:Libraries/uC-CSP/LPC17xx/lpc17xx_uart.c **** 		((LPC_UART1_TypeDef *)UARTx)->RS485CTRL = 0;
 539              		.loc 1 257 0
 540 03be 7B68     		ldr	r3, [r7, #4]
 541 03c0 4FF00002 		mov	r2, #0
 542 03c4 83F84C20 		strb	r2, [r3, #76]
 258:Libraries/uC-CSP/LPC17xx/lpc17xx_uart.c **** 		// Set RS485 delay timer to default state
 259:Libraries/uC-CSP/LPC17xx/lpc17xx_uart.c **** 		((LPC_UART1_TypeDef *)UARTx)->RS485DLY = 0;
 543              		.loc 1 259 0
 544 03c8 7B68     		ldr	r3, [r7, #4]
 545 03ca 4FF00002 		mov	r2, #0
 546 03ce 83F85420 		strb	r2, [r3, #84]
 260:Libraries/uC-CSP/LPC17xx/lpc17xx_uart.c **** 		// Set RS485 addr match to default state
 261:Libraries/uC-CSP/LPC17xx/lpc17xx_uart.c **** 		((LPC_UART1_TypeDef *)UARTx)->ADRMATCH = 0;
 547              		.loc 1 261 0
 548 03d2 7B68     		ldr	r3, [r7, #4]
 549 03d4 4FF00002 		mov	r2, #0
 550 03d8 83F85020 		strb	r2, [r3, #80]
 262:Libraries/uC-CSP/LPC17xx/lpc17xx_uart.c **** 		//Dummy Reading to Clear Status
 263:Libraries/uC-CSP/LPC17xx/lpc17xx_uart.c **** 		tmp = ((LPC_UART1_TypeDef *)UARTx)->MSR;
 551              		.loc 1 263 0
 552 03dc 7B68     		ldr	r3, [r7, #4]
 553 03de 1B7E     		ldrb	r3, [r3, #24]
 554 03e0 DBB2     		uxtb	r3, r3
 555 03e2 FB60     		str	r3, [r7, #12]
 264:Libraries/uC-CSP/LPC17xx/lpc17xx_uart.c **** 		tmp = ((LPC_UART1_TypeDef *)UARTx)->LSR;
 556              		.loc 1 264 0
 557 03e4 7B68     		ldr	r3, [r7, #4]
 558 03e6 1B7D     		ldrb	r3, [r3, #20]
 559 03e8 DBB2     		uxtb	r3, r3
 560 03ea FB60     		str	r3, [r7, #12]
 561 03ec 36E0     		b	.L34
 562              	.L30:
 265:Libraries/uC-CSP/LPC17xx/lpc17xx_uart.c **** 	}
 266:Libraries/uC-CSP/LPC17xx/lpc17xx_uart.c **** 	else
 267:Libraries/uC-CSP/LPC17xx/lpc17xx_uart.c **** 	{
 268:Libraries/uC-CSP/LPC17xx/lpc17xx_uart.c **** 		/* FIFOs are empty */
 269:Libraries/uC-CSP/LPC17xx/lpc17xx_uart.c **** 		UARTx->/*IIFCR.*/FCR = ( UART_FCR_FIFO_EN | UART_FCR_RX_RS | UART_FCR_TX_RS);
 563              		.loc 1 269 0
 564 03ee 7B68     		ldr	r3, [r7, #4]
 565 03f0 4FF00702 		mov	r2, #7
 566 03f4 1A72     		strb	r2, [r3, #8]
 270:Libraries/uC-CSP/LPC17xx/lpc17xx_uart.c **** 		// Disable FIFO
 271:Libraries/uC-CSP/LPC17xx/lpc17xx_uart.c **** 		UARTx->/*IIFCR.*/FCR = 0;
 567              		.loc 1 271 0
 568 03f6 7B68     		ldr	r3, [r7, #4]
 569 03f8 4FF00002 		mov	r2, #0
 570 03fc 1A72     		strb	r2, [r3, #8]
 272:Libraries/uC-CSP/LPC17xx/lpc17xx_uart.c **** 
 273:Libraries/uC-CSP/LPC17xx/lpc17xx_uart.c **** 		// Dummy reading
 274:Libraries/uC-CSP/LPC17xx/lpc17xx_uart.c **** 		while (UARTx->LSR & UART_LSR_RDR)
 571              		.loc 1 274 0
 572 03fe 03E0     		b	.L35
 573              	.L36:
 275:Libraries/uC-CSP/LPC17xx/lpc17xx_uart.c **** 		{
 276:Libraries/uC-CSP/LPC17xx/lpc17xx_uart.c **** 			tmp = UARTx->/*RBTHDLR.*/RBR;
 574              		.loc 1 276 0
 575 0400 7B68     		ldr	r3, [r7, #4]
 576 0402 1B78     		ldrb	r3, [r3, #0]
 577 0404 DBB2     		uxtb	r3, r3
 578 0406 FB60     		str	r3, [r7, #12]
 579              	.L35:
 274:Libraries/uC-CSP/LPC17xx/lpc17xx_uart.c **** 		while (UARTx->LSR & UART_LSR_RDR)
 580              		.loc 1 274 0 discriminator 1
 581 0408 7B68     		ldr	r3, [r7, #4]
 582 040a 1B7D     		ldrb	r3, [r3, #20]
 583 040c DBB2     		uxtb	r3, r3
 584 040e 03F00103 		and	r3, r3, #1
 585 0412 DBB2     		uxtb	r3, r3
 586 0414 002B     		cmp	r3, #0
 587 0416 F3D1     		bne	.L36
 277:Libraries/uC-CSP/LPC17xx/lpc17xx_uart.c **** 		}
 278:Libraries/uC-CSP/LPC17xx/lpc17xx_uart.c **** 
 279:Libraries/uC-CSP/LPC17xx/lpc17xx_uart.c **** 		UARTx->TER = UART_TER_TXEN;
 588              		.loc 1 279 0
 589 0418 7B68     		ldr	r3, [r7, #4]
 590 041a 4FF08002 		mov	r2, #128
 591 041e 83F83020 		strb	r2, [r3, #48]
 280:Libraries/uC-CSP/LPC17xx/lpc17xx_uart.c **** 		// Wait for current transmit complete
 281:Libraries/uC-CSP/LPC17xx/lpc17xx_uart.c **** 		while (!(UARTx->LSR & UART_LSR_THRE));
 592              		.loc 1 281 0
 593 0422 00BF     		nop
 594              	.L37:
 595              		.loc 1 281 0 is_stmt 0 discriminator 1
 596 0424 7B68     		ldr	r3, [r7, #4]
 597 0426 1B7D     		ldrb	r3, [r3, #20]
 598 0428 DBB2     		uxtb	r3, r3
 599 042a 03F02003 		and	r3, r3, #32
 600 042e 002B     		cmp	r3, #0
 601 0430 F8D0     		beq	.L37
 282:Libraries/uC-CSP/LPC17xx/lpc17xx_uart.c **** 		// Disable Tx
 283:Libraries/uC-CSP/LPC17xx/lpc17xx_uart.c **** 		UARTx->TER = 0;
 602              		.loc 1 283 0 is_stmt 1
 603 0432 7B68     		ldr	r3, [r7, #4]
 604 0434 4FF00002 		mov	r2, #0
 605 0438 83F83020 		strb	r2, [r3, #48]
 284:Libraries/uC-CSP/LPC17xx/lpc17xx_uart.c **** 
 285:Libraries/uC-CSP/LPC17xx/lpc17xx_uart.c **** 		// Disable interrupt
 286:Libraries/uC-CSP/LPC17xx/lpc17xx_uart.c **** 		UARTx->/*DLIER.*/IER = 0;
 606              		.loc 1 286 0
 607 043c 7B68     		ldr	r3, [r7, #4]
 608 043e 4FF00002 		mov	r2, #0
 609 0442 5A60     		str	r2, [r3, #4]
 287:Libraries/uC-CSP/LPC17xx/lpc17xx_uart.c **** 		// Set LCR to default state
 288:Libraries/uC-CSP/LPC17xx/lpc17xx_uart.c **** 		UARTx->LCR = 0;
 610              		.loc 1 288 0
 611 0444 7B68     		ldr	r3, [r7, #4]
 612 0446 4FF00002 		mov	r2, #0
 613 044a 1A73     		strb	r2, [r3, #12]
 289:Libraries/uC-CSP/LPC17xx/lpc17xx_uart.c **** 		// Set ACR to default state
 290:Libraries/uC-CSP/LPC17xx/lpc17xx_uart.c **** 		UARTx->ACR = 0;
 614              		.loc 1 290 0
 615 044c 7B68     		ldr	r3, [r7, #4]
 616 044e 4FF00002 		mov	r2, #0
 617 0452 1A62     		str	r2, [r3, #32]
 291:Libraries/uC-CSP/LPC17xx/lpc17xx_uart.c **** 		// Dummy reading
 292:Libraries/uC-CSP/LPC17xx/lpc17xx_uart.c **** 		tmp = UARTx->LSR;
 618              		.loc 1 292 0
 619 0454 7B68     		ldr	r3, [r7, #4]
 620 0456 1B7D     		ldrb	r3, [r3, #20]
 621 0458 DBB2     		uxtb	r3, r3
 622 045a FB60     		str	r3, [r7, #12]
 623              	.L34:
 293:Libraries/uC-CSP/LPC17xx/lpc17xx_uart.c **** 	}
 294:Libraries/uC-CSP/LPC17xx/lpc17xx_uart.c **** 
 295:Libraries/uC-CSP/LPC17xx/lpc17xx_uart.c **** 	if (UARTx == LPC_UART3)
 624              		.loc 1 295 0
 625 045c 7A68     		ldr	r2, [r7, #4]
 626 045e 4FF44043 		mov	r3, #49152
 627 0462 C4F20903 		movt	r3, 16393
 628 0466 9A42     		cmp	r2, r3
 629 0468 04D1     		bne	.L38
 296:Libraries/uC-CSP/LPC17xx/lpc17xx_uart.c **** 	{
 297:Libraries/uC-CSP/LPC17xx/lpc17xx_uart.c **** 		// Set IrDA to default state
 298:Libraries/uC-CSP/LPC17xx/lpc17xx_uart.c **** 		UARTx->ICR = 0;
 630              		.loc 1 298 0
 631 046a 7B68     		ldr	r3, [r7, #4]
 632 046c 4FF00002 		mov	r2, #0
 633 0470 83F82420 		strb	r2, [r3, #36]
 634              	.L38:
 299:Libraries/uC-CSP/LPC17xx/lpc17xx_uart.c **** 	}
 300:Libraries/uC-CSP/LPC17xx/lpc17xx_uart.c **** 
 301:Libraries/uC-CSP/LPC17xx/lpc17xx_uart.c **** 	// Set Line Control register ----------------------------
 302:Libraries/uC-CSP/LPC17xx/lpc17xx_uart.c **** 
 303:Libraries/uC-CSP/LPC17xx/lpc17xx_uart.c **** 	uart_set_divisors(UARTx, (UART_ConfigStruct->Baud_rate));
 635              		.loc 1 303 0
 636 0474 3B68     		ldr	r3, [r7, #0]
 637 0476 1B68     		ldr	r3, [r3, #0]
 638 0478 7868     		ldr	r0, [r7, #4]
 639 047a 1946     		mov	r1, r3
 640 047c FFF7C0FD 		bl	uart_set_divisors
 304:Libraries/uC-CSP/LPC17xx/lpc17xx_uart.c **** 
 305:Libraries/uC-CSP/LPC17xx/lpc17xx_uart.c **** 	if (((LPC_UART1_TypeDef *)UARTx) == LPC_UART1)
 641              		.loc 1 305 0
 642 0480 7A68     		ldr	r2, [r7, #4]
 643 0482 4FF00003 		mov	r3, #0
 644 0486 C4F20103 		movt	r3, 16385
 645 048a 9A42     		cmp	r2, r3
 646 048c 06D1     		bne	.L39
 306:Libraries/uC-CSP/LPC17xx/lpc17xx_uart.c **** 	{
 307:Libraries/uC-CSP/LPC17xx/lpc17xx_uart.c **** 		tmp = (((LPC_UART1_TypeDef *)UARTx)->LCR & (UART_LCR_DLAB_EN | UART_LCR_BREAK_EN)) \
 647              		.loc 1 307 0
 648 048e 7B68     		ldr	r3, [r7, #4]
 649 0490 1B7B     		ldrb	r3, [r3, #12]
 650 0492 DBB2     		uxtb	r3, r3
 651 0494 03F0C003 		and	r3, r3, #192
 652 0498 FB60     		str	r3, [r7, #12]
 653 049a 05E0     		b	.L40
 654              	.L39:
 308:Libraries/uC-CSP/LPC17xx/lpc17xx_uart.c **** 				& UART_LCR_BITMASK;
 309:Libraries/uC-CSP/LPC17xx/lpc17xx_uart.c **** 	}
 310:Libraries/uC-CSP/LPC17xx/lpc17xx_uart.c **** 	else
 311:Libraries/uC-CSP/LPC17xx/lpc17xx_uart.c **** 	{
 312:Libraries/uC-CSP/LPC17xx/lpc17xx_uart.c **** 		tmp = (UARTx->LCR & (UART_LCR_DLAB_EN | UART_LCR_BREAK_EN)) & UART_LCR_BITMASK;
 655              		.loc 1 312 0
 656 049c 7B68     		ldr	r3, [r7, #4]
 657 049e 1B7B     		ldrb	r3, [r3, #12]
 658 04a0 DBB2     		uxtb	r3, r3
 659 04a2 03F0C003 		and	r3, r3, #192
 660 04a6 FB60     		str	r3, [r7, #12]
 661              	.L40:
 313:Libraries/uC-CSP/LPC17xx/lpc17xx_uart.c **** 	}
 314:Libraries/uC-CSP/LPC17xx/lpc17xx_uart.c **** 
 315:Libraries/uC-CSP/LPC17xx/lpc17xx_uart.c **** 	switch (UART_ConfigStruct->Databits){
 662              		.loc 1 315 0
 663 04a8 3B68     		ldr	r3, [r7, #0]
 664 04aa 5B79     		ldrb	r3, [r3, #5]	@ zero_extendqisi2
 665 04ac 012B     		cmp	r3, #1
 666 04ae 04D0     		beq	.L43
 667 04b0 022B     		cmp	r3, #2
 668 04b2 07D0     		beq	.L44
 669 04b4 002B     		cmp	r3, #0
 670 04b6 0FD0     		beq	.L60
 671 04b8 09E0     		b	.L58
 672              	.L43:
 316:Libraries/uC-CSP/LPC17xx/lpc17xx_uart.c **** 	case UART_DATABIT_5:
 317:Libraries/uC-CSP/LPC17xx/lpc17xx_uart.c **** 		tmp |= UART_LCR_WLEN5;
 318:Libraries/uC-CSP/LPC17xx/lpc17xx_uart.c **** 		break;
 319:Libraries/uC-CSP/LPC17xx/lpc17xx_uart.c **** 	case UART_DATABIT_6:
 320:Libraries/uC-CSP/LPC17xx/lpc17xx_uart.c **** 		tmp |= UART_LCR_WLEN6;
 673              		.loc 1 320 0
 674 04ba FB68     		ldr	r3, [r7, #12]
 675 04bc 43F00103 		orr	r3, r3, #1
 676 04c0 FB60     		str	r3, [r7, #12]
 321:Libraries/uC-CSP/LPC17xx/lpc17xx_uart.c **** 		break;
 677              		.loc 1 321 0
 678 04c2 0AE0     		b	.L45
 679              	.L44:
 322:Libraries/uC-CSP/LPC17xx/lpc17xx_uart.c **** 	case UART_DATABIT_7:
 323:Libraries/uC-CSP/LPC17xx/lpc17xx_uart.c **** 		tmp |= UART_LCR_WLEN7;
 680              		.loc 1 323 0
 681 04c4 FB68     		ldr	r3, [r7, #12]
 682 04c6 43F00203 		orr	r3, r3, #2
 683 04ca FB60     		str	r3, [r7, #12]
 324:Libraries/uC-CSP/LPC17xx/lpc17xx_uart.c **** 		break;
 684              		.loc 1 324 0
 685 04cc 05E0     		b	.L45
 686              	.L58:
 325:Libraries/uC-CSP/LPC17xx/lpc17xx_uart.c **** 	case UART_DATABIT_8:
 326:Libraries/uC-CSP/LPC17xx/lpc17xx_uart.c **** 	default:
 327:Libraries/uC-CSP/LPC17xx/lpc17xx_uart.c **** 		tmp |= UART_LCR_WLEN8;
 687              		.loc 1 327 0
 688 04ce FB68     		ldr	r3, [r7, #12]
 689 04d0 43F00303 		orr	r3, r3, #3
 690 04d4 FB60     		str	r3, [r7, #12]
 328:Libraries/uC-CSP/LPC17xx/lpc17xx_uart.c **** 		break;
 691              		.loc 1 328 0
 692 04d6 00E0     		b	.L45
 693              	.L60:
 318:Libraries/uC-CSP/LPC17xx/lpc17xx_uart.c **** 		break;
 694              		.loc 1 318 0
 695 04d8 00BF     		nop
 696              	.L45:
 329:Libraries/uC-CSP/LPC17xx/lpc17xx_uart.c **** 	}
 330:Libraries/uC-CSP/LPC17xx/lpc17xx_uart.c **** 
 331:Libraries/uC-CSP/LPC17xx/lpc17xx_uart.c **** 	if (UART_ConfigStruct->Parity == UART_PARITY_NONE)
 697              		.loc 1 331 0
 698 04da 3B68     		ldr	r3, [r7, #0]
 699 04dc 1B79     		ldrb	r3, [r3, #4]	@ zero_extendqisi2
 700 04de 002B     		cmp	r3, #0
 701 04e0 24D0     		beq	.L46
 332:Libraries/uC-CSP/LPC17xx/lpc17xx_uart.c **** 	{
 333:Libraries/uC-CSP/LPC17xx/lpc17xx_uart.c **** 		// Do nothing...
 334:Libraries/uC-CSP/LPC17xx/lpc17xx_uart.c **** 	}
 335:Libraries/uC-CSP/LPC17xx/lpc17xx_uart.c **** 	else
 336:Libraries/uC-CSP/LPC17xx/lpc17xx_uart.c **** 	{
 337:Libraries/uC-CSP/LPC17xx/lpc17xx_uart.c **** 		tmp |= UART_LCR_PARITY_EN;
 702              		.loc 1 337 0
 703 04e2 FB68     		ldr	r3, [r7, #12]
 704 04e4 43F00803 		orr	r3, r3, #8
 705 04e8 FB60     		str	r3, [r7, #12]
 338:Libraries/uC-CSP/LPC17xx/lpc17xx_uart.c **** 		switch (UART_ConfigStruct->Parity)
 706              		.loc 1 338 0
 707 04ea 3B68     		ldr	r3, [r7, #0]
 708 04ec 1B79     		ldrb	r3, [r3, #4]	@ zero_extendqisi2
 709 04ee 03F1FF33 		add	r3, r3, #-1
 710 04f2 032B     		cmp	r3, #3
 711 04f4 19D8     		bhi	.L61
 712 04f6 01A2     		adr	r2, .L52
 713 04f8 52F823F0 		ldr	pc, [r2, r3, lsl #2]
 714              		.align	2
 715              	.L52:
 716 04fc 2B050000 		.word	.L61+1
 717 0500 0D050000 		.word	.L49+1
 718 0504 17050000 		.word	.L50+1
 719 0508 21050000 		.word	.L51+1
 720              	.L49:
 339:Libraries/uC-CSP/LPC17xx/lpc17xx_uart.c **** 		{
 340:Libraries/uC-CSP/LPC17xx/lpc17xx_uart.c **** 		case UART_PARITY_ODD:
 341:Libraries/uC-CSP/LPC17xx/lpc17xx_uart.c **** 			tmp |= UART_LCR_PARITY_ODD;
 342:Libraries/uC-CSP/LPC17xx/lpc17xx_uart.c **** 			break;
 343:Libraries/uC-CSP/LPC17xx/lpc17xx_uart.c **** 
 344:Libraries/uC-CSP/LPC17xx/lpc17xx_uart.c **** 		case UART_PARITY_EVEN:
 345:Libraries/uC-CSP/LPC17xx/lpc17xx_uart.c **** 			tmp |= UART_LCR_PARITY_EVEN;
 721              		.loc 1 345 0
 722 050c FB68     		ldr	r3, [r7, #12]
 723 050e 43F01003 		orr	r3, r3, #16
 724 0512 FB60     		str	r3, [r7, #12]
 346:Libraries/uC-CSP/LPC17xx/lpc17xx_uart.c **** 			break;
 725              		.loc 1 346 0
 726 0514 0AE0     		b	.L46
 727              	.L50:
 347:Libraries/uC-CSP/LPC17xx/lpc17xx_uart.c **** 
 348:Libraries/uC-CSP/LPC17xx/lpc17xx_uart.c **** 		case UART_PARITY_SP_1:
 349:Libraries/uC-CSP/LPC17xx/lpc17xx_uart.c **** 			tmp |= UART_LCR_PARITY_F_1;
 728              		.loc 1 349 0
 729 0516 FB68     		ldr	r3, [r7, #12]
 730 0518 43F02003 		orr	r3, r3, #32
 731 051c FB60     		str	r3, [r7, #12]
 350:Libraries/uC-CSP/LPC17xx/lpc17xx_uart.c **** 			break;
 732              		.loc 1 350 0
 733 051e 05E0     		b	.L46
 734              	.L51:
 351:Libraries/uC-CSP/LPC17xx/lpc17xx_uart.c **** 
 352:Libraries/uC-CSP/LPC17xx/lpc17xx_uart.c **** 		case UART_PARITY_SP_0:
 353:Libraries/uC-CSP/LPC17xx/lpc17xx_uart.c **** 			tmp |= UART_LCR_PARITY_F_0;
 735              		.loc 1 353 0
 736 0520 FB68     		ldr	r3, [r7, #12]
 737 0522 43F03003 		orr	r3, r3, #48
 738 0526 FB60     		str	r3, [r7, #12]
 354:Libraries/uC-CSP/LPC17xx/lpc17xx_uart.c **** 			break;
 739              		.loc 1 354 0
 740 0528 00E0     		b	.L46
 741              	.L61:
 355:Libraries/uC-CSP/LPC17xx/lpc17xx_uart.c **** 		default:
 356:Libraries/uC-CSP/LPC17xx/lpc17xx_uart.c **** 			break;
 742              		.loc 1 356 0
 743 052a 00BF     		nop
 744              	.L46:
 357:Libraries/uC-CSP/LPC17xx/lpc17xx_uart.c **** 		}
 358:Libraries/uC-CSP/LPC17xx/lpc17xx_uart.c **** 	}
 359:Libraries/uC-CSP/LPC17xx/lpc17xx_uart.c **** 
 360:Libraries/uC-CSP/LPC17xx/lpc17xx_uart.c **** 	switch (UART_ConfigStruct->Stopbits){
 745              		.loc 1 360 0
 746 052c 3B68     		ldr	r3, [r7, #0]
 747 052e 9B79     		ldrb	r3, [r3, #6]	@ zero_extendqisi2
 748 0530 012B     		cmp	r3, #1
 749 0532 04D1     		bne	.L59
 750              	.L54:
 361:Libraries/uC-CSP/LPC17xx/lpc17xx_uart.c **** 	case UART_STOPBIT_2:
 362:Libraries/uC-CSP/LPC17xx/lpc17xx_uart.c **** 		tmp |= UART_LCR_STOPBIT_SEL;
 751              		.loc 1 362 0
 752 0534 FB68     		ldr	r3, [r7, #12]
 753 0536 43F00403 		orr	r3, r3, #4
 754 053a FB60     		str	r3, [r7, #12]
 363:Libraries/uC-CSP/LPC17xx/lpc17xx_uart.c **** 		break;
 755              		.loc 1 363 0
 756 053c 00E0     		b	.L55
 757              	.L59:
 364:Libraries/uC-CSP/LPC17xx/lpc17xx_uart.c **** 	case UART_STOPBIT_1:
 365:Libraries/uC-CSP/LPC17xx/lpc17xx_uart.c **** 	default:
 366:Libraries/uC-CSP/LPC17xx/lpc17xx_uart.c **** 		// Do no thing
 367:Libraries/uC-CSP/LPC17xx/lpc17xx_uart.c **** 		break;
 758              		.loc 1 367 0
 759 053e 00BF     		nop
 760              	.L55:
 368:Libraries/uC-CSP/LPC17xx/lpc17xx_uart.c **** 	}
 369:Libraries/uC-CSP/LPC17xx/lpc17xx_uart.c **** 
 370:Libraries/uC-CSP/LPC17xx/lpc17xx_uart.c **** 
 371:Libraries/uC-CSP/LPC17xx/lpc17xx_uart.c **** 	// Write back to LCR, configure FIFO and Disable Tx
 372:Libraries/uC-CSP/LPC17xx/lpc17xx_uart.c **** 	if (((LPC_UART1_TypeDef *)UARTx) ==  LPC_UART1)
 761              		.loc 1 372 0
 762 0540 7A68     		ldr	r2, [r7, #4]
 763 0542 4FF00003 		mov	r3, #0
 764 0546 C4F20103 		movt	r3, 16385
 765 054a 9A42     		cmp	r2, r3
 766 054c 04D1     		bne	.L56
 373:Libraries/uC-CSP/LPC17xx/lpc17xx_uart.c **** 	{
 374:Libraries/uC-CSP/LPC17xx/lpc17xx_uart.c **** 		((LPC_UART1_TypeDef *)UARTx)->LCR = (uint8_t)(tmp & UART_LCR_BITMASK);
 767              		.loc 1 374 0
 768 054e FB68     		ldr	r3, [r7, #12]
 769 0550 DAB2     		uxtb	r2, r3
 770 0552 7B68     		ldr	r3, [r7, #4]
 771 0554 1A73     		strb	r2, [r3, #12]
 772 0556 03E0     		b	.L27
 773              	.L56:
 375:Libraries/uC-CSP/LPC17xx/lpc17xx_uart.c **** 	}
 376:Libraries/uC-CSP/LPC17xx/lpc17xx_uart.c **** 	else
 377:Libraries/uC-CSP/LPC17xx/lpc17xx_uart.c **** 	{
 378:Libraries/uC-CSP/LPC17xx/lpc17xx_uart.c **** 		UARTx->LCR = (uint8_t)(tmp & UART_LCR_BITMASK);
 774              		.loc 1 378 0
 775 0558 FB68     		ldr	r3, [r7, #12]
 776 055a DAB2     		uxtb	r2, r3
 777 055c 7B68     		ldr	r3, [r7, #4]
 778 055e 1A73     		strb	r2, [r3, #12]
 779              	.L27:
 379:Libraries/uC-CSP/LPC17xx/lpc17xx_uart.c **** 	}
 380:Libraries/uC-CSP/LPC17xx/lpc17xx_uart.c **** }
 780              		.loc 1 380 0
 781 0560 07F11007 		add	r7, r7, #16
 782 0564 BD46     		mov	sp, r7
 783 0566 80BD     		pop	{r7, pc}
 784              		.cfi_endproc
 785              	.LFE56:
 787              		.align	2
 788              		.global	UART_DeInit
 789              		.thumb
 790              		.thumb_func
 792              	UART_DeInit:
 793              	.LFB57:
 381:Libraries/uC-CSP/LPC17xx/lpc17xx_uart.c **** 
 382:Libraries/uC-CSP/LPC17xx/lpc17xx_uart.c **** /*********************************************************************//**
 383:Libraries/uC-CSP/LPC17xx/lpc17xx_uart.c ****  * @brief		De-initializes the UARTx peripheral registers to their
 384:Libraries/uC-CSP/LPC17xx/lpc17xx_uart.c ****  *                  default reset values.
 385:Libraries/uC-CSP/LPC17xx/lpc17xx_uart.c ****  * @param[in]	UARTx	UART peripheral selected, should be:
 386:Libraries/uC-CSP/LPC17xx/lpc17xx_uart.c ****  *   			- LPC_UART0: UART0 peripheral
 387:Libraries/uC-CSP/LPC17xx/lpc17xx_uart.c ****  * 				- LPC_UART1: UART1 peripheral
 388:Libraries/uC-CSP/LPC17xx/lpc17xx_uart.c ****  * 				- LPC_UART2: UART2 peripheral
 389:Libraries/uC-CSP/LPC17xx/lpc17xx_uart.c ****  * 				- LPC_UART3: UART3 peripheral
 390:Libraries/uC-CSP/LPC17xx/lpc17xx_uart.c ****  * @return 		None
 391:Libraries/uC-CSP/LPC17xx/lpc17xx_uart.c ****  **********************************************************************/
 392:Libraries/uC-CSP/LPC17xx/lpc17xx_uart.c **** void UART_DeInit(LPC_UART_TypeDef* UARTx)
 393:Libraries/uC-CSP/LPC17xx/lpc17xx_uart.c **** {
 794              		.loc 1 393 0
 795              		.cfi_startproc
 796              		@ args = 0, pretend = 0, frame = 8
 797              		@ frame_needed = 1, uses_anonymous_args = 0
 798 0568 80B5     		push	{r7, lr}
 799              	.LCFI6:
 800              		.cfi_def_cfa_offset 8
 801              		.cfi_offset 14, -4
 802              		.cfi_offset 7, -8
 803 056a 82B0     		sub	sp, sp, #8
 804              	.LCFI7:
 805              		.cfi_def_cfa_offset 16
 806 056c 00AF     		add	r7, sp, #0
 807              	.LCFI8:
 808              		.cfi_def_cfa_register 7
 809 056e 7860     		str	r0, [r7, #4]
 394:Libraries/uC-CSP/LPC17xx/lpc17xx_uart.c **** 	// For debug mode
 395:Libraries/uC-CSP/LPC17xx/lpc17xx_uart.c **** 	//CHECK_PARAM(PARAM_UARTx(UARTx));
 396:Libraries/uC-CSP/LPC17xx/lpc17xx_uart.c **** 
 397:Libraries/uC-CSP/LPC17xx/lpc17xx_uart.c **** 	UART_TxCmd(UARTx, DISABLE);
 810              		.loc 1 397 0
 811 0570 7868     		ldr	r0, [r7, #4]
 812 0572 4FF00001 		mov	r1, #0
 813 0576 FFF7FEFF 		bl	UART_TxCmd
 398:Libraries/uC-CSP/LPC17xx/lpc17xx_uart.c **** 
 399:Libraries/uC-CSP/LPC17xx/lpc17xx_uart.c **** #ifdef _UART0
 400:Libraries/uC-CSP/LPC17xx/lpc17xx_uart.c **** 	if (UARTx == LPC_UART0)
 814              		.loc 1 400 0
 815 057a 7A68     		ldr	r2, [r7, #4]
 816 057c 4FF44043 		mov	r3, #49152
 817 0580 C4F20003 		movt	r3, 16384
 818 0584 9A42     		cmp	r2, r3
 819 0586 05D1     		bne	.L63
 401:Libraries/uC-CSP/LPC17xx/lpc17xx_uart.c **** 	{
 402:Libraries/uC-CSP/LPC17xx/lpc17xx_uart.c **** 		/* Set up clock and power for UART module */
 403:Libraries/uC-CSP/LPC17xx/lpc17xx_uart.c **** 		CLKPWR_ConfigPPWR (CLKPWR_PCONP_PCUART0, DISABLE);
 820              		.loc 1 403 0
 821 0588 4FF00800 		mov	r0, #8
 822 058c 4FF00001 		mov	r1, #0
 823 0590 FFF7FEFF 		bl	CLKPWR_ConfigPPWR
 824              	.L63:
 404:Libraries/uC-CSP/LPC17xx/lpc17xx_uart.c **** 	}
 405:Libraries/uC-CSP/LPC17xx/lpc17xx_uart.c **** #endif
 406:Libraries/uC-CSP/LPC17xx/lpc17xx_uart.c **** 
 407:Libraries/uC-CSP/LPC17xx/lpc17xx_uart.c **** #ifdef _UART1
 408:Libraries/uC-CSP/LPC17xx/lpc17xx_uart.c **** 	if (((LPC_UART1_TypeDef *)UARTx) == LPC_UART1)
 825              		.loc 1 408 0
 826 0594 7A68     		ldr	r2, [r7, #4]
 827 0596 4FF00003 		mov	r3, #0
 828 059a C4F20103 		movt	r3, 16385
 829 059e 9A42     		cmp	r2, r3
 830 05a0 05D1     		bne	.L62
 409:Libraries/uC-CSP/LPC17xx/lpc17xx_uart.c **** 	{
 410:Libraries/uC-CSP/LPC17xx/lpc17xx_uart.c **** 		/* Set up clock and power for UART module */
 411:Libraries/uC-CSP/LPC17xx/lpc17xx_uart.c **** 		CLKPWR_ConfigPPWR (CLKPWR_PCONP_PCUART1, DISABLE);
 831              		.loc 1 411 0
 832 05a2 4FF01000 		mov	r0, #16
 833 05a6 4FF00001 		mov	r1, #0
 834 05aa FFF7FEFF 		bl	CLKPWR_ConfigPPWR
 835              	.L62:
 412:Libraries/uC-CSP/LPC17xx/lpc17xx_uart.c **** 	}
 413:Libraries/uC-CSP/LPC17xx/lpc17xx_uart.c **** #endif
 414:Libraries/uC-CSP/LPC17xx/lpc17xx_uart.c **** 
 415:Libraries/uC-CSP/LPC17xx/lpc17xx_uart.c **** #ifdef _UART2
 416:Libraries/uC-CSP/LPC17xx/lpc17xx_uart.c **** 	if (UARTx == LPC_UART2)
 417:Libraries/uC-CSP/LPC17xx/lpc17xx_uart.c **** 	{
 418:Libraries/uC-CSP/LPC17xx/lpc17xx_uart.c **** 		/* Set up clock and power for UART module */
 419:Libraries/uC-CSP/LPC17xx/lpc17xx_uart.c **** 		CLKPWR_ConfigPPWR (CLKPWR_PCONP_PCUART2, DISABLE);
 420:Libraries/uC-CSP/LPC17xx/lpc17xx_uart.c **** 	}
 421:Libraries/uC-CSP/LPC17xx/lpc17xx_uart.c **** #endif
 422:Libraries/uC-CSP/LPC17xx/lpc17xx_uart.c **** 
 423:Libraries/uC-CSP/LPC17xx/lpc17xx_uart.c **** #ifdef _UART3
 424:Libraries/uC-CSP/LPC17xx/lpc17xx_uart.c **** 	if (UARTx == LPC_UART3)
 425:Libraries/uC-CSP/LPC17xx/lpc17xx_uart.c **** 	{
 426:Libraries/uC-CSP/LPC17xx/lpc17xx_uart.c **** 		/* Set up clock and power for UART module */
 427:Libraries/uC-CSP/LPC17xx/lpc17xx_uart.c **** 		CLKPWR_ConfigPPWR (CLKPWR_PCONP_PCUART3, DISABLE);
 428:Libraries/uC-CSP/LPC17xx/lpc17xx_uart.c **** 	}
 429:Libraries/uC-CSP/LPC17xx/lpc17xx_uart.c **** #endif
 430:Libraries/uC-CSP/LPC17xx/lpc17xx_uart.c **** }
 836              		.loc 1 430 0
 837 05ae 07F10807 		add	r7, r7, #8
 838 05b2 BD46     		mov	sp, r7
 839 05b4 80BD     		pop	{r7, pc}
 840              		.cfi_endproc
 841              	.LFE57:
 843 05b6 00BF     		.align	2
 844              		.global	UART_ConfigStructInit
 845              		.thumb
 846              		.thumb_func
 848              	UART_ConfigStructInit:
 849              	.LFB58:
 431:Libraries/uC-CSP/LPC17xx/lpc17xx_uart.c **** 
 432:Libraries/uC-CSP/LPC17xx/lpc17xx_uart.c **** /*****************************************************************************//**
 433:Libraries/uC-CSP/LPC17xx/lpc17xx_uart.c **** * @brief		Fills each UART_InitStruct member with its default value:
 434:Libraries/uC-CSP/LPC17xx/lpc17xx_uart.c **** * 				- 9600 bps
 435:Libraries/uC-CSP/LPC17xx/lpc17xx_uart.c **** * 				- 8-bit data
 436:Libraries/uC-CSP/LPC17xx/lpc17xx_uart.c **** * 				- 1 Stopbit
 437:Libraries/uC-CSP/LPC17xx/lpc17xx_uart.c **** * 				- None Parity
 438:Libraries/uC-CSP/LPC17xx/lpc17xx_uart.c **** * @param[in]	UART_InitStruct Pointer to a UART_CFG_Type structure
 439:Libraries/uC-CSP/LPC17xx/lpc17xx_uart.c **** *                    which will be initialized.
 440:Libraries/uC-CSP/LPC17xx/lpc17xx_uart.c **** * @return		None
 441:Libraries/uC-CSP/LPC17xx/lpc17xx_uart.c **** *******************************************************************************/
 442:Libraries/uC-CSP/LPC17xx/lpc17xx_uart.c **** void UART_ConfigStructInit(UART_CFG_Type *UART_InitStruct)
 443:Libraries/uC-CSP/LPC17xx/lpc17xx_uart.c **** {
 850              		.loc 1 443 0
 851              		.cfi_startproc
 852              		@ args = 0, pretend = 0, frame = 8
 853              		@ frame_needed = 1, uses_anonymous_args = 0
 854              		@ link register save eliminated.
 855 05b8 80B4     		push	{r7}
 856              	.LCFI9:
 857              		.cfi_def_cfa_offset 4
 858              		.cfi_offset 7, -4
 859 05ba 83B0     		sub	sp, sp, #12
 860              	.LCFI10:
 861              		.cfi_def_cfa_offset 16
 862 05bc 00AF     		add	r7, sp, #0
 863              	.LCFI11:
 864              		.cfi_def_cfa_register 7
 865 05be 7860     		str	r0, [r7, #4]
 444:Libraries/uC-CSP/LPC17xx/lpc17xx_uart.c **** 	/* UART_InitStruct->Baud_rate = 9600; */
 445:Libraries/uC-CSP/LPC17xx/lpc17xx_uart.c **** 	UART_InitStruct->Baud_rate = 115200;
 866              		.loc 1 445 0
 867 05c0 7B68     		ldr	r3, [r7, #4]
 868 05c2 4FF4E132 		mov	r2, #115200
 869 05c6 1A60     		str	r2, [r3, #0]
 446:Libraries/uC-CSP/LPC17xx/lpc17xx_uart.c **** 	UART_InitStruct->Databits = UART_DATABIT_8;
 870              		.loc 1 446 0
 871 05c8 7B68     		ldr	r3, [r7, #4]
 872 05ca 4FF00302 		mov	r2, #3
 873 05ce 5A71     		strb	r2, [r3, #5]
 447:Libraries/uC-CSP/LPC17xx/lpc17xx_uart.c **** 	UART_InitStruct->Parity = UART_PARITY_NONE;
 874              		.loc 1 447 0
 875 05d0 7B68     		ldr	r3, [r7, #4]
 876 05d2 4FF00002 		mov	r2, #0
 877 05d6 1A71     		strb	r2, [r3, #4]
 448:Libraries/uC-CSP/LPC17xx/lpc17xx_uart.c **** 	UART_InitStruct->Stopbits = UART_STOPBIT_1;
 878              		.loc 1 448 0
 879 05d8 7B68     		ldr	r3, [r7, #4]
 880 05da 4FF00002 		mov	r2, #0
 881 05de 9A71     		strb	r2, [r3, #6]
 449:Libraries/uC-CSP/LPC17xx/lpc17xx_uart.c **** }
 882              		.loc 1 449 0
 883 05e0 07F10C07 		add	r7, r7, #12
 884 05e4 BD46     		mov	sp, r7
 885 05e6 80BC     		pop	{r7}
 886 05e8 7047     		bx	lr
 887              		.cfi_endproc
 888              	.LFE58:
 890 05ea 00BF     		.align	2
 891              		.global	UART_SendByte
 892              		.thumb
 893              		.thumb_func
 895              	UART_SendByte:
 896              	.LFB59:
 450:Libraries/uC-CSP/LPC17xx/lpc17xx_uart.c **** 
 451:Libraries/uC-CSP/LPC17xx/lpc17xx_uart.c **** /* UART Send/Recieve functions -------------------------------------------------*/
 452:Libraries/uC-CSP/LPC17xx/lpc17xx_uart.c **** /*********************************************************************//**
 453:Libraries/uC-CSP/LPC17xx/lpc17xx_uart.c ****  * @brief		Transmit a single data through UART peripheral
 454:Libraries/uC-CSP/LPC17xx/lpc17xx_uart.c ****  * @param[in]	UARTx	UART peripheral selected, should be:
 455:Libraries/uC-CSP/LPC17xx/lpc17xx_uart.c ****  *   			- LPC_UART0: UART0 peripheral
 456:Libraries/uC-CSP/LPC17xx/lpc17xx_uart.c ****  * 				- LPC_UART1: UART1 peripheral
 457:Libraries/uC-CSP/LPC17xx/lpc17xx_uart.c ****  * 				- LPC_UART2: UART2 peripheral
 458:Libraries/uC-CSP/LPC17xx/lpc17xx_uart.c ****  * 				- LPC_UART3: UART3 peripheral
 459:Libraries/uC-CSP/LPC17xx/lpc17xx_uart.c ****  * @param[in]	Data	Data to transmit (must be 8-bit long)
 460:Libraries/uC-CSP/LPC17xx/lpc17xx_uart.c ****  * @return 		None
 461:Libraries/uC-CSP/LPC17xx/lpc17xx_uart.c ****  **********************************************************************/
 462:Libraries/uC-CSP/LPC17xx/lpc17xx_uart.c **** void UART_SendByte(LPC_UART_TypeDef* UARTx, uint8_t Data)
 463:Libraries/uC-CSP/LPC17xx/lpc17xx_uart.c **** {
 897              		.loc 1 463 0
 898              		.cfi_startproc
 899              		@ args = 0, pretend = 0, frame = 8
 900              		@ frame_needed = 1, uses_anonymous_args = 0
 901              		@ link register save eliminated.
 902 05ec 80B4     		push	{r7}
 903              	.LCFI12:
 904              		.cfi_def_cfa_offset 4
 905              		.cfi_offset 7, -4
 906 05ee 83B0     		sub	sp, sp, #12
 907              	.LCFI13:
 908              		.cfi_def_cfa_offset 16
 909 05f0 00AF     		add	r7, sp, #0
 910              	.LCFI14:
 911              		.cfi_def_cfa_register 7
 912 05f2 7860     		str	r0, [r7, #4]
 913 05f4 0B46     		mov	r3, r1
 914 05f6 FB70     		strb	r3, [r7, #3]
 464:Libraries/uC-CSP/LPC17xx/lpc17xx_uart.c **** 	/*
 465:Libraries/uC-CSP/LPC17xx/lpc17xx_uart.c **** 	CHECK_PARAM(PARAM_UARTx(UARTx));
 466:Libraries/uC-CSP/LPC17xx/lpc17xx_uart.c **** 	 */
 467:Libraries/uC-CSP/LPC17xx/lpc17xx_uart.c **** 
 468:Libraries/uC-CSP/LPC17xx/lpc17xx_uart.c **** 	if (((LPC_UART1_TypeDef *)UARTx) == LPC_UART1)
 915              		.loc 1 468 0
 916 05f8 7A68     		ldr	r2, [r7, #4]
 917 05fa 4FF00003 		mov	r3, #0
 918 05fe C4F20103 		movt	r3, 16385
 919 0602 9A42     		cmp	r2, r3
 920 0604 03D1     		bne	.L67
 469:Libraries/uC-CSP/LPC17xx/lpc17xx_uart.c **** 	{
 470:Libraries/uC-CSP/LPC17xx/lpc17xx_uart.c **** 		((LPC_UART1_TypeDef *)UARTx)->/*RBTHDLR.*/THR = Data & UART_THR_MASKBIT;
 921              		.loc 1 470 0
 922 0606 7B68     		ldr	r3, [r7, #4]
 923 0608 FA78     		ldrb	r2, [r7, #3]
 924 060a 1A70     		strb	r2, [r3, #0]
 925 060c 02E0     		b	.L66
 926              	.L67:
 471:Libraries/uC-CSP/LPC17xx/lpc17xx_uart.c **** 	}
 472:Libraries/uC-CSP/LPC17xx/lpc17xx_uart.c **** 	else
 473:Libraries/uC-CSP/LPC17xx/lpc17xx_uart.c **** 	{
 474:Libraries/uC-CSP/LPC17xx/lpc17xx_uart.c **** 		UARTx->/*RBTHDLR.*/THR = Data & UART_THR_MASKBIT;
 927              		.loc 1 474 0
 928 060e 7B68     		ldr	r3, [r7, #4]
 929 0610 FA78     		ldrb	r2, [r7, #3]
 930 0612 1A70     		strb	r2, [r3, #0]
 931              	.L66:
 475:Libraries/uC-CSP/LPC17xx/lpc17xx_uart.c **** 	}
 476:Libraries/uC-CSP/LPC17xx/lpc17xx_uart.c **** 
 477:Libraries/uC-CSP/LPC17xx/lpc17xx_uart.c **** }
 932              		.loc 1 477 0
 933 0614 07F10C07 		add	r7, r7, #12
 934 0618 BD46     		mov	sp, r7
 935 061a 80BC     		pop	{r7}
 936 061c 7047     		bx	lr
 937              		.cfi_endproc
 938              	.LFE59:
 940 061e 00BF     		.align	2
 941              		.global	UART_ReceiveByte
 942              		.thumb
 943              		.thumb_func
 945              	UART_ReceiveByte:
 946              	.LFB60:
 478:Libraries/uC-CSP/LPC17xx/lpc17xx_uart.c **** 
 479:Libraries/uC-CSP/LPC17xx/lpc17xx_uart.c **** 
 480:Libraries/uC-CSP/LPC17xx/lpc17xx_uart.c **** /*********************************************************************//**
 481:Libraries/uC-CSP/LPC17xx/lpc17xx_uart.c ****  * @brief		Receive a single data from UART peripheral
 482:Libraries/uC-CSP/LPC17xx/lpc17xx_uart.c ****  * @param[in]	UARTx	UART peripheral selected, should be:
 483:Libraries/uC-CSP/LPC17xx/lpc17xx_uart.c ****  *  			- LPC_UART0: UART0 peripheral
 484:Libraries/uC-CSP/LPC17xx/lpc17xx_uart.c ****  * 				- LPC_UART1: UART1 peripheral
 485:Libraries/uC-CSP/LPC17xx/lpc17xx_uart.c ****  * 				- LPC_UART2: UART2 peripheral
 486:Libraries/uC-CSP/LPC17xx/lpc17xx_uart.c ****  * 				- LPC_UART3: UART3 peripheral
 487:Libraries/uC-CSP/LPC17xx/lpc17xx_uart.c ****  * @return 		Data received
 488:Libraries/uC-CSP/LPC17xx/lpc17xx_uart.c ****  **********************************************************************/
 489:Libraries/uC-CSP/LPC17xx/lpc17xx_uart.c **** uint8_t UART_ReceiveByte(LPC_UART_TypeDef* UARTx)
 490:Libraries/uC-CSP/LPC17xx/lpc17xx_uart.c **** {
 947              		.loc 1 490 0
 948              		.cfi_startproc
 949              		@ args = 0, pretend = 0, frame = 8
 950              		@ frame_needed = 1, uses_anonymous_args = 0
 951              		@ link register save eliminated.
 952 0620 80B4     		push	{r7}
 953              	.LCFI15:
 954              		.cfi_def_cfa_offset 4
 955              		.cfi_offset 7, -4
 956 0622 83B0     		sub	sp, sp, #12
 957              	.LCFI16:
 958              		.cfi_def_cfa_offset 16
 959 0624 00AF     		add	r7, sp, #0
 960              	.LCFI17:
 961              		.cfi_def_cfa_register 7
 962 0626 7860     		str	r0, [r7, #4]
 491:Libraries/uC-CSP/LPC17xx/lpc17xx_uart.c **** 	//CHECK_PARAM(PARAM_UARTx(UARTx));
 492:Libraries/uC-CSP/LPC17xx/lpc17xx_uart.c **** 
 493:Libraries/uC-CSP/LPC17xx/lpc17xx_uart.c **** 	if (((LPC_UART1_TypeDef *)UARTx) == LPC_UART1)
 963              		.loc 1 493 0
 964 0628 7A68     		ldr	r2, [r7, #4]
 965 062a 4FF00003 		mov	r3, #0
 966 062e C4F20103 		movt	r3, 16385
 967 0632 9A42     		cmp	r2, r3
 968 0634 03D1     		bne	.L70
 494:Libraries/uC-CSP/LPC17xx/lpc17xx_uart.c **** 	{
 495:Libraries/uC-CSP/LPC17xx/lpc17xx_uart.c **** 		return (((LPC_UART1_TypeDef *)UARTx)->/*RBTHDLR.*/RBR & UART_RBR_MASKBIT);
 969              		.loc 1 495 0
 970 0636 7B68     		ldr	r3, [r7, #4]
 971 0638 1B78     		ldrb	r3, [r3, #0]
 972 063a DBB2     		uxtb	r3, r3
 973 063c 02E0     		b	.L71
 974              	.L70:
 496:Libraries/uC-CSP/LPC17xx/lpc17xx_uart.c **** 	}
 497:Libraries/uC-CSP/LPC17xx/lpc17xx_uart.c **** 	else
 498:Libraries/uC-CSP/LPC17xx/lpc17xx_uart.c **** 	{
 499:Libraries/uC-CSP/LPC17xx/lpc17xx_uart.c **** 		return (UARTx->/*RBTHDLR.*/RBR & UART_RBR_MASKBIT);
 975              		.loc 1 499 0
 976 063e 7B68     		ldr	r3, [r7, #4]
 977 0640 1B78     		ldrb	r3, [r3, #0]
 978 0642 DBB2     		uxtb	r3, r3
 979              	.L71:
 500:Libraries/uC-CSP/LPC17xx/lpc17xx_uart.c **** 	}
 501:Libraries/uC-CSP/LPC17xx/lpc17xx_uart.c **** }
 980              		.loc 1 501 0
 981 0644 1846     		mov	r0, r3
 982 0646 07F10C07 		add	r7, r7, #12
 983 064a BD46     		mov	sp, r7
 984 064c 80BC     		pop	{r7}
 985 064e 7047     		bx	lr
 986              		.cfi_endproc
 987              	.LFE60:
 989              		.align	2
 990              		.global	UART_Send
 991              		.thumb
 992              		.thumb_func
 994              	UART_Send:
 995              	.LFB61:
 502:Libraries/uC-CSP/LPC17xx/lpc17xx_uart.c **** 
 503:Libraries/uC-CSP/LPC17xx/lpc17xx_uart.c **** /*********************************************************************//**
 504:Libraries/uC-CSP/LPC17xx/lpc17xx_uart.c ****  * @brief		Send a block of data via UART peripheral
 505:Libraries/uC-CSP/LPC17xx/lpc17xx_uart.c ****  * @param[in]	UARTx	Selected UART peripheral used to send data, should be:
 506:Libraries/uC-CSP/LPC17xx/lpc17xx_uart.c ****  *   			- LPC_UART0: UART0 peripheral
 507:Libraries/uC-CSP/LPC17xx/lpc17xx_uart.c ****  * 				- LPC_UART1: UART1 peripheral
 508:Libraries/uC-CSP/LPC17xx/lpc17xx_uart.c ****  * 				- LPC_UART2: UART2 peripheral
 509:Libraries/uC-CSP/LPC17xx/lpc17xx_uart.c ****  * 				- LPC_UART3: UART3 peripheral
 510:Libraries/uC-CSP/LPC17xx/lpc17xx_uart.c ****  * @param[in]	txbuf 	Pointer to Transmit buffer
 511:Libraries/uC-CSP/LPC17xx/lpc17xx_uart.c ****  * @param[in]	buflen 	Length of Transmit buffer
 512:Libraries/uC-CSP/LPC17xx/lpc17xx_uart.c ****  * @param[in] 	flag 	Flag used in  UART transfer, should be
 513:Libraries/uC-CSP/LPC17xx/lpc17xx_uart.c ****  * 						NONE_BLOCKING or BLOCKING
 514:Libraries/uC-CSP/LPC17xx/lpc17xx_uart.c ****  * @return 		Number of bytes sent.
 515:Libraries/uC-CSP/LPC17xx/lpc17xx_uart.c ****  *
 516:Libraries/uC-CSP/LPC17xx/lpc17xx_uart.c ****  * Note: when using UART in BLOCKING mode, a time-out condition is used
 517:Libraries/uC-CSP/LPC17xx/lpc17xx_uart.c ****  * via defined symbol UART_BLOCKING_TIMEOUT.
 518:Libraries/uC-CSP/LPC17xx/lpc17xx_uart.c ****  **********************************************************************/
 519:Libraries/uC-CSP/LPC17xx/lpc17xx_uart.c **** uint32_t UART_Send(LPC_UART_TypeDef *UARTx, uint8_t *txbuf,
 520:Libraries/uC-CSP/LPC17xx/lpc17xx_uart.c **** 		uint32_t buflen, TRANSFER_BLOCK_Type flag)
 521:Libraries/uC-CSP/LPC17xx/lpc17xx_uart.c **** {
 996              		.loc 1 521 0
 997              		.cfi_startproc
 998              		@ args = 0, pretend = 0, frame = 40
 999              		@ frame_needed = 1, uses_anonymous_args = 0
 1000 0650 80B5     		push	{r7, lr}
 1001              	.LCFI18:
 1002              		.cfi_def_cfa_offset 8
 1003              		.cfi_offset 14, -4
 1004              		.cfi_offset 7, -8
 1005 0652 8AB0     		sub	sp, sp, #40
 1006              	.LCFI19:
 1007              		.cfi_def_cfa_offset 48
 1008 0654 00AF     		add	r7, sp, #0
 1009              	.LCFI20:
 1010              		.cfi_def_cfa_register 7
 1011 0656 F860     		str	r0, [r7, #12]
 1012 0658 B960     		str	r1, [r7, #8]
 1013 065a 7A60     		str	r2, [r7, #4]
 1014 065c FB70     		strb	r3, [r7, #3]
 522:Libraries/uC-CSP/LPC17xx/lpc17xx_uart.c **** 	uint32_t bToSend, bSent, timeOut, fifo_cnt;
 523:Libraries/uC-CSP/LPC17xx/lpc17xx_uart.c **** 	uint8_t *pChar = txbuf;
 1015              		.loc 1 523 0
 1016 065e BB68     		ldr	r3, [r7, #8]
 1017 0660 7B61     		str	r3, [r7, #20]
 524:Libraries/uC-CSP/LPC17xx/lpc17xx_uart.c **** 
 525:Libraries/uC-CSP/LPC17xx/lpc17xx_uart.c **** 	bToSend = buflen;
 1018              		.loc 1 525 0
 1019 0662 7B68     		ldr	r3, [r7, #4]
 1020 0664 7B62     		str	r3, [r7, #36]
 526:Libraries/uC-CSP/LPC17xx/lpc17xx_uart.c **** 
 527:Libraries/uC-CSP/LPC17xx/lpc17xx_uart.c **** 	// blocking mode
 528:Libraries/uC-CSP/LPC17xx/lpc17xx_uart.c **** 	if (flag == BLOCKING) {
 1021              		.loc 1 528 0
 1022 0666 FB78     		ldrb	r3, [r7, #3]	@ zero_extendqisi2
 1023 0668 012B     		cmp	r3, #1
 1024 066a 3ED1     		bne	.L73
 529:Libraries/uC-CSP/LPC17xx/lpc17xx_uart.c **** 		bSent = 0;
 1025              		.loc 1 529 0
 1026 066c 4FF00003 		mov	r3, #0
 1027 0670 3B62     		str	r3, [r7, #32]
 530:Libraries/uC-CSP/LPC17xx/lpc17xx_uart.c **** 		while (bToSend){
 1028              		.loc 1 530 0
 1029 0672 36E0     		b	.L74
 1030              	.L83:
 531:Libraries/uC-CSP/LPC17xx/lpc17xx_uart.c **** 			timeOut = UART_BLOCKING_TIMEOUT;
 1031              		.loc 1 531 0
 1032 0674 4FF0FF33 		mov	r3, #-1
 1033 0678 FB61     		str	r3, [r7, #28]
 532:Libraries/uC-CSP/LPC17xx/lpc17xx_uart.c **** 			// Wait for THR empty with timeout
 533:Libraries/uC-CSP/LPC17xx/lpc17xx_uart.c **** 			while (!(UARTx->LSR & UART_LSR_THRE)) {
 1034              		.loc 1 533 0
 1035 067a 06E0     		b	.L75
 1036              	.L78:
 534:Libraries/uC-CSP/LPC17xx/lpc17xx_uart.c **** 				if (timeOut == 0) break;
 1037              		.loc 1 534 0
 1038 067c FB69     		ldr	r3, [r7, #28]
 1039 067e 002B     		cmp	r3, #0
 1040 0680 0BD0     		beq	.L90
 1041              	.L76:
 535:Libraries/uC-CSP/LPC17xx/lpc17xx_uart.c **** 				timeOut--;
 1042              		.loc 1 535 0
 1043 0682 FB69     		ldr	r3, [r7, #28]
 1044 0684 03F1FF33 		add	r3, r3, #-1
 1045 0688 FB61     		str	r3, [r7, #28]
 1046              	.L75:
 533:Libraries/uC-CSP/LPC17xx/lpc17xx_uart.c **** 			while (!(UARTx->LSR & UART_LSR_THRE)) {
 1047              		.loc 1 533 0 discriminator 1
 1048 068a FB68     		ldr	r3, [r7, #12]
 1049 068c 1B7D     		ldrb	r3, [r3, #20]
 1050 068e DBB2     		uxtb	r3, r3
 1051 0690 03F02003 		and	r3, r3, #32
 1052 0694 002B     		cmp	r3, #0
 1053 0696 F1D0     		beq	.L78
 1054 0698 00E0     		b	.L77
 1055              	.L90:
 534:Libraries/uC-CSP/LPC17xx/lpc17xx_uart.c **** 				if (timeOut == 0) break;
 1056              		.loc 1 534 0
 1057 069a 00BF     		nop
 1058              	.L77:
 536:Libraries/uC-CSP/LPC17xx/lpc17xx_uart.c **** 			}
 537:Libraries/uC-CSP/LPC17xx/lpc17xx_uart.c **** 			// Time out!
 538:Libraries/uC-CSP/LPC17xx/lpc17xx_uart.c **** 			if(timeOut == 0) break;
 1059              		.loc 1 538 0
 1060 069c FB69     		ldr	r3, [r7, #28]
 1061 069e 002B     		cmp	r3, #0
 1062 06a0 52D0     		beq	.L91
 1063              	.L79:
 539:Libraries/uC-CSP/LPC17xx/lpc17xx_uart.c **** 			fifo_cnt = UART_TX_FIFO_SIZE;
 1064              		.loc 1 539 0
 1065 06a2 4FF01003 		mov	r3, #16
 1066 06a6 BB61     		str	r3, [r7, #24]
 540:Libraries/uC-CSP/LPC17xx/lpc17xx_uart.c **** 			while (fifo_cnt && bToSend){
 1067              		.loc 1 540 0
 1068 06a8 15E0     		b	.L81
 1069              	.L82:
 541:Libraries/uC-CSP/LPC17xx/lpc17xx_uart.c **** 				UART_SendByte(UARTx, (*pChar++));
 1070              		.loc 1 541 0
 1071 06aa 7B69     		ldr	r3, [r7, #20]
 1072 06ac 1B78     		ldrb	r3, [r3, #0]	@ zero_extendqisi2
 1073 06ae 7A69     		ldr	r2, [r7, #20]
 1074 06b0 02F10102 		add	r2, r2, #1
 1075 06b4 7A61     		str	r2, [r7, #20]
 1076 06b6 F868     		ldr	r0, [r7, #12]
 1077 06b8 1946     		mov	r1, r3
 1078 06ba FFF7FEFF 		bl	UART_SendByte
 542:Libraries/uC-CSP/LPC17xx/lpc17xx_uart.c **** 				fifo_cnt--;
 1079              		.loc 1 542 0
 1080 06be BB69     		ldr	r3, [r7, #24]
 1081 06c0 03F1FF33 		add	r3, r3, #-1
 1082 06c4 BB61     		str	r3, [r7, #24]
 543:Libraries/uC-CSP/LPC17xx/lpc17xx_uart.c **** 				bToSend--;
 1083              		.loc 1 543 0
 1084 06c6 7B6A     		ldr	r3, [r7, #36]
 1085 06c8 03F1FF33 		add	r3, r3, #-1
 1086 06cc 7B62     		str	r3, [r7, #36]
 544:Libraries/uC-CSP/LPC17xx/lpc17xx_uart.c **** 				bSent++;
 1087              		.loc 1 544 0
 1088 06ce 3B6A     		ldr	r3, [r7, #32]
 1089 06d0 03F10103 		add	r3, r3, #1
 1090 06d4 3B62     		str	r3, [r7, #32]
 1091              	.L81:
 540:Libraries/uC-CSP/LPC17xx/lpc17xx_uart.c **** 			while (fifo_cnt && bToSend){
 1092              		.loc 1 540 0 discriminator 1
 1093 06d6 BB69     		ldr	r3, [r7, #24]
 1094 06d8 002B     		cmp	r3, #0
 1095 06da 02D0     		beq	.L74
 540:Libraries/uC-CSP/LPC17xx/lpc17xx_uart.c **** 			while (fifo_cnt && bToSend){
 1096              		.loc 1 540 0 is_stmt 0 discriminator 2
 1097 06dc 7B6A     		ldr	r3, [r7, #36]
 1098 06de 002B     		cmp	r3, #0
 1099 06e0 E3D1     		bne	.L82
 1100              	.L74:
 530:Libraries/uC-CSP/LPC17xx/lpc17xx_uart.c **** 		while (bToSend){
 1101              		.loc 1 530 0 is_stmt 1 discriminator 1
 1102 06e2 7B6A     		ldr	r3, [r7, #36]
 1103 06e4 002B     		cmp	r3, #0
 1104 06e6 C5D1     		bne	.L83
 530:Libraries/uC-CSP/LPC17xx/lpc17xx_uart.c **** 		while (bToSend){
 1105              		.loc 1 530 0 is_stmt 0
 1106 06e8 31E0     		b	.L84
 1107              	.L73:
 545:Libraries/uC-CSP/LPC17xx/lpc17xx_uart.c **** 			}
 546:Libraries/uC-CSP/LPC17xx/lpc17xx_uart.c **** 		}
 547:Libraries/uC-CSP/LPC17xx/lpc17xx_uart.c **** 	}
 548:Libraries/uC-CSP/LPC17xx/lpc17xx_uart.c **** 	// None blocking mode
 549:Libraries/uC-CSP/LPC17xx/lpc17xx_uart.c **** 	else {
 550:Libraries/uC-CSP/LPC17xx/lpc17xx_uart.c **** 		bSent = 0;
 1108              		.loc 1 550 0 is_stmt 1
 1109 06ea 4FF00003 		mov	r3, #0
 1110 06ee 3B62     		str	r3, [r7, #32]
 551:Libraries/uC-CSP/LPC17xx/lpc17xx_uart.c **** 		while (bToSend) {
 1111              		.loc 1 551 0
 1112 06f0 26E0     		b	.L85
 1113              	.L89:
 552:Libraries/uC-CSP/LPC17xx/lpc17xx_uart.c **** 			if (!(UARTx->LSR & UART_LSR_THRE)){
 1114              		.loc 1 552 0
 1115 06f2 FB68     		ldr	r3, [r7, #12]
 1116 06f4 1B7D     		ldrb	r3, [r3, #20]
 1117 06f6 DBB2     		uxtb	r3, r3
 1118 06f8 03F02003 		and	r3, r3, #32
 1119 06fc 002B     		cmp	r3, #0
 1120 06fe 25D0     		beq	.L92
 1121              	.L86:
 553:Libraries/uC-CSP/LPC17xx/lpc17xx_uart.c **** 				break;
 554:Libraries/uC-CSP/LPC17xx/lpc17xx_uart.c **** 			}
 555:Libraries/uC-CSP/LPC17xx/lpc17xx_uart.c **** 			fifo_cnt = UART_TX_FIFO_SIZE;
 1122              		.loc 1 555 0
 1123 0700 4FF01003 		mov	r3, #16
 1124 0704 BB61     		str	r3, [r7, #24]
 556:Libraries/uC-CSP/LPC17xx/lpc17xx_uart.c **** 			while (fifo_cnt && bToSend) {
 1125              		.loc 1 556 0
 1126 0706 15E0     		b	.L87
 1127              	.L88:
 557:Libraries/uC-CSP/LPC17xx/lpc17xx_uart.c **** 				UART_SendByte(UARTx, (*pChar++));
 1128              		.loc 1 557 0
 1129 0708 7B69     		ldr	r3, [r7, #20]
 1130 070a 1B78     		ldrb	r3, [r3, #0]	@ zero_extendqisi2
 1131 070c 7A69     		ldr	r2, [r7, #20]
 1132 070e 02F10102 		add	r2, r2, #1
 1133 0712 7A61     		str	r2, [r7, #20]
 1134 0714 F868     		ldr	r0, [r7, #12]
 1135 0716 1946     		mov	r1, r3
 1136 0718 FFF7FEFF 		bl	UART_SendByte
 558:Libraries/uC-CSP/LPC17xx/lpc17xx_uart.c **** 				bToSend--;
 1137              		.loc 1 558 0
 1138 071c 7B6A     		ldr	r3, [r7, #36]
 1139 071e 03F1FF33 		add	r3, r3, #-1
 1140 0722 7B62     		str	r3, [r7, #36]
 559:Libraries/uC-CSP/LPC17xx/lpc17xx_uart.c **** 				fifo_cnt--;
 1141              		.loc 1 559 0
 1142 0724 BB69     		ldr	r3, [r7, #24]
 1143 0726 03F1FF33 		add	r3, r3, #-1
 1144 072a BB61     		str	r3, [r7, #24]
 560:Libraries/uC-CSP/LPC17xx/lpc17xx_uart.c **** 				bSent++;
 1145              		.loc 1 560 0
 1146 072c 3B6A     		ldr	r3, [r7, #32]
 1147 072e 03F10103 		add	r3, r3, #1
 1148 0732 3B62     		str	r3, [r7, #32]
 1149              	.L87:
 556:Libraries/uC-CSP/LPC17xx/lpc17xx_uart.c **** 			while (fifo_cnt && bToSend) {
 1150              		.loc 1 556 0 discriminator 1
 1151 0734 BB69     		ldr	r3, [r7, #24]
 1152 0736 002B     		cmp	r3, #0
 1153 0738 02D0     		beq	.L85
 556:Libraries/uC-CSP/LPC17xx/lpc17xx_uart.c **** 			while (fifo_cnt && bToSend) {
 1154              		.loc 1 556 0 is_stmt 0 discriminator 2
 1155 073a 7B6A     		ldr	r3, [r7, #36]
 1156 073c 002B     		cmp	r3, #0
 1157 073e E3D1     		bne	.L88
 1158              	.L85:
 551:Libraries/uC-CSP/LPC17xx/lpc17xx_uart.c **** 		while (bToSend) {
 1159              		.loc 1 551 0 is_stmt 1 discriminator 1
 1160 0740 7B6A     		ldr	r3, [r7, #36]
 1161 0742 002B     		cmp	r3, #0
 1162 0744 D5D1     		bne	.L89
 1163 0746 02E0     		b	.L84
 1164              	.L91:
 538:Libraries/uC-CSP/LPC17xx/lpc17xx_uart.c **** 			if(timeOut == 0) break;
 1165              		.loc 1 538 0
 1166 0748 00BF     		nop
 1167 074a 00E0     		b	.L84
 1168              	.L92:
 553:Libraries/uC-CSP/LPC17xx/lpc17xx_uart.c **** 				break;
 1169              		.loc 1 553 0
 1170 074c 00BF     		nop
 1171              	.L84:
 561:Libraries/uC-CSP/LPC17xx/lpc17xx_uart.c **** 			}
 562:Libraries/uC-CSP/LPC17xx/lpc17xx_uart.c **** 		}
 563:Libraries/uC-CSP/LPC17xx/lpc17xx_uart.c **** 	}
 564:Libraries/uC-CSP/LPC17xx/lpc17xx_uart.c **** 	return bSent;
 1172              		.loc 1 564 0
 1173 074e 3B6A     		ldr	r3, [r7, #32]
 565:Libraries/uC-CSP/LPC17xx/lpc17xx_uart.c **** }
 1174              		.loc 1 565 0
 1175 0750 1846     		mov	r0, r3
 1176 0752 07F12807 		add	r7, r7, #40
 1177 0756 BD46     		mov	sp, r7
 1178 0758 80BD     		pop	{r7, pc}
 1179              		.cfi_endproc
 1180              	.LFE61:
 1182 075a 00BF     		.align	2
 1183              		.global	UART_Receive
 1184              		.thumb
 1185              		.thumb_func
 1187              	UART_Receive:
 1188              	.LFB62:
 566:Libraries/uC-CSP/LPC17xx/lpc17xx_uart.c **** 
 567:Libraries/uC-CSP/LPC17xx/lpc17xx_uart.c **** /*********************************************************************//**
 568:Libraries/uC-CSP/LPC17xx/lpc17xx_uart.c ****  * @brief		Receive a block of data via UART peripheral
 569:Libraries/uC-CSP/LPC17xx/lpc17xx_uart.c ****  * @param[in]	UARTx	Selected UART peripheral used to send data,
 570:Libraries/uC-CSP/LPC17xx/lpc17xx_uart.c ****  * 				should be:
 571:Libraries/uC-CSP/LPC17xx/lpc17xx_uart.c ****  *   			- LPC_UART0: UART0 peripheral
 572:Libraries/uC-CSP/LPC17xx/lpc17xx_uart.c ****  * 				- LPC_UART1: UART1 peripheral
 573:Libraries/uC-CSP/LPC17xx/lpc17xx_uart.c ****  * 				- LPC_UART2: UART2 peripheral
 574:Libraries/uC-CSP/LPC17xx/lpc17xx_uart.c ****  * 				- LPC_UART3: UART3 peripheral
 575:Libraries/uC-CSP/LPC17xx/lpc17xx_uart.c ****  * @param[out]	rxbuf 	Pointer to Received buffer
 576:Libraries/uC-CSP/LPC17xx/lpc17xx_uart.c ****  * @param[in]	buflen 	Length of Received buffer
 577:Libraries/uC-CSP/LPC17xx/lpc17xx_uart.c ****  * @param[in] 	flag 	Flag mode, should be NONE_BLOCKING or BLOCKING
 578:Libraries/uC-CSP/LPC17xx/lpc17xx_uart.c **** 
 579:Libraries/uC-CSP/LPC17xx/lpc17xx_uart.c ****  * @return 		Number of bytes received
 580:Libraries/uC-CSP/LPC17xx/lpc17xx_uart.c ****  *
 581:Libraries/uC-CSP/LPC17xx/lpc17xx_uart.c ****  * Note: when using UART in BLOCKING mode, a time-out condition is used
 582:Libraries/uC-CSP/LPC17xx/lpc17xx_uart.c ****  * via defined symbol UART_BLOCKING_TIMEOUT.
 583:Libraries/uC-CSP/LPC17xx/lpc17xx_uart.c ****  **********************************************************************/
 584:Libraries/uC-CSP/LPC17xx/lpc17xx_uart.c **** uint32_t UART_Receive(LPC_UART_TypeDef *UARTx, uint8_t *rxbuf, \
 585:Libraries/uC-CSP/LPC17xx/lpc17xx_uart.c **** 		uint32_t buflen, TRANSFER_BLOCK_Type flag)
 586:Libraries/uC-CSP/LPC17xx/lpc17xx_uart.c **** {
 1189              		.loc 1 586 0
 1190              		.cfi_startproc
 1191              		@ args = 0, pretend = 0, frame = 32
 1192              		@ frame_needed = 1, uses_anonymous_args = 0
 1193 075c 80B5     		push	{r7, lr}
 1194              	.LCFI21:
 1195              		.cfi_def_cfa_offset 8
 1196              		.cfi_offset 14, -4
 1197              		.cfi_offset 7, -8
 1198 075e 88B0     		sub	sp, sp, #32
 1199              	.LCFI22:
 1200              		.cfi_def_cfa_offset 40
 1201 0760 00AF     		add	r7, sp, #0
 1202              	.LCFI23:
 1203              		.cfi_def_cfa_register 7
 1204 0762 F860     		str	r0, [r7, #12]
 1205 0764 B960     		str	r1, [r7, #8]
 1206 0766 7A60     		str	r2, [r7, #4]
 1207 0768 FB70     		strb	r3, [r7, #3]
 587:Libraries/uC-CSP/LPC17xx/lpc17xx_uart.c **** 	uint32_t bToRecv, bRecv, timeOut;
 588:Libraries/uC-CSP/LPC17xx/lpc17xx_uart.c **** 	uint8_t *pChar = rxbuf;
 1208              		.loc 1 588 0
 1209 076a BB68     		ldr	r3, [r7, #8]
 1210 076c 3B61     		str	r3, [r7, #16]
 589:Libraries/uC-CSP/LPC17xx/lpc17xx_uart.c **** 
 590:Libraries/uC-CSP/LPC17xx/lpc17xx_uart.c **** 	bToRecv = buflen;
 1211              		.loc 1 590 0
 1212 076e 7B68     		ldr	r3, [r7, #4]
 1213 0770 FB61     		str	r3, [r7, #28]
 591:Libraries/uC-CSP/LPC17xx/lpc17xx_uart.c **** 
 592:Libraries/uC-CSP/LPC17xx/lpc17xx_uart.c **** 	// Blocking mode
 593:Libraries/uC-CSP/LPC17xx/lpc17xx_uart.c **** 	if (flag == BLOCKING) {
 1214              		.loc 1 593 0
 1215 0772 FB78     		ldrb	r3, [r7, #3]	@ zero_extendqisi2
 1216 0774 012B     		cmp	r3, #1
 1217 0776 31D1     		bne	.L94
 594:Libraries/uC-CSP/LPC17xx/lpc17xx_uart.c **** 		bRecv = 0;
 1218              		.loc 1 594 0
 1219 0778 4FF00003 		mov	r3, #0
 1220 077c BB61     		str	r3, [r7, #24]
 595:Libraries/uC-CSP/LPC17xx/lpc17xx_uart.c **** 		while (bToRecv){
 1221              		.loc 1 595 0
 1222 077e 29E0     		b	.L95
 1223              	.L102:
 596:Libraries/uC-CSP/LPC17xx/lpc17xx_uart.c **** 			timeOut = UART_BLOCKING_TIMEOUT;
 1224              		.loc 1 596 0
 1225 0780 4FF0FF33 		mov	r3, #-1
 1226 0784 7B61     		str	r3, [r7, #20]
 597:Libraries/uC-CSP/LPC17xx/lpc17xx_uart.c **** 			while (!(UARTx->LSR & UART_LSR_RDR)){
 1227              		.loc 1 597 0
 1228 0786 06E0     		b	.L96
 1229              	.L99:
 598:Libraries/uC-CSP/LPC17xx/lpc17xx_uart.c **** 				if (timeOut == 0) break;
 1230              		.loc 1 598 0
 1231 0788 7B69     		ldr	r3, [r7, #20]
 1232 078a 002B     		cmp	r3, #0
 1233 078c 0BD0     		beq	.L107
 1234              	.L97:
 599:Libraries/uC-CSP/LPC17xx/lpc17xx_uart.c **** 				timeOut--;
 1235              		.loc 1 599 0
 1236 078e 7B69     		ldr	r3, [r7, #20]
 1237 0790 03F1FF33 		add	r3, r3, #-1
 1238 0794 7B61     		str	r3, [r7, #20]
 1239              	.L96:
 597:Libraries/uC-CSP/LPC17xx/lpc17xx_uart.c **** 			while (!(UARTx->LSR & UART_LSR_RDR)){
 1240              		.loc 1 597 0 discriminator 1
 1241 0796 FB68     		ldr	r3, [r7, #12]
 1242 0798 1B7D     		ldrb	r3, [r3, #20]
 1243 079a DBB2     		uxtb	r3, r3
 1244 079c 03F00103 		and	r3, r3, #1
 1245 07a0 002B     		cmp	r3, #0
 1246 07a2 F1D0     		beq	.L99
 1247 07a4 00E0     		b	.L98
 1248              	.L107:
 598:Libraries/uC-CSP/LPC17xx/lpc17xx_uart.c **** 				if (timeOut == 0) break;
 1249              		.loc 1 598 0
 1250 07a6 00BF     		nop
 1251              	.L98:
 600:Libraries/uC-CSP/LPC17xx/lpc17xx_uart.c **** 			}
 601:Libraries/uC-CSP/LPC17xx/lpc17xx_uart.c **** 			// Time out!
 602:Libraries/uC-CSP/LPC17xx/lpc17xx_uart.c **** 			if(timeOut == 0) break;
 1252              		.loc 1 602 0
 1253 07a8 7B69     		ldr	r3, [r7, #20]
 1254 07aa 002B     		cmp	r3, #0
 1255 07ac 38D0     		beq	.L108
 1256              	.L100:
 603:Libraries/uC-CSP/LPC17xx/lpc17xx_uart.c **** 			// Get data from the buffer
 604:Libraries/uC-CSP/LPC17xx/lpc17xx_uart.c **** 			(*pChar++) = UART_ReceiveByte(UARTx);
 1257              		.loc 1 604 0
 1258 07ae F868     		ldr	r0, [r7, #12]
 1259 07b0 FFF7FEFF 		bl	UART_ReceiveByte
 1260 07b4 0346     		mov	r3, r0
 1261 07b6 1A46     		mov	r2, r3
 1262 07b8 3B69     		ldr	r3, [r7, #16]
 1263 07ba 1A70     		strb	r2, [r3, #0]
 1264 07bc 3B69     		ldr	r3, [r7, #16]
 1265 07be 03F10103 		add	r3, r3, #1
 1266 07c2 3B61     		str	r3, [r7, #16]
 605:Libraries/uC-CSP/LPC17xx/lpc17xx_uart.c **** 			bToRecv--;
 1267              		.loc 1 605 0
 1268 07c4 FB69     		ldr	r3, [r7, #28]
 1269 07c6 03F1FF33 		add	r3, r3, #-1
 1270 07ca FB61     		str	r3, [r7, #28]
 606:Libraries/uC-CSP/LPC17xx/lpc17xx_uart.c **** 			bRecv++;
 1271              		.loc 1 606 0
 1272 07cc BB69     		ldr	r3, [r7, #24]
 1273 07ce 03F10103 		add	r3, r3, #1
 1274 07d2 BB61     		str	r3, [r7, #24]
 1275              	.L95:
 595:Libraries/uC-CSP/LPC17xx/lpc17xx_uart.c **** 		while (bToRecv){
 1276              		.loc 1 595 0 discriminator 1
 1277 07d4 FB69     		ldr	r3, [r7, #28]
 1278 07d6 002B     		cmp	r3, #0
 1279 07d8 D2D1     		bne	.L102
 595:Libraries/uC-CSP/LPC17xx/lpc17xx_uart.c **** 		while (bToRecv){
 1280              		.loc 1 595 0 is_stmt 0
 1281 07da 24E0     		b	.L103
 1282              	.L94:
 607:Libraries/uC-CSP/LPC17xx/lpc17xx_uart.c **** 		}
 608:Libraries/uC-CSP/LPC17xx/lpc17xx_uart.c **** 	}
 609:Libraries/uC-CSP/LPC17xx/lpc17xx_uart.c **** 	// None blocking mode
 610:Libraries/uC-CSP/LPC17xx/lpc17xx_uart.c **** 	else {
 611:Libraries/uC-CSP/LPC17xx/lpc17xx_uart.c **** 		bRecv = 0;
 1283              		.loc 1 611 0 is_stmt 1
 1284 07dc 4FF00003 		mov	r3, #0
 1285 07e0 BB61     		str	r3, [r7, #24]
 612:Libraries/uC-CSP/LPC17xx/lpc17xx_uart.c **** 		while (bToRecv) {
 1286              		.loc 1 612 0
 1287 07e2 19E0     		b	.L104
 1288              	.L106:
 613:Libraries/uC-CSP/LPC17xx/lpc17xx_uart.c **** 			if (!(UARTx->LSR & UART_LSR_RDR)) {
 1289              		.loc 1 613 0
 1290 07e4 FB68     		ldr	r3, [r7, #12]
 1291 07e6 1B7D     		ldrb	r3, [r3, #20]
 1292 07e8 DBB2     		uxtb	r3, r3
 1293 07ea 03F00103 		and	r3, r3, #1
 1294 07ee 002B     		cmp	r3, #0
 1295 07f0 18D0     		beq	.L109
 1296              	.L105:
 614:Libraries/uC-CSP/LPC17xx/lpc17xx_uart.c **** 				break;
 615:Libraries/uC-CSP/LPC17xx/lpc17xx_uart.c **** 			} else {
 616:Libraries/uC-CSP/LPC17xx/lpc17xx_uart.c **** 				(*pChar++) = UART_ReceiveByte(UARTx);
 1297              		.loc 1 616 0
 1298 07f2 F868     		ldr	r0, [r7, #12]
 1299 07f4 FFF7FEFF 		bl	UART_ReceiveByte
 1300 07f8 0346     		mov	r3, r0
 1301 07fa 1A46     		mov	r2, r3
 1302 07fc 3B69     		ldr	r3, [r7, #16]
 1303 07fe 1A70     		strb	r2, [r3, #0]
 1304 0800 3B69     		ldr	r3, [r7, #16]
 1305 0802 03F10103 		add	r3, r3, #1
 1306 0806 3B61     		str	r3, [r7, #16]
 617:Libraries/uC-CSP/LPC17xx/lpc17xx_uart.c **** 				bRecv++;
 1307              		.loc 1 617 0
 1308 0808 BB69     		ldr	r3, [r7, #24]
 1309 080a 03F10103 		add	r3, r3, #1
 1310 080e BB61     		str	r3, [r7, #24]
 618:Libraries/uC-CSP/LPC17xx/lpc17xx_uart.c **** 				bToRecv--;
 1311              		.loc 1 618 0
 1312 0810 FB69     		ldr	r3, [r7, #28]
 1313 0812 03F1FF33 		add	r3, r3, #-1
 1314 0816 FB61     		str	r3, [r7, #28]
 1315              	.L104:
 612:Libraries/uC-CSP/LPC17xx/lpc17xx_uart.c **** 		while (bToRecv) {
 1316              		.loc 1 612 0 discriminator 1
 1317 0818 FB69     		ldr	r3, [r7, #28]
 1318 081a 002B     		cmp	r3, #0
 1319 081c E2D1     		bne	.L106
 1320 081e 02E0     		b	.L103
 1321              	.L108:
 602:Libraries/uC-CSP/LPC17xx/lpc17xx_uart.c **** 			if(timeOut == 0) break;
 1322              		.loc 1 602 0
 1323 0820 00BF     		nop
 1324 0822 00E0     		b	.L103
 1325              	.L109:
 614:Libraries/uC-CSP/LPC17xx/lpc17xx_uart.c **** 				break;
 1326              		.loc 1 614 0
 1327 0824 00BF     		nop
 1328              	.L103:
 619:Libraries/uC-CSP/LPC17xx/lpc17xx_uart.c **** 			}
 620:Libraries/uC-CSP/LPC17xx/lpc17xx_uart.c **** 		}
 621:Libraries/uC-CSP/LPC17xx/lpc17xx_uart.c **** 	}
 622:Libraries/uC-CSP/LPC17xx/lpc17xx_uart.c **** 	return bRecv;
 1329              		.loc 1 622 0
 1330 0826 BB69     		ldr	r3, [r7, #24]
 623:Libraries/uC-CSP/LPC17xx/lpc17xx_uart.c **** }
 1331              		.loc 1 623 0
 1332 0828 1846     		mov	r0, r3
 1333 082a 07F12007 		add	r7, r7, #32
 1334 082e BD46     		mov	sp, r7
 1335 0830 80BD     		pop	{r7, pc}
 1336              		.cfi_endproc
 1337              	.LFE62:
 1339 0832 00BF     		.align	2
 1340              		.global	UART_ForceBreak
 1341              		.thumb
 1342              		.thumb_func
 1344              	UART_ForceBreak:
 1345              	.LFB63:
 624:Libraries/uC-CSP/LPC17xx/lpc17xx_uart.c **** 
 625:Libraries/uC-CSP/LPC17xx/lpc17xx_uart.c **** /*********************************************************************//**
 626:Libraries/uC-CSP/LPC17xx/lpc17xx_uart.c ****  * @brief		Force BREAK character on UART line, output pin UARTx TXD is
 627:Libraries/uC-CSP/LPC17xx/lpc17xx_uart.c **** 				forced to logic 0.
 628:Libraries/uC-CSP/LPC17xx/lpc17xx_uart.c ****  * @param[in]	UARTx	UART peripheral selected, should be:
 629:Libraries/uC-CSP/LPC17xx/lpc17xx_uart.c ****  *  			- LPC_UART0: UART0 peripheral
 630:Libraries/uC-CSP/LPC17xx/lpc17xx_uart.c ****  * 				- LPC_UART1: UART1 peripheral
 631:Libraries/uC-CSP/LPC17xx/lpc17xx_uart.c ****  * 				- LPC_UART2: UART2 peripheral
 632:Libraries/uC-CSP/LPC17xx/lpc17xx_uart.c ****  * 				- LPC_UART3: UART3 peripheral
 633:Libraries/uC-CSP/LPC17xx/lpc17xx_uart.c ****  * @return 		None
 634:Libraries/uC-CSP/LPC17xx/lpc17xx_uart.c ****  **********************************************************************/
 635:Libraries/uC-CSP/LPC17xx/lpc17xx_uart.c **** void UART_ForceBreak(LPC_UART_TypeDef* UARTx)
 636:Libraries/uC-CSP/LPC17xx/lpc17xx_uart.c **** {
 1346              		.loc 1 636 0
 1347              		.cfi_startproc
 1348              		@ args = 0, pretend = 0, frame = 8
 1349              		@ frame_needed = 1, uses_anonymous_args = 0
 1350              		@ link register save eliminated.
 1351 0834 80B4     		push	{r7}
 1352              	.LCFI24:
 1353              		.cfi_def_cfa_offset 4
 1354              		.cfi_offset 7, -4
 1355 0836 83B0     		sub	sp, sp, #12
 1356              	.LCFI25:
 1357              		.cfi_def_cfa_offset 16
 1358 0838 00AF     		add	r7, sp, #0
 1359              	.LCFI26:
 1360              		.cfi_def_cfa_register 7
 1361 083a 7860     		str	r0, [r7, #4]
 637:Libraries/uC-CSP/LPC17xx/lpc17xx_uart.c **** 	//CHECK_PARAM(PARAM_UARTx(UARTx));
 638:Libraries/uC-CSP/LPC17xx/lpc17xx_uart.c **** 
 639:Libraries/uC-CSP/LPC17xx/lpc17xx_uart.c **** 	if (((LPC_UART1_TypeDef *)UARTx) == LPC_UART1)
 1362              		.loc 1 639 0
 1363 083c 7A68     		ldr	r2, [r7, #4]
 1364 083e 4FF00003 		mov	r3, #0
 1365 0842 C4F20103 		movt	r3, 16385
 1366 0846 9A42     		cmp	r2, r3
 1367 0848 08D1     		bne	.L111
 640:Libraries/uC-CSP/LPC17xx/lpc17xx_uart.c **** 	{
 641:Libraries/uC-CSP/LPC17xx/lpc17xx_uart.c **** 		((LPC_UART1_TypeDef *)UARTx)->LCR |= UART_LCR_BREAK_EN;
 1368              		.loc 1 641 0
 1369 084a 7B68     		ldr	r3, [r7, #4]
 1370 084c 1B7B     		ldrb	r3, [r3, #12]
 1371 084e DBB2     		uxtb	r3, r3
 1372 0850 43F04003 		orr	r3, r3, #64
 1373 0854 DAB2     		uxtb	r2, r3
 1374 0856 7B68     		ldr	r3, [r7, #4]
 1375 0858 1A73     		strb	r2, [r3, #12]
 1376 085a 07E0     		b	.L110
 1377              	.L111:
 642:Libraries/uC-CSP/LPC17xx/lpc17xx_uart.c **** 	}
 643:Libraries/uC-CSP/LPC17xx/lpc17xx_uart.c **** 	else
 644:Libraries/uC-CSP/LPC17xx/lpc17xx_uart.c **** 	{
 645:Libraries/uC-CSP/LPC17xx/lpc17xx_uart.c **** 		UARTx->LCR |= UART_LCR_BREAK_EN;
 1378              		.loc 1 645 0
 1379 085c 7B68     		ldr	r3, [r7, #4]
 1380 085e 1B7B     		ldrb	r3, [r3, #12]
 1381 0860 DBB2     		uxtb	r3, r3
 1382 0862 43F04003 		orr	r3, r3, #64
 1383 0866 DAB2     		uxtb	r2, r3
 1384 0868 7B68     		ldr	r3, [r7, #4]
 1385 086a 1A73     		strb	r2, [r3, #12]
 1386              	.L110:
 646:Libraries/uC-CSP/LPC17xx/lpc17xx_uart.c **** 	}
 647:Libraries/uC-CSP/LPC17xx/lpc17xx_uart.c **** }
 1387              		.loc 1 647 0
 1388 086c 07F10C07 		add	r7, r7, #12
 1389 0870 BD46     		mov	sp, r7
 1390 0872 80BC     		pop	{r7}
 1391 0874 7047     		bx	lr
 1392              		.cfi_endproc
 1393              	.LFE63:
 1395 0876 00BF     		.align	2
 1396              		.global	UART_IntConfig
 1397              		.thumb
 1398              		.thumb_func
 1400              	UART_IntConfig:
 1401              	.LFB64:
 648:Libraries/uC-CSP/LPC17xx/lpc17xx_uart.c **** 
 649:Libraries/uC-CSP/LPC17xx/lpc17xx_uart.c **** 
 650:Libraries/uC-CSP/LPC17xx/lpc17xx_uart.c **** /********************************************************************//**
 651:Libraries/uC-CSP/LPC17xx/lpc17xx_uart.c ****  * @brief 		Enable or disable specified UART interrupt.
 652:Libraries/uC-CSP/LPC17xx/lpc17xx_uart.c ****  * @param[in]	UARTx	UART peripheral selected, should be
 653:Libraries/uC-CSP/LPC17xx/lpc17xx_uart.c ****  *  			- LPC_UART0: UART0 peripheral
 654:Libraries/uC-CSP/LPC17xx/lpc17xx_uart.c ****  * 				- LPC_UART1: UART1 peripheral
 655:Libraries/uC-CSP/LPC17xx/lpc17xx_uart.c ****  * 				- LPC_UART2: UART2 peripheral
 656:Libraries/uC-CSP/LPC17xx/lpc17xx_uart.c ****  * 				- LPC_UART3: UART3 peripheral
 657:Libraries/uC-CSP/LPC17xx/lpc17xx_uart.c ****  * @param[in]	UARTIntCfg	Specifies the interrupt flag,
 658:Libraries/uC-CSP/LPC17xx/lpc17xx_uart.c ****  * 				should be one of the following:
 659:Libraries/uC-CSP/LPC17xx/lpc17xx_uart.c **** 				- UART_INTCFG_RBR 	:  RBR Interrupt enable
 660:Libraries/uC-CSP/LPC17xx/lpc17xx_uart.c **** 				- UART_INTCFG_THRE 	:  THR Interrupt enable
 661:Libraries/uC-CSP/LPC17xx/lpc17xx_uart.c **** 				- UART_INTCFG_RLS 	:  RX line status interrupt enable
 662:Libraries/uC-CSP/LPC17xx/lpc17xx_uart.c **** 				- UART1_INTCFG_MS	:  Modem status interrupt enable (UART1 only)
 663:Libraries/uC-CSP/LPC17xx/lpc17xx_uart.c **** 				- UART1_INTCFG_CTS	:  CTS1 signal transition interrupt enable (UART1 only)
 664:Libraries/uC-CSP/LPC17xx/lpc17xx_uart.c **** 				- UART_INTCFG_ABEO 	:  Enables the end of auto-baud interrupt
 665:Libraries/uC-CSP/LPC17xx/lpc17xx_uart.c **** 				- UART_INTCFG_ABTO 	:  Enables the auto-baud time-out interrupt
 666:Libraries/uC-CSP/LPC17xx/lpc17xx_uart.c ****  * @param[in]	NewState New state of specified UART interrupt type,
 667:Libraries/uC-CSP/LPC17xx/lpc17xx_uart.c ****  * 				should be:
 668:Libraries/uC-CSP/LPC17xx/lpc17xx_uart.c ****  * 				- ENALBE: Enable this UART interrupt type.
 669:Libraries/uC-CSP/LPC17xx/lpc17xx_uart.c **** * 				- DISALBE: Disable this UART interrupt type.
 670:Libraries/uC-CSP/LPC17xx/lpc17xx_uart.c ****  * @return 		None
 671:Libraries/uC-CSP/LPC17xx/lpc17xx_uart.c ****  *********************************************************************/
 672:Libraries/uC-CSP/LPC17xx/lpc17xx_uart.c **** void UART_IntConfig(LPC_UART_TypeDef *UARTx, UART_INT_Type UARTIntCfg, FunctionalState NewState)
 673:Libraries/uC-CSP/LPC17xx/lpc17xx_uart.c **** {
 1402              		.loc 1 673 0
 1403              		.cfi_startproc
 1404              		@ args = 0, pretend = 0, frame = 16
 1405              		@ frame_needed = 1, uses_anonymous_args = 0
 1406              		@ link register save eliminated.
 1407 0878 80B4     		push	{r7}
 1408              	.LCFI27:
 1409              		.cfi_def_cfa_offset 4
 1410              		.cfi_offset 7, -4
 1411 087a 85B0     		sub	sp, sp, #20
 1412              	.LCFI28:
 1413              		.cfi_def_cfa_offset 24
 1414 087c 00AF     		add	r7, sp, #0
 1415              	.LCFI29:
 1416              		.cfi_def_cfa_register 7
 1417 087e 7860     		str	r0, [r7, #4]
 1418 0880 1346     		mov	r3, r2
 1419 0882 0A46     		mov	r2, r1
 1420 0884 FA70     		strb	r2, [r7, #3]
 1421 0886 BB70     		strb	r3, [r7, #2]
 674:Libraries/uC-CSP/LPC17xx/lpc17xx_uart.c **** 	uint32_t tmp;
 675:Libraries/uC-CSP/LPC17xx/lpc17xx_uart.c **** 
 676:Libraries/uC-CSP/LPC17xx/lpc17xx_uart.c **** 	//CHECK_PARAM(PARAM_UARTx(UARTx));
 677:Libraries/uC-CSP/LPC17xx/lpc17xx_uart.c **** 	//CHECK_PARAM(PARAM_FUNCTIONALSTATE(NewState));
 678:Libraries/uC-CSP/LPC17xx/lpc17xx_uart.c **** 
 679:Libraries/uC-CSP/LPC17xx/lpc17xx_uart.c **** 	switch(UARTIntCfg){
 1422              		.loc 1 679 0
 1423 0888 FB78     		ldrb	r3, [r7, #3]	@ zero_extendqisi2
 1424 088a 062B     		cmp	r3, #6
 1425 088c 2CD8     		bhi	.L114
 1426 088e 01A2     		adr	r2, .L122
 1427 0890 52F823F0 		ldr	pc, [r2, r3, lsl #2]
 1428              		.align	2
 1429              	.L122:
 1430 0894 B1080000 		.word	.L115+1
 1431 0898 B9080000 		.word	.L116+1
 1432 089c C1080000 		.word	.L117+1
 1433 08a0 C9080000 		.word	.L118+1
 1434 08a4 D1080000 		.word	.L119+1
 1435 08a8 D9080000 		.word	.L120+1
 1436 08ac E1080000 		.word	.L121+1
 1437              	.L115:
 680:Libraries/uC-CSP/LPC17xx/lpc17xx_uart.c **** 		case UART_INTCFG_RBR:
 681:Libraries/uC-CSP/LPC17xx/lpc17xx_uart.c **** 			tmp = UART_IER_RBRINT_EN;
 1438              		.loc 1 681 0
 1439 08b0 4FF00103 		mov	r3, #1
 1440 08b4 FB60     		str	r3, [r7, #12]
 682:Libraries/uC-CSP/LPC17xx/lpc17xx_uart.c **** 			break;
 1441              		.loc 1 682 0
 1442 08b6 17E0     		b	.L114
 1443              	.L116:
 683:Libraries/uC-CSP/LPC17xx/lpc17xx_uart.c **** 		case UART_INTCFG_THRE:
 684:Libraries/uC-CSP/LPC17xx/lpc17xx_uart.c **** 			tmp = UART_IER_THREINT_EN;
 1444              		.loc 1 684 0
 1445 08b8 4FF00203 		mov	r3, #2
 1446 08bc FB60     		str	r3, [r7, #12]
 685:Libraries/uC-CSP/LPC17xx/lpc17xx_uart.c **** 			break;
 1447              		.loc 1 685 0
 1448 08be 13E0     		b	.L114
 1449              	.L117:
 686:Libraries/uC-CSP/LPC17xx/lpc17xx_uart.c **** 		case UART_INTCFG_RLS:
 687:Libraries/uC-CSP/LPC17xx/lpc17xx_uart.c **** 			tmp = UART_IER_RLSINT_EN;
 1450              		.loc 1 687 0
 1451 08c0 4FF00403 		mov	r3, #4
 1452 08c4 FB60     		str	r3, [r7, #12]
 688:Libraries/uC-CSP/LPC17xx/lpc17xx_uart.c **** 			break;
 1453              		.loc 1 688 0
 1454 08c6 0FE0     		b	.L114
 1455              	.L118:
 689:Libraries/uC-CSP/LPC17xx/lpc17xx_uart.c **** 		case UART1_INTCFG_MS:
 690:Libraries/uC-CSP/LPC17xx/lpc17xx_uart.c **** 			tmp = UART1_IER_MSINT_EN;
 1456              		.loc 1 690 0
 1457 08c8 4FF00803 		mov	r3, #8
 1458 08cc FB60     		str	r3, [r7, #12]
 691:Libraries/uC-CSP/LPC17xx/lpc17xx_uart.c **** 			break;
 1459              		.loc 1 691 0
 1460 08ce 0BE0     		b	.L114
 1461              	.L119:
 692:Libraries/uC-CSP/LPC17xx/lpc17xx_uart.c **** 		case UART1_INTCFG_CTS:
 693:Libraries/uC-CSP/LPC17xx/lpc17xx_uart.c **** 			tmp = UART1_IER_CTSINT_EN;
 1462              		.loc 1 693 0
 1463 08d0 4FF08003 		mov	r3, #128
 1464 08d4 FB60     		str	r3, [r7, #12]
 694:Libraries/uC-CSP/LPC17xx/lpc17xx_uart.c **** 			break;
 1465              		.loc 1 694 0
 1466 08d6 07E0     		b	.L114
 1467              	.L120:
 695:Libraries/uC-CSP/LPC17xx/lpc17xx_uart.c **** 		case UART_INTCFG_ABEO:
 696:Libraries/uC-CSP/LPC17xx/lpc17xx_uart.c **** 			tmp = UART_IER_ABEOINT_EN;
 1468              		.loc 1 696 0
 1469 08d8 4FF48073 		mov	r3, #256
 1470 08dc FB60     		str	r3, [r7, #12]
 697:Libraries/uC-CSP/LPC17xx/lpc17xx_uart.c **** 			break;
 1471              		.loc 1 697 0
 1472 08de 03E0     		b	.L114
 1473              	.L121:
 698:Libraries/uC-CSP/LPC17xx/lpc17xx_uart.c **** 		case UART_INTCFG_ABTO:
 699:Libraries/uC-CSP/LPC17xx/lpc17xx_uart.c **** 			tmp = UART_IER_ABTOINT_EN;
 1474              		.loc 1 699 0
 1475 08e0 4FF40073 		mov	r3, #512
 1476 08e4 FB60     		str	r3, [r7, #12]
 700:Libraries/uC-CSP/LPC17xx/lpc17xx_uart.c **** 			break;
 1477              		.loc 1 700 0
 1478 08e6 00BF     		nop
 1479              	.L114:
 701:Libraries/uC-CSP/LPC17xx/lpc17xx_uart.c **** 	}
 702:Libraries/uC-CSP/LPC17xx/lpc17xx_uart.c **** 
 703:Libraries/uC-CSP/LPC17xx/lpc17xx_uart.c **** 	/*
 704:Libraries/uC-CSP/LPC17xx/lpc17xx_uart.c **** 	if ((LPC_UART1_TypeDef *) UARTx == LPC_UART1)
 705:Libraries/uC-CSP/LPC17xx/lpc17xx_uart.c **** 	{
 706:Libraries/uC-CSP/LPC17xx/lpc17xx_uart.c **** 		//CHECK_PARAM((PARAM_UART_INTCFG(UARTIntCfg)) || (PARAM_UART1_INTCFG(UARTIntCfg)));
 707:Libraries/uC-CSP/LPC17xx/lpc17xx_uart.c **** 	}
 708:Libraries/uC-CSP/LPC17xx/lpc17xx_uart.c **** 	else
 709:Libraries/uC-CSP/LPC17xx/lpc17xx_uart.c **** 	{
 710:Libraries/uC-CSP/LPC17xx/lpc17xx_uart.c **** 		//CHECK_PARAM(PARAM_UART_INTCFG(UARTIntCfg));
 711:Libraries/uC-CSP/LPC17xx/lpc17xx_uart.c **** 	}
 712:Libraries/uC-CSP/LPC17xx/lpc17xx_uart.c **** */
 713:Libraries/uC-CSP/LPC17xx/lpc17xx_uart.c **** 	if (NewState == ENABLE)
 1480              		.loc 1 713 0
 1481 08e8 BB78     		ldrb	r3, [r7, #2]	@ zero_extendqisi2
 1482 08ea 012B     		cmp	r3, #1
 1483 08ec 14D1     		bne	.L123
 714:Libraries/uC-CSP/LPC17xx/lpc17xx_uart.c **** 	{
 715:Libraries/uC-CSP/LPC17xx/lpc17xx_uart.c **** 		if ((LPC_UART1_TypeDef *) UARTx == LPC_UART1)
 1484              		.loc 1 715 0
 1485 08ee 7A68     		ldr	r2, [r7, #4]
 1486 08f0 4FF00003 		mov	r3, #0
 1487 08f4 C4F20103 		movt	r3, 16385
 1488 08f8 9A42     		cmp	r2, r3
 1489 08fa 06D1     		bne	.L124
 716:Libraries/uC-CSP/LPC17xx/lpc17xx_uart.c **** 		{
 717:Libraries/uC-CSP/LPC17xx/lpc17xx_uart.c **** 			((LPC_UART1_TypeDef *)UARTx)->/*DLIER.*/IER |= tmp;
 1490              		.loc 1 717 0
 1491 08fc 7B68     		ldr	r3, [r7, #4]
 1492 08fe 5A68     		ldr	r2, [r3, #4]
 1493 0900 FB68     		ldr	r3, [r7, #12]
 1494 0902 1A43     		orrs	r2, r2, r3
 1495 0904 7B68     		ldr	r3, [r7, #4]
 1496 0906 5A60     		str	r2, [r3, #4]
 1497 0908 24E0     		b	.L113
 1498              	.L124:
 718:Libraries/uC-CSP/LPC17xx/lpc17xx_uart.c **** 		}
 719:Libraries/uC-CSP/LPC17xx/lpc17xx_uart.c **** 		else
 720:Libraries/uC-CSP/LPC17xx/lpc17xx_uart.c **** 		{
 721:Libraries/uC-CSP/LPC17xx/lpc17xx_uart.c **** 			UARTx->/*DLIER.*/IER |= tmp;
 1499              		.loc 1 721 0
 1500 090a 7B68     		ldr	r3, [r7, #4]
 1501 090c 5A68     		ldr	r2, [r3, #4]
 1502 090e FB68     		ldr	r3, [r7, #12]
 1503 0910 1A43     		orrs	r2, r2, r3
 1504 0912 7B68     		ldr	r3, [r7, #4]
 1505 0914 5A60     		str	r2, [r3, #4]
 1506 0916 1DE0     		b	.L113
 1507              	.L123:
 722:Libraries/uC-CSP/LPC17xx/lpc17xx_uart.c **** 		}
 723:Libraries/uC-CSP/LPC17xx/lpc17xx_uart.c **** 	}
 724:Libraries/uC-CSP/LPC17xx/lpc17xx_uart.c **** 	else
 725:Libraries/uC-CSP/LPC17xx/lpc17xx_uart.c **** 	{
 726:Libraries/uC-CSP/LPC17xx/lpc17xx_uart.c **** 		if ((LPC_UART1_TypeDef *) UARTx == LPC_UART1)
 1508              		.loc 1 726 0
 1509 0918 7A68     		ldr	r2, [r7, #4]
 1510 091a 4FF00003 		mov	r3, #0
 1511 091e C4F20103 		movt	r3, 16385
 1512 0922 9A42     		cmp	r2, r3
 1513 0924 0BD1     		bne	.L126
 727:Libraries/uC-CSP/LPC17xx/lpc17xx_uart.c **** 		{
 728:Libraries/uC-CSP/LPC17xx/lpc17xx_uart.c **** 			((LPC_UART1_TypeDef *)UARTx)->/*DLIER.*/IER &= (~tmp) & UART1_IER_BITMASK;
 1514              		.loc 1 728 0
 1515 0926 7B68     		ldr	r3, [r7, #4]
 1516 0928 5A68     		ldr	r2, [r3, #4]
 1517 092a FB68     		ldr	r3, [r7, #12]
 1518 092c 6FEA0303 		mvn	r3, r3
 1519 0930 1A40     		ands	r2, r2, r3
 1520 0932 40F28F33 		movw	r3, #911
 1521 0936 1340     		ands	r3, r3, r2
 1522 0938 7A68     		ldr	r2, [r7, #4]
 1523 093a 5360     		str	r3, [r2, #4]
 1524 093c 0AE0     		b	.L113
 1525              	.L126:
 729:Libraries/uC-CSP/LPC17xx/lpc17xx_uart.c **** 		}
 730:Libraries/uC-CSP/LPC17xx/lpc17xx_uart.c **** 		else
 731:Libraries/uC-CSP/LPC17xx/lpc17xx_uart.c **** 		{
 732:Libraries/uC-CSP/LPC17xx/lpc17xx_uart.c **** 			UARTx->/*DLIER.*/IER &= (~tmp) & UART_IER_BITMASK;
 1526              		.loc 1 732 0
 1527 093e 7B68     		ldr	r3, [r7, #4]
 1528 0940 5A68     		ldr	r2, [r3, #4]
 1529 0942 FB68     		ldr	r3, [r7, #12]
 1530 0944 6FEA0303 		mvn	r3, r3
 1531 0948 1A40     		ands	r2, r2, r3
 1532 094a 40F20733 		movw	r3, #775
 1533 094e 1340     		ands	r3, r3, r2
 1534 0950 7A68     		ldr	r2, [r7, #4]
 1535 0952 5360     		str	r3, [r2, #4]
 1536              	.L113:
 733:Libraries/uC-CSP/LPC17xx/lpc17xx_uart.c **** 		}
 734:Libraries/uC-CSP/LPC17xx/lpc17xx_uart.c **** 	}
 735:Libraries/uC-CSP/LPC17xx/lpc17xx_uart.c **** }
 1537              		.loc 1 735 0
 1538 0954 07F11407 		add	r7, r7, #20
 1539 0958 BD46     		mov	sp, r7
 1540 095a 80BC     		pop	{r7}
 1541 095c 7047     		bx	lr
 1542              		.cfi_endproc
 1543              	.LFE64:
 1545 095e 00BF     		.align	2
 1546              		.global	UART_GetLineStatus
 1547              		.thumb
 1548              		.thumb_func
 1550              	UART_GetLineStatus:
 1551              	.LFB65:
 736:Libraries/uC-CSP/LPC17xx/lpc17xx_uart.c **** 
 737:Libraries/uC-CSP/LPC17xx/lpc17xx_uart.c **** 
 738:Libraries/uC-CSP/LPC17xx/lpc17xx_uart.c **** /********************************************************************//**
 739:Libraries/uC-CSP/LPC17xx/lpc17xx_uart.c ****  * @brief 		Get current value of Line Status register in UART peripheral.
 740:Libraries/uC-CSP/LPC17xx/lpc17xx_uart.c ****  * @param[in]	UARTx	UART peripheral selected, should be:
 741:Libraries/uC-CSP/LPC17xx/lpc17xx_uart.c ****  *  			- LPC_UART0: UART0 peripheral
 742:Libraries/uC-CSP/LPC17xx/lpc17xx_uart.c ****  * 				- LPC_UART1: UART1 peripheral
 743:Libraries/uC-CSP/LPC17xx/lpc17xx_uart.c ****  * 				- LPC_UART2: UART2 peripheral
 744:Libraries/uC-CSP/LPC17xx/lpc17xx_uart.c ****  * 				- LPC_UART3: UART3 peripheral
 745:Libraries/uC-CSP/LPC17xx/lpc17xx_uart.c ****  * @return		Current value of Line Status register in UART peripheral.
 746:Libraries/uC-CSP/LPC17xx/lpc17xx_uart.c ****  * Note:	The return value of this function must be ANDed with each member in
 747:Libraries/uC-CSP/LPC17xx/lpc17xx_uart.c ****  * 			UART_LS_Type enumeration to determine current flag status
 748:Libraries/uC-CSP/LPC17xx/lpc17xx_uart.c ****  * 			corresponding to each Line status type. Because some flags in
 749:Libraries/uC-CSP/LPC17xx/lpc17xx_uart.c ****  * 			Line Status register will be cleared after reading, the next reading
 750:Libraries/uC-CSP/LPC17xx/lpc17xx_uart.c ****  * 			Line Status register could not be correct. So this function used to
 751:Libraries/uC-CSP/LPC17xx/lpc17xx_uart.c ****  * 			read Line status register in one time only, then the return value
 752:Libraries/uC-CSP/LPC17xx/lpc17xx_uart.c ****  * 			used to check all flags.
 753:Libraries/uC-CSP/LPC17xx/lpc17xx_uart.c ****  *********************************************************************/
 754:Libraries/uC-CSP/LPC17xx/lpc17xx_uart.c **** uint8_t UART_GetLineStatus(LPC_UART_TypeDef* UARTx)
 755:Libraries/uC-CSP/LPC17xx/lpc17xx_uart.c **** {
 1552              		.loc 1 755 0
 1553              		.cfi_startproc
 1554              		@ args = 0, pretend = 0, frame = 8
 1555              		@ frame_needed = 1, uses_anonymous_args = 0
 1556              		@ link register save eliminated.
 1557 0960 80B4     		push	{r7}
 1558              	.LCFI30:
 1559              		.cfi_def_cfa_offset 4
 1560              		.cfi_offset 7, -4
 1561 0962 83B0     		sub	sp, sp, #12
 1562              	.LCFI31:
 1563              		.cfi_def_cfa_offset 16
 1564 0964 00AF     		add	r7, sp, #0
 1565              	.LCFI32:
 1566              		.cfi_def_cfa_register 7
 1567 0966 7860     		str	r0, [r7, #4]
 756:Libraries/uC-CSP/LPC17xx/lpc17xx_uart.c **** 	//CHECK_PARAM(PARAM_UARTx(UARTx));
 757:Libraries/uC-CSP/LPC17xx/lpc17xx_uart.c **** 
 758:Libraries/uC-CSP/LPC17xx/lpc17xx_uart.c **** 	if (((LPC_UART1_TypeDef *)UARTx) == LPC_UART1)
 1568              		.loc 1 758 0
 1569 0968 7A68     		ldr	r2, [r7, #4]
 1570 096a 4FF00003 		mov	r3, #0
 1571 096e C4F20103 		movt	r3, 16385
 1572 0972 9A42     		cmp	r2, r3
 1573 0974 06D1     		bne	.L128
 759:Libraries/uC-CSP/LPC17xx/lpc17xx_uart.c **** 	{
 760:Libraries/uC-CSP/LPC17xx/lpc17xx_uart.c **** 		return ((((LPC_UART1_TypeDef *)LPC_UART1)->LSR) & UART_LSR_BITMASK);
 1574              		.loc 1 760 0
 1575 0976 4FF00003 		mov	r3, #0
 1576 097a C4F20103 		movt	r3, 16385
 1577 097e 1B7D     		ldrb	r3, [r3, #20]
 1578 0980 DBB2     		uxtb	r3, r3
 1579 0982 02E0     		b	.L129
 1580              	.L128:
 761:Libraries/uC-CSP/LPC17xx/lpc17xx_uart.c **** 	}
 762:Libraries/uC-CSP/LPC17xx/lpc17xx_uart.c **** 	else
 763:Libraries/uC-CSP/LPC17xx/lpc17xx_uart.c **** 	{
 764:Libraries/uC-CSP/LPC17xx/lpc17xx_uart.c **** 		return ((UARTx->LSR) & UART_LSR_BITMASK);
 1581              		.loc 1 764 0
 1582 0984 7B68     		ldr	r3, [r7, #4]
 1583 0986 1B7D     		ldrb	r3, [r3, #20]
 1584 0988 DBB2     		uxtb	r3, r3
 1585              	.L129:
 765:Libraries/uC-CSP/LPC17xx/lpc17xx_uart.c **** 	}
 766:Libraries/uC-CSP/LPC17xx/lpc17xx_uart.c **** }
 1586              		.loc 1 766 0
 1587 098a 1846     		mov	r0, r3
 1588 098c 07F10C07 		add	r7, r7, #12
 1589 0990 BD46     		mov	sp, r7
 1590 0992 80BC     		pop	{r7}
 1591 0994 7047     		bx	lr
 1592              		.cfi_endproc
 1593              	.LFE65:
 1595 0996 00BF     		.align	2
 1596              		.global	UART_GetIntId
 1597              		.thumb
 1598              		.thumb_func
 1600              	UART_GetIntId:
 1601              	.LFB66:
 767:Libraries/uC-CSP/LPC17xx/lpc17xx_uart.c **** 
 768:Libraries/uC-CSP/LPC17xx/lpc17xx_uart.c **** /********************************************************************//**
 769:Libraries/uC-CSP/LPC17xx/lpc17xx_uart.c ****  * @brief 		Get Interrupt Identification value
 770:Libraries/uC-CSP/LPC17xx/lpc17xx_uart.c ****  * @param[in]	UARTx	UART peripheral selected, should be:
 771:Libraries/uC-CSP/LPC17xx/lpc17xx_uart.c ****  *  			- LPC_UART0: UART0 peripheral
 772:Libraries/uC-CSP/LPC17xx/lpc17xx_uart.c ****  * 				- LPC_UART1: UART1 peripheral
 773:Libraries/uC-CSP/LPC17xx/lpc17xx_uart.c ****  * 				- LPC_UART2: UART2 peripheral
 774:Libraries/uC-CSP/LPC17xx/lpc17xx_uart.c ****  * 				- LPC_UART3: UART3 peripheral
 775:Libraries/uC-CSP/LPC17xx/lpc17xx_uart.c ****  * @return		Current value of UART UIIR register in UART peripheral.
 776:Libraries/uC-CSP/LPC17xx/lpc17xx_uart.c ****  *********************************************************************/
 777:Libraries/uC-CSP/LPC17xx/lpc17xx_uart.c **** uint32_t UART_GetIntId(LPC_UART_TypeDef* UARTx)
 778:Libraries/uC-CSP/LPC17xx/lpc17xx_uart.c **** {
 1602              		.loc 1 778 0
 1603              		.cfi_startproc
 1604              		@ args = 0, pretend = 0, frame = 8
 1605              		@ frame_needed = 1, uses_anonymous_args = 0
 1606              		@ link register save eliminated.
 1607 0998 80B4     		push	{r7}
 1608              	.LCFI33:
 1609              		.cfi_def_cfa_offset 4
 1610              		.cfi_offset 7, -4
 1611 099a 83B0     		sub	sp, sp, #12
 1612              	.LCFI34:
 1613              		.cfi_def_cfa_offset 16
 1614 099c 00AF     		add	r7, sp, #0
 1615              	.LCFI35:
 1616              		.cfi_def_cfa_register 7
 1617 099e 7860     		str	r0, [r7, #4]
 779:Libraries/uC-CSP/LPC17xx/lpc17xx_uart.c **** 	//CHECK_PARAM(PARAM_UARTx(UARTx));
 780:Libraries/uC-CSP/LPC17xx/lpc17xx_uart.c **** 	return (UARTx->IIR & 0x03CF);
 1618              		.loc 1 780 0
 1619 09a0 7B68     		ldr	r3, [r7, #4]
 1620 09a2 9A68     		ldr	r2, [r3, #8]
 1621 09a4 40F2CF33 		movw	r3, #975
 1622 09a8 1340     		ands	r3, r3, r2
 781:Libraries/uC-CSP/LPC17xx/lpc17xx_uart.c **** }
 1623              		.loc 1 781 0
 1624 09aa 1846     		mov	r0, r3
 1625 09ac 07F10C07 		add	r7, r7, #12
 1626 09b0 BD46     		mov	sp, r7
 1627 09b2 80BC     		pop	{r7}
 1628 09b4 7047     		bx	lr
 1629              		.cfi_endproc
 1630              	.LFE66:
 1632 09b6 00BF     		.align	2
 1633              		.global	UART_CheckBusy
 1634              		.thumb
 1635              		.thumb_func
 1637              	UART_CheckBusy:
 1638              	.LFB67:
 782:Libraries/uC-CSP/LPC17xx/lpc17xx_uart.c **** 
 783:Libraries/uC-CSP/LPC17xx/lpc17xx_uart.c **** /*********************************************************************//**
 784:Libraries/uC-CSP/LPC17xx/lpc17xx_uart.c ****  * @brief		Check whether if UART is busy or not
 785:Libraries/uC-CSP/LPC17xx/lpc17xx_uart.c ****  * @param[in]	UARTx	UART peripheral selected, should be:
 786:Libraries/uC-CSP/LPC17xx/lpc17xx_uart.c ****  *  			- LPC_UART0: UART0 peripheral
 787:Libraries/uC-CSP/LPC17xx/lpc17xx_uart.c ****  * 				- LPC_UART1: UART1 peripheral
 788:Libraries/uC-CSP/LPC17xx/lpc17xx_uart.c ****  * 				- LPC_UART2: UART2 peripheral
 789:Libraries/uC-CSP/LPC17xx/lpc17xx_uart.c ****  * 				- LPC_UART3: UART3 peripheral
 790:Libraries/uC-CSP/LPC17xx/lpc17xx_uart.c ****  * @return		RESET if UART is not busy, otherwise return SET.
 791:Libraries/uC-CSP/LPC17xx/lpc17xx_uart.c ****  **********************************************************************/
 792:Libraries/uC-CSP/LPC17xx/lpc17xx_uart.c **** FlagStatus UART_CheckBusy(LPC_UART_TypeDef *UARTx)
 793:Libraries/uC-CSP/LPC17xx/lpc17xx_uart.c **** {
 1639              		.loc 1 793 0
 1640              		.cfi_startproc
 1641              		@ args = 0, pretend = 0, frame = 8
 1642              		@ frame_needed = 1, uses_anonymous_args = 0
 1643              		@ link register save eliminated.
 1644 09b8 80B4     		push	{r7}
 1645              	.LCFI36:
 1646              		.cfi_def_cfa_offset 4
 1647              		.cfi_offset 7, -4
 1648 09ba 83B0     		sub	sp, sp, #12
 1649              	.LCFI37:
 1650              		.cfi_def_cfa_offset 16
 1651 09bc 00AF     		add	r7, sp, #0
 1652              	.LCFI38:
 1653              		.cfi_def_cfa_register 7
 1654 09be 7860     		str	r0, [r7, #4]
 794:Libraries/uC-CSP/LPC17xx/lpc17xx_uart.c **** 	if (UARTx->LSR & UART_LSR_TEMT){
 1655              		.loc 1 794 0
 1656 09c0 7B68     		ldr	r3, [r7, #4]
 1657 09c2 1B7D     		ldrb	r3, [r3, #20]
 1658 09c4 DBB2     		uxtb	r3, r3
 1659 09c6 03F04003 		and	r3, r3, #64
 1660 09ca 002B     		cmp	r3, #0
 1661 09cc 02D0     		beq	.L132
 795:Libraries/uC-CSP/LPC17xx/lpc17xx_uart.c **** 		return RESET;
 1662              		.loc 1 795 0
 1663 09ce 4FF00003 		mov	r3, #0
 1664 09d2 01E0     		b	.L133
 1665              	.L132:
 796:Libraries/uC-CSP/LPC17xx/lpc17xx_uart.c **** 	} else {
 797:Libraries/uC-CSP/LPC17xx/lpc17xx_uart.c **** 		return SET;
 1666              		.loc 1 797 0
 1667 09d4 4FF00103 		mov	r3, #1
 1668              	.L133:
 798:Libraries/uC-CSP/LPC17xx/lpc17xx_uart.c **** 	}
 799:Libraries/uC-CSP/LPC17xx/lpc17xx_uart.c **** }
 1669              		.loc 1 799 0
 1670 09d8 1846     		mov	r0, r3
 1671 09da 07F10C07 		add	r7, r7, #12
 1672 09de BD46     		mov	sp, r7
 1673 09e0 80BC     		pop	{r7}
 1674 09e2 7047     		bx	lr
 1675              		.cfi_endproc
 1676              	.LFE67:
 1678              		.align	2
 1679              		.global	UART_FIFOConfig
 1680              		.thumb
 1681              		.thumb_func
 1683              	UART_FIFOConfig:
 1684              	.LFB68:
 800:Libraries/uC-CSP/LPC17xx/lpc17xx_uart.c **** 
 801:Libraries/uC-CSP/LPC17xx/lpc17xx_uart.c **** 
 802:Libraries/uC-CSP/LPC17xx/lpc17xx_uart.c **** /*********************************************************************//**
 803:Libraries/uC-CSP/LPC17xx/lpc17xx_uart.c ****  * @brief		Configure FIFO function on selected UART peripheral
 804:Libraries/uC-CSP/LPC17xx/lpc17xx_uart.c ****  * @param[in]	UARTx	UART peripheral selected, should be:
 805:Libraries/uC-CSP/LPC17xx/lpc17xx_uart.c ****  *  			- LPC_UART0: UART0 peripheral
 806:Libraries/uC-CSP/LPC17xx/lpc17xx_uart.c ****  * 				- LPC_UART1: UART1 peripheral
 807:Libraries/uC-CSP/LPC17xx/lpc17xx_uart.c ****  * 				- LPC_UART2: UART2 peripheral
 808:Libraries/uC-CSP/LPC17xx/lpc17xx_uart.c ****  * 				- LPC_UART3: UART3 peripheral
 809:Libraries/uC-CSP/LPC17xx/lpc17xx_uart.c ****  * @param[in]	FIFOCfg	Pointer to a UART_FIFO_CFG_Type Structure that
 810:Libraries/uC-CSP/LPC17xx/lpc17xx_uart.c ****  * 						contains specified information about FIFO configuration
 811:Libraries/uC-CSP/LPC17xx/lpc17xx_uart.c ****  * @return 		none
 812:Libraries/uC-CSP/LPC17xx/lpc17xx_uart.c ****  **********************************************************************/
 813:Libraries/uC-CSP/LPC17xx/lpc17xx_uart.c **** void UART_FIFOConfig(LPC_UART_TypeDef *UARTx, UART_FIFO_CFG_Type *FIFOCfg)
 814:Libraries/uC-CSP/LPC17xx/lpc17xx_uart.c **** {
 1685              		.loc 1 814 0
 1686              		.cfi_startproc
 1687              		@ args = 0, pretend = 0, frame = 16
 1688              		@ frame_needed = 1, uses_anonymous_args = 0
 1689              		@ link register save eliminated.
 1690 09e4 80B4     		push	{r7}
 1691              	.LCFI39:
 1692              		.cfi_def_cfa_offset 4
 1693              		.cfi_offset 7, -4
 1694 09e6 85B0     		sub	sp, sp, #20
 1695              	.LCFI40:
 1696              		.cfi_def_cfa_offset 24
 1697 09e8 00AF     		add	r7, sp, #0
 1698              	.LCFI41:
 1699              		.cfi_def_cfa_register 7
 1700 09ea 7860     		str	r0, [r7, #4]
 1701 09ec 3960     		str	r1, [r7, #0]
 815:Libraries/uC-CSP/LPC17xx/lpc17xx_uart.c **** 	uint8_t tmp = 0;
 1702              		.loc 1 815 0
 1703 09ee 4FF00003 		mov	r3, #0
 1704 09f2 FB73     		strb	r3, [r7, #15]
 816:Libraries/uC-CSP/LPC17xx/lpc17xx_uart.c **** 
 817:Libraries/uC-CSP/LPC17xx/lpc17xx_uart.c **** 	//CHECK_PARAM(PARAM_UARTx(UARTx));
 818:Libraries/uC-CSP/LPC17xx/lpc17xx_uart.c **** 	//CHECK_PARAM(PARAM_UART_FIFO_LEVEL(FIFOCfg->FIFO_Level));
 819:Libraries/uC-CSP/LPC17xx/lpc17xx_uart.c **** 	//CHECK_PARAM(PARAM_FUNCTIONALSTATE(FIFOCfg->FIFO_DMAMode));
 820:Libraries/uC-CSP/LPC17xx/lpc17xx_uart.c **** 	//CHECK_PARAM(PARAM_FUNCTIONALSTATE(FIFOCfg->FIFO_ResetRxBuf));
 821:Libraries/uC-CSP/LPC17xx/lpc17xx_uart.c **** 	//CHECK_PARAM(PARAM_FUNCTIONALSTATE(FIFOCfg->FIFO_ResetTxBuf));
 822:Libraries/uC-CSP/LPC17xx/lpc17xx_uart.c **** 
 823:Libraries/uC-CSP/LPC17xx/lpc17xx_uart.c **** 	tmp |= UART_FCR_FIFO_EN;
 1705              		.loc 1 823 0
 1706 09f4 FB7B     		ldrb	r3, [r7, #15]
 1707 09f6 43F00103 		orr	r3, r3, #1
 1708 09fa FB73     		strb	r3, [r7, #15]
 824:Libraries/uC-CSP/LPC17xx/lpc17xx_uart.c **** 	switch (FIFOCfg->FIFO_Level){
 1709              		.loc 1 824 0
 1710 09fc 3B68     		ldr	r3, [r7, #0]
 1711 09fe DB78     		ldrb	r3, [r3, #3]	@ zero_extendqisi2
 1712 0a00 012B     		cmp	r3, #1
 1713 0a02 04D0     		beq	.L137
 1714 0a04 022B     		cmp	r3, #2
 1715 0a06 07D0     		beq	.L138
 1716 0a08 002B     		cmp	r3, #0
 1717 0a0a 0FD0     		beq	.L146
 1718 0a0c 09E0     		b	.L145
 1719              	.L137:
 825:Libraries/uC-CSP/LPC17xx/lpc17xx_uart.c **** 	case UART_FIFO_TRGLEV0:
 826:Libraries/uC-CSP/LPC17xx/lpc17xx_uart.c **** 		tmp |= UART_FCR_TRG_LEV0;
 827:Libraries/uC-CSP/LPC17xx/lpc17xx_uart.c **** 		break;
 828:Libraries/uC-CSP/LPC17xx/lpc17xx_uart.c **** 	case UART_FIFO_TRGLEV1:
 829:Libraries/uC-CSP/LPC17xx/lpc17xx_uart.c **** 		tmp |= UART_FCR_TRG_LEV1;
 1720              		.loc 1 829 0
 1721 0a0e FB7B     		ldrb	r3, [r7, #15]
 1722 0a10 43F04003 		orr	r3, r3, #64
 1723 0a14 FB73     		strb	r3, [r7, #15]
 830:Libraries/uC-CSP/LPC17xx/lpc17xx_uart.c **** 		break;
 1724              		.loc 1 830 0
 1725 0a16 0AE0     		b	.L139
 1726              	.L138:
 831:Libraries/uC-CSP/LPC17xx/lpc17xx_uart.c **** 	case UART_FIFO_TRGLEV2:
 832:Libraries/uC-CSP/LPC17xx/lpc17xx_uart.c **** 		tmp |= UART_FCR_TRG_LEV2;
 1727              		.loc 1 832 0
 1728 0a18 FB7B     		ldrb	r3, [r7, #15]
 1729 0a1a 63F07F03 		orn	r3, r3, #127
 1730 0a1e FB73     		strb	r3, [r7, #15]
 833:Libraries/uC-CSP/LPC17xx/lpc17xx_uart.c **** 		break;
 1731              		.loc 1 833 0
 1732 0a20 05E0     		b	.L139
 1733              	.L145:
 834:Libraries/uC-CSP/LPC17xx/lpc17xx_uart.c **** 	case UART_FIFO_TRGLEV3:
 835:Libraries/uC-CSP/LPC17xx/lpc17xx_uart.c **** 	default:
 836:Libraries/uC-CSP/LPC17xx/lpc17xx_uart.c **** 		tmp |= UART_FCR_TRG_LEV3;
 1734              		.loc 1 836 0
 1735 0a22 FB7B     		ldrb	r3, [r7, #15]
 1736 0a24 63F03F03 		orn	r3, r3, #63
 1737 0a28 FB73     		strb	r3, [r7, #15]
 837:Libraries/uC-CSP/LPC17xx/lpc17xx_uart.c **** 		break;
 1738              		.loc 1 837 0
 1739 0a2a 00E0     		b	.L139
 1740              	.L146:
 827:Libraries/uC-CSP/LPC17xx/lpc17xx_uart.c **** 		break;
 1741              		.loc 1 827 0
 1742 0a2c 00BF     		nop
 1743              	.L139:
 838:Libraries/uC-CSP/LPC17xx/lpc17xx_uart.c **** 	}
 839:Libraries/uC-CSP/LPC17xx/lpc17xx_uart.c **** 
 840:Libraries/uC-CSP/LPC17xx/lpc17xx_uart.c **** 	if (FIFOCfg->FIFO_ResetTxBuf == ENABLE)
 1744              		.loc 1 840 0
 1745 0a2e 3B68     		ldr	r3, [r7, #0]
 1746 0a30 5B78     		ldrb	r3, [r3, #1]	@ zero_extendqisi2
 1747 0a32 012B     		cmp	r3, #1
 1748 0a34 03D1     		bne	.L140
 841:Libraries/uC-CSP/LPC17xx/lpc17xx_uart.c **** 	{
 842:Libraries/uC-CSP/LPC17xx/lpc17xx_uart.c **** 		tmp |= UART_FCR_TX_RS;
 1749              		.loc 1 842 0
 1750 0a36 FB7B     		ldrb	r3, [r7, #15]
 1751 0a38 43F00403 		orr	r3, r3, #4
 1752 0a3c FB73     		strb	r3, [r7, #15]
 1753              	.L140:
 843:Libraries/uC-CSP/LPC17xx/lpc17xx_uart.c **** 	}
 844:Libraries/uC-CSP/LPC17xx/lpc17xx_uart.c **** 	if (FIFOCfg->FIFO_ResetRxBuf == ENABLE)
 1754              		.loc 1 844 0
 1755 0a3e 3B68     		ldr	r3, [r7, #0]
 1756 0a40 1B78     		ldrb	r3, [r3, #0]	@ zero_extendqisi2
 1757 0a42 012B     		cmp	r3, #1
 1758 0a44 03D1     		bne	.L141
 845:Libraries/uC-CSP/LPC17xx/lpc17xx_uart.c **** 	{
 846:Libraries/uC-CSP/LPC17xx/lpc17xx_uart.c **** 		tmp |= UART_FCR_RX_RS;
 1759              		.loc 1 846 0
 1760 0a46 FB7B     		ldrb	r3, [r7, #15]
 1761 0a48 43F00203 		orr	r3, r3, #2
 1762 0a4c FB73     		strb	r3, [r7, #15]
 1763              	.L141:
 847:Libraries/uC-CSP/LPC17xx/lpc17xx_uart.c **** 	}
 848:Libraries/uC-CSP/LPC17xx/lpc17xx_uart.c **** 	if (FIFOCfg->FIFO_DMAMode == ENABLE)
 1764              		.loc 1 848 0
 1765 0a4e 3B68     		ldr	r3, [r7, #0]
 1766 0a50 9B78     		ldrb	r3, [r3, #2]	@ zero_extendqisi2
 1767 0a52 012B     		cmp	r3, #1
 1768 0a54 03D1     		bne	.L142
 849:Libraries/uC-CSP/LPC17xx/lpc17xx_uart.c **** 	{
 850:Libraries/uC-CSP/LPC17xx/lpc17xx_uart.c **** 		tmp |= UART_FCR_DMAMODE_SEL;
 1769              		.loc 1 850 0
 1770 0a56 FB7B     		ldrb	r3, [r7, #15]
 1771 0a58 43F00803 		orr	r3, r3, #8
 1772 0a5c FB73     		strb	r3, [r7, #15]
 1773              	.L142:
 851:Libraries/uC-CSP/LPC17xx/lpc17xx_uart.c **** 	}
 852:Libraries/uC-CSP/LPC17xx/lpc17xx_uart.c **** 
 853:Libraries/uC-CSP/LPC17xx/lpc17xx_uart.c **** 
 854:Libraries/uC-CSP/LPC17xx/lpc17xx_uart.c **** 	//write to FIFO control register
 855:Libraries/uC-CSP/LPC17xx/lpc17xx_uart.c **** 	if (((LPC_UART1_TypeDef *)UARTx) == LPC_UART1)
 1774              		.loc 1 855 0
 1775 0a5e 7A68     		ldr	r2, [r7, #4]
 1776 0a60 4FF00003 		mov	r3, #0
 1777 0a64 C4F20103 		movt	r3, 16385
 1778 0a68 9A42     		cmp	r2, r3
 1779 0a6a 06D1     		bne	.L143
 856:Libraries/uC-CSP/LPC17xx/lpc17xx_uart.c **** 	{
 857:Libraries/uC-CSP/LPC17xx/lpc17xx_uart.c **** 		((LPC_UART1_TypeDef *)UARTx)->/*IIFCR.*/FCR = tmp & UART_FCR_BITMASK;
 1780              		.loc 1 857 0
 1781 0a6c FB7B     		ldrb	r3, [r7, #15]
 1782 0a6e 23F03003 		bic	r3, r3, #48
 1783 0a72 DAB2     		uxtb	r2, r3
 1784 0a74 7B68     		ldr	r3, [r7, #4]
 1785 0a76 1A72     		strb	r2, [r3, #8]
 1786 0a78 05E0     		b	.L134
 1787              	.L143:
 858:Libraries/uC-CSP/LPC17xx/lpc17xx_uart.c **** 	}
 859:Libraries/uC-CSP/LPC17xx/lpc17xx_uart.c **** 	else
 860:Libraries/uC-CSP/LPC17xx/lpc17xx_uart.c **** 	{
 861:Libraries/uC-CSP/LPC17xx/lpc17xx_uart.c **** 		UARTx->/*IIFCR.*/FCR = tmp & UART_FCR_BITMASK;
 1788              		.loc 1 861 0
 1789 0a7a FB7B     		ldrb	r3, [r7, #15]
 1790 0a7c 23F03003 		bic	r3, r3, #48
 1791 0a80 DAB2     		uxtb	r2, r3
 1792 0a82 7B68     		ldr	r3, [r7, #4]
 1793 0a84 1A72     		strb	r2, [r3, #8]
 1794              	.L134:
 862:Libraries/uC-CSP/LPC17xx/lpc17xx_uart.c **** 	}
 863:Libraries/uC-CSP/LPC17xx/lpc17xx_uart.c **** }
 1795              		.loc 1 863 0
 1796 0a86 07F11407 		add	r7, r7, #20
 1797 0a8a BD46     		mov	sp, r7
 1798 0a8c 80BC     		pop	{r7}
 1799 0a8e 7047     		bx	lr
 1800              		.cfi_endproc
 1801              	.LFE68:
 1803              		.align	2
 1804              		.global	UART_FIFOConfigStructInit
 1805              		.thumb
 1806              		.thumb_func
 1808              	UART_FIFOConfigStructInit:
 1809              	.LFB69:
 864:Libraries/uC-CSP/LPC17xx/lpc17xx_uart.c **** 
 865:Libraries/uC-CSP/LPC17xx/lpc17xx_uart.c **** /*****************************************************************************//**
 866:Libraries/uC-CSP/LPC17xx/lpc17xx_uart.c **** * @brief		Fills each UART_FIFOInitStruct member with its default value:
 867:Libraries/uC-CSP/LPC17xx/lpc17xx_uart.c **** * 				- FIFO_DMAMode = DISABLE
 868:Libraries/uC-CSP/LPC17xx/lpc17xx_uart.c **** * 				- FIFO_Level = UART_FIFO_TRGLEV0
 869:Libraries/uC-CSP/LPC17xx/lpc17xx_uart.c **** * 				- FIFO_ResetRxBuf = ENABLE
 870:Libraries/uC-CSP/LPC17xx/lpc17xx_uart.c **** * 				- FIFO_ResetTxBuf = ENABLE
 871:Libraries/uC-CSP/LPC17xx/lpc17xx_uart.c **** * 				- FIFO_State = ENABLE
 872:Libraries/uC-CSP/LPC17xx/lpc17xx_uart.c **** 
 873:Libraries/uC-CSP/LPC17xx/lpc17xx_uart.c **** * @param[in]	UART_FIFOInitStruct Pointer to a UART_FIFO_CFG_Type structure
 874:Libraries/uC-CSP/LPC17xx/lpc17xx_uart.c **** *                    which will be initialized.
 875:Libraries/uC-CSP/LPC17xx/lpc17xx_uart.c **** * @return		None
 876:Libraries/uC-CSP/LPC17xx/lpc17xx_uart.c **** *******************************************************************************/
 877:Libraries/uC-CSP/LPC17xx/lpc17xx_uart.c **** void UART_FIFOConfigStructInit(UART_FIFO_CFG_Type *UART_FIFOInitStruct)
 878:Libraries/uC-CSP/LPC17xx/lpc17xx_uart.c **** {
 1810              		.loc 1 878 0
 1811              		.cfi_startproc
 1812              		@ args = 0, pretend = 0, frame = 8
 1813              		@ frame_needed = 1, uses_anonymous_args = 0
 1814              		@ link register save eliminated.
 1815 0a90 80B4     		push	{r7}
 1816              	.LCFI42:
 1817              		.cfi_def_cfa_offset 4
 1818              		.cfi_offset 7, -4
 1819 0a92 83B0     		sub	sp, sp, #12
 1820              	.LCFI43:
 1821              		.cfi_def_cfa_offset 16
 1822 0a94 00AF     		add	r7, sp, #0
 1823              	.LCFI44:
 1824              		.cfi_def_cfa_register 7
 1825 0a96 7860     		str	r0, [r7, #4]
 879:Libraries/uC-CSP/LPC17xx/lpc17xx_uart.c **** 	UART_FIFOInitStruct->FIFO_DMAMode = DISABLE;
 1826              		.loc 1 879 0
 1827 0a98 7B68     		ldr	r3, [r7, #4]
 1828 0a9a 4FF00002 		mov	r2, #0
 1829 0a9e 9A70     		strb	r2, [r3, #2]
 880:Libraries/uC-CSP/LPC17xx/lpc17xx_uart.c **** 	UART_FIFOInitStruct->FIFO_Level = UART_FIFO_TRGLEV0;
 1830              		.loc 1 880 0
 1831 0aa0 7B68     		ldr	r3, [r7, #4]
 1832 0aa2 4FF00002 		mov	r2, #0
 1833 0aa6 DA70     		strb	r2, [r3, #3]
 881:Libraries/uC-CSP/LPC17xx/lpc17xx_uart.c **** 	UART_FIFOInitStruct->FIFO_ResetRxBuf = ENABLE;
 1834              		.loc 1 881 0
 1835 0aa8 7B68     		ldr	r3, [r7, #4]
 1836 0aaa 4FF00102 		mov	r2, #1
 1837 0aae 1A70     		strb	r2, [r3, #0]
 882:Libraries/uC-CSP/LPC17xx/lpc17xx_uart.c **** 	UART_FIFOInitStruct->FIFO_ResetTxBuf = ENABLE;
 1838              		.loc 1 882 0
 1839 0ab0 7B68     		ldr	r3, [r7, #4]
 1840 0ab2 4FF00102 		mov	r2, #1
 1841 0ab6 5A70     		strb	r2, [r3, #1]
 883:Libraries/uC-CSP/LPC17xx/lpc17xx_uart.c **** }
 1842              		.loc 1 883 0
 1843 0ab8 07F10C07 		add	r7, r7, #12
 1844 0abc BD46     		mov	sp, r7
 1845 0abe 80BC     		pop	{r7}
 1846 0ac0 7047     		bx	lr
 1847              		.cfi_endproc
 1848              	.LFE69:
 1850 0ac2 00BF     		.align	2
 1851              		.global	UART_ABCmd
 1852              		.thumb
 1853              		.thumb_func
 1855              	UART_ABCmd:
 1856              	.LFB70:
 884:Libraries/uC-CSP/LPC17xx/lpc17xx_uart.c **** 
 885:Libraries/uC-CSP/LPC17xx/lpc17xx_uart.c **** 
 886:Libraries/uC-CSP/LPC17xx/lpc17xx_uart.c **** /*********************************************************************//**
 887:Libraries/uC-CSP/LPC17xx/lpc17xx_uart.c ****  * @brief		Start/Stop Auto Baudrate activity
 888:Libraries/uC-CSP/LPC17xx/lpc17xx_uart.c ****  * @param[in]	UARTx	UART peripheral selected, should be
 889:Libraries/uC-CSP/LPC17xx/lpc17xx_uart.c ****  *   			- LPC_UART0: UART0 peripheral
 890:Libraries/uC-CSP/LPC17xx/lpc17xx_uart.c ****  * 				- LPC_UART1: UART1 peripheral
 891:Libraries/uC-CSP/LPC17xx/lpc17xx_uart.c ****  * 				- LPC_UART2: UART2 peripheral
 892:Libraries/uC-CSP/LPC17xx/lpc17xx_uart.c ****  * 				- LPC_UART3: UART3 peripheral
 893:Libraries/uC-CSP/LPC17xx/lpc17xx_uart.c ****  * @param[in]	ABConfigStruct	A pointer to UART_AB_CFG_Type structure that
 894:Libraries/uC-CSP/LPC17xx/lpc17xx_uart.c ****  * 								contains specified information about UART
 895:Libraries/uC-CSP/LPC17xx/lpc17xx_uart.c ****  * 								auto baudrate configuration
 896:Libraries/uC-CSP/LPC17xx/lpc17xx_uart.c ****  * @param[in]	NewState New State of Auto baudrate activity, should be:
 897:Libraries/uC-CSP/LPC17xx/lpc17xx_uart.c ****  * 				- ENABLE: Start this activity
 898:Libraries/uC-CSP/LPC17xx/lpc17xx_uart.c ****  *				- DISABLE: Stop this activity
 899:Libraries/uC-CSP/LPC17xx/lpc17xx_uart.c ****  * Note:		Auto-baudrate mode enable bit will be cleared once this mode
 900:Libraries/uC-CSP/LPC17xx/lpc17xx_uart.c ****  * 				completed.
 901:Libraries/uC-CSP/LPC17xx/lpc17xx_uart.c ****  * @return 		none
 902:Libraries/uC-CSP/LPC17xx/lpc17xx_uart.c ****  **********************************************************************/
 903:Libraries/uC-CSP/LPC17xx/lpc17xx_uart.c **** void UART_ABCmd(LPC_UART_TypeDef *UARTx, UART_AB_CFG_Type *ABConfigStruct, \
 904:Libraries/uC-CSP/LPC17xx/lpc17xx_uart.c **** 				FunctionalState NewState)
 905:Libraries/uC-CSP/LPC17xx/lpc17xx_uart.c **** {
 1857              		.loc 1 905 0
 1858              		.cfi_startproc
 1859              		@ args = 0, pretend = 0, frame = 24
 1860              		@ frame_needed = 1, uses_anonymous_args = 0
 1861              		@ link register save eliminated.
 1862 0ac4 80B4     		push	{r7}
 1863              	.LCFI45:
 1864              		.cfi_def_cfa_offset 4
 1865              		.cfi_offset 7, -4
 1866 0ac6 87B0     		sub	sp, sp, #28
 1867              	.LCFI46:
 1868              		.cfi_def_cfa_offset 32
 1869 0ac8 00AF     		add	r7, sp, #0
 1870              	.LCFI47:
 1871              		.cfi_def_cfa_register 7
 1872 0aca F860     		str	r0, [r7, #12]
 1873 0acc B960     		str	r1, [r7, #8]
 1874 0ace 1346     		mov	r3, r2
 1875 0ad0 FB71     		strb	r3, [r7, #7]
 906:Libraries/uC-CSP/LPC17xx/lpc17xx_uart.c **** 	uint32_t tmp;
 907:Libraries/uC-CSP/LPC17xx/lpc17xx_uart.c **** 
 908:Libraries/uC-CSP/LPC17xx/lpc17xx_uart.c **** 	//CHECK_PARAM(PARAM_UARTx(UARTx));
 909:Libraries/uC-CSP/LPC17xx/lpc17xx_uart.c **** 	//CHECK_PARAM(PARAM_FUNCTIONALSTATE(NewState));
 910:Libraries/uC-CSP/LPC17xx/lpc17xx_uart.c **** 
 911:Libraries/uC-CSP/LPC17xx/lpc17xx_uart.c **** 	tmp = 0;
 1876              		.loc 1 911 0
 1877 0ad2 4FF00003 		mov	r3, #0
 1878 0ad6 7B61     		str	r3, [r7, #20]
 912:Libraries/uC-CSP/LPC17xx/lpc17xx_uart.c **** 	if (NewState == ENABLE) {
 1879              		.loc 1 912 0
 1880 0ad8 FB79     		ldrb	r3, [r7, #7]	@ zero_extendqisi2
 1881 0ada 012B     		cmp	r3, #1
 1882 0adc 0FD1     		bne	.L149
 913:Libraries/uC-CSP/LPC17xx/lpc17xx_uart.c **** 		if (ABConfigStruct->ABMode == UART_AUTOBAUD_MODE1){
 1883              		.loc 1 913 0
 1884 0ade BB68     		ldr	r3, [r7, #8]
 1885 0ae0 1B78     		ldrb	r3, [r3, #0]	@ zero_extendqisi2
 1886 0ae2 012B     		cmp	r3, #1
 1887 0ae4 03D1     		bne	.L150
 914:Libraries/uC-CSP/LPC17xx/lpc17xx_uart.c **** 			tmp |= UART_ACR_MODE;
 1888              		.loc 1 914 0
 1889 0ae6 7B69     		ldr	r3, [r7, #20]
 1890 0ae8 43F00203 		orr	r3, r3, #2
 1891 0aec 7B61     		str	r3, [r7, #20]
 1892              	.L150:
 915:Libraries/uC-CSP/LPC17xx/lpc17xx_uart.c **** 		}
 916:Libraries/uC-CSP/LPC17xx/lpc17xx_uart.c **** 		if (ABConfigStruct->AutoRestart == ENABLE){
 1893              		.loc 1 916 0
 1894 0aee BB68     		ldr	r3, [r7, #8]
 1895 0af0 5B78     		ldrb	r3, [r3, #1]	@ zero_extendqisi2
 1896 0af2 012B     		cmp	r3, #1
 1897 0af4 03D1     		bne	.L149
 917:Libraries/uC-CSP/LPC17xx/lpc17xx_uart.c **** 			tmp |= UART_ACR_AUTO_RESTART;
 1898              		.loc 1 917 0
 1899 0af6 7B69     		ldr	r3, [r7, #20]
 1900 0af8 43F00403 		orr	r3, r3, #4
 1901 0afc 7B61     		str	r3, [r7, #20]
 1902              	.L149:
 918:Libraries/uC-CSP/LPC17xx/lpc17xx_uart.c **** 		}
 919:Libraries/uC-CSP/LPC17xx/lpc17xx_uart.c **** 	}
 920:Libraries/uC-CSP/LPC17xx/lpc17xx_uart.c **** 
 921:Libraries/uC-CSP/LPC17xx/lpc17xx_uart.c **** 	if (((LPC_UART1_TypeDef *)UARTx) == LPC_UART1)
 1903              		.loc 1 921 0
 1904 0afe FA68     		ldr	r2, [r7, #12]
 1905 0b00 4FF00003 		mov	r3, #0
 1906 0b04 C4F20103 		movt	r3, 16385
 1907 0b08 9A42     		cmp	r2, r3
 1908 0b0a 29D1     		bne	.L151
 922:Libraries/uC-CSP/LPC17xx/lpc17xx_uart.c **** 	{
 923:Libraries/uC-CSP/LPC17xx/lpc17xx_uart.c **** 		if (NewState == ENABLE)
 1909              		.loc 1 923 0
 1910 0b0c FB79     		ldrb	r3, [r7, #7]	@ zero_extendqisi2
 1911 0b0e 012B     		cmp	r3, #1
 1912 0b10 21D1     		bne	.L152
 924:Libraries/uC-CSP/LPC17xx/lpc17xx_uart.c **** 		{
 925:Libraries/uC-CSP/LPC17xx/lpc17xx_uart.c **** 			// Clear DLL and DLM value
 926:Libraries/uC-CSP/LPC17xx/lpc17xx_uart.c **** 			((LPC_UART1_TypeDef *)UARTx)->LCR |= UART_LCR_DLAB_EN;
 1913              		.loc 1 926 0
 1914 0b12 FB68     		ldr	r3, [r7, #12]
 1915 0b14 1B7B     		ldrb	r3, [r3, #12]
 1916 0b16 DBB2     		uxtb	r3, r3
 1917 0b18 63F07F03 		orn	r3, r3, #127
 1918 0b1c DAB2     		uxtb	r2, r3
 1919 0b1e FB68     		ldr	r3, [r7, #12]
 1920 0b20 1A73     		strb	r2, [r3, #12]
 927:Libraries/uC-CSP/LPC17xx/lpc17xx_uart.c **** 			((LPC_UART1_TypeDef *)UARTx)->DLL = 0;
 1921              		.loc 1 927 0
 1922 0b22 FB68     		ldr	r3, [r7, #12]
 1923 0b24 4FF00002 		mov	r2, #0
 1924 0b28 1A70     		strb	r2, [r3, #0]
 928:Libraries/uC-CSP/LPC17xx/lpc17xx_uart.c **** 			((LPC_UART1_TypeDef *)UARTx)->DLM = 0;
 1925              		.loc 1 928 0
 1926 0b2a FB68     		ldr	r3, [r7, #12]
 1927 0b2c 4FF00002 		mov	r2, #0
 1928 0b30 1A71     		strb	r2, [r3, #4]
 929:Libraries/uC-CSP/LPC17xx/lpc17xx_uart.c **** 			((LPC_UART1_TypeDef *)UARTx)->LCR &= ~UART_LCR_DLAB_EN;
 1929              		.loc 1 929 0
 1930 0b32 FB68     		ldr	r3, [r7, #12]
 1931 0b34 1B7B     		ldrb	r3, [r3, #12]
 1932 0b36 DBB2     		uxtb	r3, r3
 1933 0b38 03F07F03 		and	r3, r3, #127
 1934 0b3c DAB2     		uxtb	r2, r3
 1935 0b3e FB68     		ldr	r3, [r7, #12]
 1936 0b40 1A73     		strb	r2, [r3, #12]
 930:Libraries/uC-CSP/LPC17xx/lpc17xx_uart.c **** 			// FDR value must be reset to default value
 931:Libraries/uC-CSP/LPC17xx/lpc17xx_uart.c **** 			((LPC_UART1_TypeDef *)UARTx)->FDR = 0x10;
 1937              		.loc 1 931 0
 1938 0b42 FB68     		ldr	r3, [r7, #12]
 1939 0b44 4FF01002 		mov	r2, #16
 1940 0b48 9A62     		str	r2, [r3, #40]
 932:Libraries/uC-CSP/LPC17xx/lpc17xx_uart.c **** 			((LPC_UART1_TypeDef *)UARTx)->ACR = UART_ACR_START | tmp;
 1941              		.loc 1 932 0
 1942 0b4a 7B69     		ldr	r3, [r7, #20]
 1943 0b4c 43F00102 		orr	r2, r3, #1
 1944 0b50 FB68     		ldr	r3, [r7, #12]
 1945 0b52 1A62     		str	r2, [r3, #32]
 1946 0b54 2EE0     		b	.L148
 1947              	.L152:
 933:Libraries/uC-CSP/LPC17xx/lpc17xx_uart.c **** 		}
 934:Libraries/uC-CSP/LPC17xx/lpc17xx_uart.c **** 		else
 935:Libraries/uC-CSP/LPC17xx/lpc17xx_uart.c **** 		{
 936:Libraries/uC-CSP/LPC17xx/lpc17xx_uart.c **** 			((LPC_UART1_TypeDef *)UARTx)->ACR = 0;
 1948              		.loc 1 936 0
 1949 0b56 FB68     		ldr	r3, [r7, #12]
 1950 0b58 4FF00002 		mov	r2, #0
 1951 0b5c 1A62     		str	r2, [r3, #32]
 1952 0b5e 29E0     		b	.L148
 1953              	.L151:
 937:Libraries/uC-CSP/LPC17xx/lpc17xx_uart.c **** 		}
 938:Libraries/uC-CSP/LPC17xx/lpc17xx_uart.c **** 	}
 939:Libraries/uC-CSP/LPC17xx/lpc17xx_uart.c **** 	else
 940:Libraries/uC-CSP/LPC17xx/lpc17xx_uart.c **** 	{
 941:Libraries/uC-CSP/LPC17xx/lpc17xx_uart.c **** 		if (NewState == ENABLE)
 1954              		.loc 1 941 0
 1955 0b60 FB79     		ldrb	r3, [r7, #7]	@ zero_extendqisi2
 1956 0b62 012B     		cmp	r3, #1
 1957 0b64 22D1     		bne	.L154
 942:Libraries/uC-CSP/LPC17xx/lpc17xx_uart.c **** 		{
 943:Libraries/uC-CSP/LPC17xx/lpc17xx_uart.c **** 			// Clear DLL and DLM value
 944:Libraries/uC-CSP/LPC17xx/lpc17xx_uart.c **** 			UARTx->LCR |= UART_LCR_DLAB_EN;
 1958              		.loc 1 944 0
 1959 0b66 FB68     		ldr	r3, [r7, #12]
 1960 0b68 1B7B     		ldrb	r3, [r3, #12]
 1961 0b6a DBB2     		uxtb	r3, r3
 1962 0b6c 63F07F03 		orn	r3, r3, #127
 1963 0b70 DAB2     		uxtb	r2, r3
 1964 0b72 FB68     		ldr	r3, [r7, #12]
 1965 0b74 1A73     		strb	r2, [r3, #12]
 945:Libraries/uC-CSP/LPC17xx/lpc17xx_uart.c **** 			UARTx->DLL = 0;
 1966              		.loc 1 945 0
 1967 0b76 FB68     		ldr	r3, [r7, #12]
 1968 0b78 4FF00002 		mov	r2, #0
 1969 0b7c 1A70     		strb	r2, [r3, #0]
 946:Libraries/uC-CSP/LPC17xx/lpc17xx_uart.c **** 			UARTx->DLM = 0;
 1970              		.loc 1 946 0
 1971 0b7e FB68     		ldr	r3, [r7, #12]
 1972 0b80 4FF00002 		mov	r2, #0
 1973 0b84 1A71     		strb	r2, [r3, #4]
 947:Libraries/uC-CSP/LPC17xx/lpc17xx_uart.c **** 			UARTx->LCR &= ~UART_LCR_DLAB_EN;
 1974              		.loc 1 947 0
 1975 0b86 FB68     		ldr	r3, [r7, #12]
 1976 0b88 1B7B     		ldrb	r3, [r3, #12]
 1977 0b8a DBB2     		uxtb	r3, r3
 1978 0b8c 03F07F03 		and	r3, r3, #127
 1979 0b90 DAB2     		uxtb	r2, r3
 1980 0b92 FB68     		ldr	r3, [r7, #12]
 1981 0b94 1A73     		strb	r2, [r3, #12]
 948:Libraries/uC-CSP/LPC17xx/lpc17xx_uart.c **** 			// FDR value must be reset to default value
 949:Libraries/uC-CSP/LPC17xx/lpc17xx_uart.c **** 			UARTx->FDR = 0x10;
 1982              		.loc 1 949 0
 1983 0b96 FB68     		ldr	r3, [r7, #12]
 1984 0b98 4FF01002 		mov	r2, #16
 1985 0b9c 83F82820 		strb	r2, [r3, #40]
 950:Libraries/uC-CSP/LPC17xx/lpc17xx_uart.c **** 			UARTx->ACR = UART_ACR_START | tmp;
 1986              		.loc 1 950 0
 1987 0ba0 7B69     		ldr	r3, [r7, #20]
 1988 0ba2 43F00102 		orr	r2, r3, #1
 1989 0ba6 FB68     		ldr	r3, [r7, #12]
 1990 0ba8 1A62     		str	r2, [r3, #32]
 1991 0baa 03E0     		b	.L148
 1992              	.L154:
 951:Libraries/uC-CSP/LPC17xx/lpc17xx_uart.c **** 		}
 952:Libraries/uC-CSP/LPC17xx/lpc17xx_uart.c **** 		else
 953:Libraries/uC-CSP/LPC17xx/lpc17xx_uart.c **** 		{
 954:Libraries/uC-CSP/LPC17xx/lpc17xx_uart.c **** 			UARTx->ACR = 0;
 1993              		.loc 1 954 0
 1994 0bac FB68     		ldr	r3, [r7, #12]
 1995 0bae 4FF00002 		mov	r2, #0
 1996 0bb2 1A62     		str	r2, [r3, #32]
 1997              	.L148:
 955:Libraries/uC-CSP/LPC17xx/lpc17xx_uart.c **** 		}
 956:Libraries/uC-CSP/LPC17xx/lpc17xx_uart.c **** 	}
 957:Libraries/uC-CSP/LPC17xx/lpc17xx_uart.c **** }
 1998              		.loc 1 957 0
 1999 0bb4 07F11C07 		add	r7, r7, #28
 2000 0bb8 BD46     		mov	sp, r7
 2001 0bba 80BC     		pop	{r7}
 2002 0bbc 7047     		bx	lr
 2003              		.cfi_endproc
 2004              	.LFE70:
 2006 0bbe 00BF     		.align	2
 2007              		.global	UART_ABClearIntPending
 2008              		.thumb
 2009              		.thumb_func
 2011              	UART_ABClearIntPending:
 2012              	.LFB71:
 958:Libraries/uC-CSP/LPC17xx/lpc17xx_uart.c **** 
 959:Libraries/uC-CSP/LPC17xx/lpc17xx_uart.c **** /*********************************************************************//**
 960:Libraries/uC-CSP/LPC17xx/lpc17xx_uart.c ****  * @brief		Clear Autobaud Interrupt Pending
 961:Libraries/uC-CSP/LPC17xx/lpc17xx_uart.c ****  * @param[in]	UARTx	UART peripheral selected, should be
 962:Libraries/uC-CSP/LPC17xx/lpc17xx_uart.c ****  *   			- LPC_UART0: UART0 peripheral
 963:Libraries/uC-CSP/LPC17xx/lpc17xx_uart.c ****  * 				- LPC_UART1: UART1 peripheral
 964:Libraries/uC-CSP/LPC17xx/lpc17xx_uart.c ****  * 				- LPC_UART2: UART2 peripheral
 965:Libraries/uC-CSP/LPC17xx/lpc17xx_uart.c ****  * 				- LPC_UART3: UART3 peripheral
 966:Libraries/uC-CSP/LPC17xx/lpc17xx_uart.c ****  * @param[in]	ABIntType	type of auto-baud interrupt, should be:
 967:Libraries/uC-CSP/LPC17xx/lpc17xx_uart.c ****  * 				- UART_AUTOBAUD_INTSTAT_ABEO: End of Auto-baud interrupt
 968:Libraries/uC-CSP/LPC17xx/lpc17xx_uart.c ****  * 				- UART_AUTOBAUD_INTSTAT_ABTO: Auto-baud time out interrupt
 969:Libraries/uC-CSP/LPC17xx/lpc17xx_uart.c ****  * @return 		none
 970:Libraries/uC-CSP/LPC17xx/lpc17xx_uart.c ****  **********************************************************************/
 971:Libraries/uC-CSP/LPC17xx/lpc17xx_uart.c **** void UART_ABClearIntPending(LPC_UART_TypeDef *UARTx, UART_ABEO_Type ABIntType)
 972:Libraries/uC-CSP/LPC17xx/lpc17xx_uart.c **** {
 2013              		.loc 1 972 0
 2014              		.cfi_startproc
 2015              		@ args = 0, pretend = 0, frame = 8
 2016              		@ frame_needed = 1, uses_anonymous_args = 0
 2017              		@ link register save eliminated.
 2018 0bc0 80B4     		push	{r7}
 2019              	.LCFI48:
 2020              		.cfi_def_cfa_offset 4
 2021              		.cfi_offset 7, -4
 2022 0bc2 83B0     		sub	sp, sp, #12
 2023              	.LCFI49:
 2024              		.cfi_def_cfa_offset 16
 2025 0bc4 00AF     		add	r7, sp, #0
 2026              	.LCFI50:
 2027              		.cfi_def_cfa_register 7
 2028 0bc6 7860     		str	r0, [r7, #4]
 2029 0bc8 0B46     		mov	r3, r1
 2030 0bca 7B80     		strh	r3, [r7, #2]	@ movhi
 973:Libraries/uC-CSP/LPC17xx/lpc17xx_uart.c **** 	//CHECK_PARAM(PARAM_UARTx(UARTx));
 974:Libraries/uC-CSP/LPC17xx/lpc17xx_uart.c **** 	if (((LPC_UART1_TypeDef *)UARTx) == LPC_UART1)
 2031              		.loc 1 974 0
 2032 0bcc 7A68     		ldr	r2, [r7, #4]
 2033 0bce 4FF00003 		mov	r3, #0
 2034 0bd2 C4F20103 		movt	r3, 16385
 2035 0bd6 9A42     		cmp	r2, r3
 2036 0bd8 06D1     		bne	.L156
 975:Libraries/uC-CSP/LPC17xx/lpc17xx_uart.c **** 	{
 976:Libraries/uC-CSP/LPC17xx/lpc17xx_uart.c **** 		UARTx->ACR |= ABIntType;
 2037              		.loc 1 976 0
 2038 0bda 7B68     		ldr	r3, [r7, #4]
 2039 0bdc 1A6A     		ldr	r2, [r3, #32]
 2040 0bde 7B88     		ldrh	r3, [r7, #2]
 2041 0be0 1A43     		orrs	r2, r2, r3
 2042 0be2 7B68     		ldr	r3, [r7, #4]
 2043 0be4 1A62     		str	r2, [r3, #32]
 2044 0be6 05E0     		b	.L155
 2045              	.L156:
 977:Libraries/uC-CSP/LPC17xx/lpc17xx_uart.c **** 	}
 978:Libraries/uC-CSP/LPC17xx/lpc17xx_uart.c **** 	else
 979:Libraries/uC-CSP/LPC17xx/lpc17xx_uart.c **** 		UARTx->ACR |= ABIntType;
 2046              		.loc 1 979 0
 2047 0be8 7B68     		ldr	r3, [r7, #4]
 2048 0bea 1A6A     		ldr	r2, [r3, #32]
 2049 0bec 7B88     		ldrh	r3, [r7, #2]
 2050 0bee 1A43     		orrs	r2, r2, r3
 2051 0bf0 7B68     		ldr	r3, [r7, #4]
 2052 0bf2 1A62     		str	r2, [r3, #32]
 2053              	.L155:
 980:Libraries/uC-CSP/LPC17xx/lpc17xx_uart.c **** }
 2054              		.loc 1 980 0
 2055 0bf4 07F10C07 		add	r7, r7, #12
 2056 0bf8 BD46     		mov	sp, r7
 2057 0bfa 80BC     		pop	{r7}
 2058 0bfc 7047     		bx	lr
 2059              		.cfi_endproc
 2060              	.LFE71:
 2062 0bfe 00BF     		.align	2
 2063              		.global	UART_TxCmd
 2064              		.thumb
 2065              		.thumb_func
 2067              	UART_TxCmd:
 2068              	.LFB72:
 981:Libraries/uC-CSP/LPC17xx/lpc17xx_uart.c **** 
 982:Libraries/uC-CSP/LPC17xx/lpc17xx_uart.c **** /*********************************************************************//**
 983:Libraries/uC-CSP/LPC17xx/lpc17xx_uart.c ****  * @brief		Enable/Disable transmission on UART TxD pin
 984:Libraries/uC-CSP/LPC17xx/lpc17xx_uart.c ****  * @param[in]	UARTx	UART peripheral selected, should be:
 985:Libraries/uC-CSP/LPC17xx/lpc17xx_uart.c ****  *   			- LPC_UART0: UART0 peripheral
 986:Libraries/uC-CSP/LPC17xx/lpc17xx_uart.c ****  * 				- LPC_UART1: UART1 peripheral
 987:Libraries/uC-CSP/LPC17xx/lpc17xx_uart.c ****  * 				- LPC_UART2: UART2 peripheral
 988:Libraries/uC-CSP/LPC17xx/lpc17xx_uart.c ****  * 				- LPC_UART3: UART3 peripheral
 989:Libraries/uC-CSP/LPC17xx/lpc17xx_uart.c ****  * @param[in]	NewState New State of Tx transmission function, should be:
 990:Libraries/uC-CSP/LPC17xx/lpc17xx_uart.c ****  * 				- ENABLE: Enable this function
 991:Libraries/uC-CSP/LPC17xx/lpc17xx_uart.c **** 				- DISABLE: Disable this function
 992:Libraries/uC-CSP/LPC17xx/lpc17xx_uart.c ****  * @return none
 993:Libraries/uC-CSP/LPC17xx/lpc17xx_uart.c ****  **********************************************************************/
 994:Libraries/uC-CSP/LPC17xx/lpc17xx_uart.c **** void UART_TxCmd(LPC_UART_TypeDef *UARTx, FunctionalState NewState)
 995:Libraries/uC-CSP/LPC17xx/lpc17xx_uart.c **** {
 2069              		.loc 1 995 0
 2070              		.cfi_startproc
 2071              		@ args = 0, pretend = 0, frame = 8
 2072              		@ frame_needed = 1, uses_anonymous_args = 0
 2073              		@ link register save eliminated.
 2074 0c00 80B4     		push	{r7}
 2075              	.LCFI51:
 2076              		.cfi_def_cfa_offset 4
 2077              		.cfi_offset 7, -4
 2078 0c02 83B0     		sub	sp, sp, #12
 2079              	.LCFI52:
 2080              		.cfi_def_cfa_offset 16
 2081 0c04 00AF     		add	r7, sp, #0
 2082              	.LCFI53:
 2083              		.cfi_def_cfa_register 7
 2084 0c06 7860     		str	r0, [r7, #4]
 2085 0c08 0B46     		mov	r3, r1
 2086 0c0a FB70     		strb	r3, [r7, #3]
 996:Libraries/uC-CSP/LPC17xx/lpc17xx_uart.c **** 	//CHECK_PARAM(PARAM_UARTx(UARTx));
 997:Libraries/uC-CSP/LPC17xx/lpc17xx_uart.c **** 	//CHECK_PARAM(PARAM_FUNCTIONALSTATE(NewState));
 998:Libraries/uC-CSP/LPC17xx/lpc17xx_uart.c **** 
 999:Libraries/uC-CSP/LPC17xx/lpc17xx_uart.c **** 	if (NewState == ENABLE)
 2087              		.loc 1 999 0
 2088 0c0c FB78     		ldrb	r3, [r7, #3]	@ zero_extendqisi2
 2089 0c0e 012B     		cmp	r3, #1
 2090 0c10 1CD1     		bne	.L159
1000:Libraries/uC-CSP/LPC17xx/lpc17xx_uart.c **** 	{
1001:Libraries/uC-CSP/LPC17xx/lpc17xx_uart.c **** 		if (((LPC_UART1_TypeDef *)UARTx) == LPC_UART1)
 2091              		.loc 1 1001 0
 2092 0c12 7A68     		ldr	r2, [r7, #4]
 2093 0c14 4FF00003 		mov	r3, #0
 2094 0c18 C4F20103 		movt	r3, 16385
 2095 0c1c 9A42     		cmp	r2, r3
 2096 0c1e 0AD1     		bne	.L160
1002:Libraries/uC-CSP/LPC17xx/lpc17xx_uart.c **** 		{
1003:Libraries/uC-CSP/LPC17xx/lpc17xx_uart.c **** 			((LPC_UART1_TypeDef *)UARTx)->TER |= UART_TER_TXEN;
 2097              		.loc 1 1003 0
 2098 0c20 7B68     		ldr	r3, [r7, #4]
 2099 0c22 93F83030 		ldrb	r3, [r3, #48]
 2100 0c26 DBB2     		uxtb	r3, r3
 2101 0c28 63F07F03 		orn	r3, r3, #127
 2102 0c2c DAB2     		uxtb	r2, r3
 2103 0c2e 7B68     		ldr	r3, [r7, #4]
 2104 0c30 83F83020 		strb	r2, [r3, #48]
 2105 0c34 22E0     		b	.L158
 2106              	.L160:
1004:Libraries/uC-CSP/LPC17xx/lpc17xx_uart.c **** 		}
1005:Libraries/uC-CSP/LPC17xx/lpc17xx_uart.c **** 		else
1006:Libraries/uC-CSP/LPC17xx/lpc17xx_uart.c **** 		{
1007:Libraries/uC-CSP/LPC17xx/lpc17xx_uart.c **** 			UARTx->TER |= UART_TER_TXEN;
 2107              		.loc 1 1007 0
 2108 0c36 7B68     		ldr	r3, [r7, #4]
 2109 0c38 93F83030 		ldrb	r3, [r3, #48]
 2110 0c3c DBB2     		uxtb	r3, r3
 2111 0c3e 63F07F03 		orn	r3, r3, #127
 2112 0c42 DAB2     		uxtb	r2, r3
 2113 0c44 7B68     		ldr	r3, [r7, #4]
 2114 0c46 83F83020 		strb	r2, [r3, #48]
 2115 0c4a 17E0     		b	.L158
 2116              	.L159:
1008:Libraries/uC-CSP/LPC17xx/lpc17xx_uart.c **** 		}
1009:Libraries/uC-CSP/LPC17xx/lpc17xx_uart.c **** 	}
1010:Libraries/uC-CSP/LPC17xx/lpc17xx_uart.c **** 	else
1011:Libraries/uC-CSP/LPC17xx/lpc17xx_uart.c **** 	{
1012:Libraries/uC-CSP/LPC17xx/lpc17xx_uart.c **** 		if (((LPC_UART1_TypeDef *)UARTx) == LPC_UART1)
 2117              		.loc 1 1012 0
 2118 0c4c 7A68     		ldr	r2, [r7, #4]
 2119 0c4e 4FF00003 		mov	r3, #0
 2120 0c52 C4F20103 		movt	r3, 16385
 2121 0c56 9A42     		cmp	r2, r3
 2122 0c58 08D1     		bne	.L162
1013:Libraries/uC-CSP/LPC17xx/lpc17xx_uart.c **** 		{
1014:Libraries/uC-CSP/LPC17xx/lpc17xx_uart.c **** 			((LPC_UART1_TypeDef *)UARTx)->TER &= (~UART_TER_TXEN) & UART_TER_BITMASK;
 2123              		.loc 1 1014 0
 2124 0c5a 7B68     		ldr	r3, [r7, #4]
 2125 0c5c 93F83030 		ldrb	r3, [r3, #48]
 2126 0c60 7B68     		ldr	r3, [r7, #4]
 2127 0c62 4FF00002 		mov	r2, #0
 2128 0c66 83F83020 		strb	r2, [r3, #48]
 2129 0c6a 07E0     		b	.L158
 2130              	.L162:
1015:Libraries/uC-CSP/LPC17xx/lpc17xx_uart.c **** 		}
1016:Libraries/uC-CSP/LPC17xx/lpc17xx_uart.c **** 		else
1017:Libraries/uC-CSP/LPC17xx/lpc17xx_uart.c **** 		{
1018:Libraries/uC-CSP/LPC17xx/lpc17xx_uart.c **** 			UARTx->TER &= (~UART_TER_TXEN) & UART_TER_BITMASK;
 2131              		.loc 1 1018 0
 2132 0c6c 7B68     		ldr	r3, [r7, #4]
 2133 0c6e 93F83030 		ldrb	r3, [r3, #48]
 2134 0c72 7B68     		ldr	r3, [r7, #4]
 2135 0c74 4FF00002 		mov	r2, #0
 2136 0c78 83F83020 		strb	r2, [r3, #48]
 2137              	.L158:
1019:Libraries/uC-CSP/LPC17xx/lpc17xx_uart.c **** 		}
1020:Libraries/uC-CSP/LPC17xx/lpc17xx_uart.c **** 	}
1021:Libraries/uC-CSP/LPC17xx/lpc17xx_uart.c **** }
 2138              		.loc 1 1021 0
 2139 0c7c 07F10C07 		add	r7, r7, #12
 2140 0c80 BD46     		mov	sp, r7
 2141 0c82 80BC     		pop	{r7}
 2142 0c84 7047     		bx	lr
 2143              		.cfi_endproc
 2144              	.LFE72:
 2146 0c86 00BF     		.align	2
 2147              		.global	UART_FullModemForcePinState
 2148              		.thumb
 2149              		.thumb_func
 2151              	UART_FullModemForcePinState:
 2152              	.LFB73:
1022:Libraries/uC-CSP/LPC17xx/lpc17xx_uart.c **** 
1023:Libraries/uC-CSP/LPC17xx/lpc17xx_uart.c **** /* UART IrDA functions ---------------------------------------------------*/
1024:Libraries/uC-CSP/LPC17xx/lpc17xx_uart.c **** 
1025:Libraries/uC-CSP/LPC17xx/lpc17xx_uart.c **** #ifdef _UART3
1026:Libraries/uC-CSP/LPC17xx/lpc17xx_uart.c **** 
1027:Libraries/uC-CSP/LPC17xx/lpc17xx_uart.c **** /*********************************************************************//**
1028:Libraries/uC-CSP/LPC17xx/lpc17xx_uart.c ****  * @brief		Enable or disable inverting serial input function of IrDA
1029:Libraries/uC-CSP/LPC17xx/lpc17xx_uart.c ****  * 				on UART peripheral.
1030:Libraries/uC-CSP/LPC17xx/lpc17xx_uart.c ****  * @param[in]	UARTx UART peripheral selected, should be LPC_UART3 (only)
1031:Libraries/uC-CSP/LPC17xx/lpc17xx_uart.c ****  * @param[in]	NewState New state of inverting serial input, should be:
1032:Libraries/uC-CSP/LPC17xx/lpc17xx_uart.c ****  * 				- ENABLE: Enable this function.
1033:Libraries/uC-CSP/LPC17xx/lpc17xx_uart.c ****  * 				- DISABLE: Disable this function.
1034:Libraries/uC-CSP/LPC17xx/lpc17xx_uart.c ****  * @return none
1035:Libraries/uC-CSP/LPC17xx/lpc17xx_uart.c ****  **********************************************************************/
1036:Libraries/uC-CSP/LPC17xx/lpc17xx_uart.c **** void UART_IrDAInvtInputCmd(LPC_UART_TypeDef* UARTx, FunctionalState NewState)
1037:Libraries/uC-CSP/LPC17xx/lpc17xx_uart.c **** {
1038:Libraries/uC-CSP/LPC17xx/lpc17xx_uart.c **** 	CHECK_PARAM(PARAM_UART_IrDA(UARTx));
1039:Libraries/uC-CSP/LPC17xx/lpc17xx_uart.c **** 	CHECK_PARAM(PARAM_FUNCTIONALSTATE(NewState));
1040:Libraries/uC-CSP/LPC17xx/lpc17xx_uart.c **** 
1041:Libraries/uC-CSP/LPC17xx/lpc17xx_uart.c **** 	if (NewState == ENABLE)
1042:Libraries/uC-CSP/LPC17xx/lpc17xx_uart.c **** 	{
1043:Libraries/uC-CSP/LPC17xx/lpc17xx_uart.c **** 		UARTx->ICR |= UART_ICR_IRDAINV;
1044:Libraries/uC-CSP/LPC17xx/lpc17xx_uart.c **** 	}
1045:Libraries/uC-CSP/LPC17xx/lpc17xx_uart.c **** 	else if (NewState == DISABLE)
1046:Libraries/uC-CSP/LPC17xx/lpc17xx_uart.c **** 	{
1047:Libraries/uC-CSP/LPC17xx/lpc17xx_uart.c **** 		UARTx->ICR &= (~UART_ICR_IRDAINV) & UART_ICR_BITMASK;
1048:Libraries/uC-CSP/LPC17xx/lpc17xx_uart.c **** 	}
1049:Libraries/uC-CSP/LPC17xx/lpc17xx_uart.c **** }
1050:Libraries/uC-CSP/LPC17xx/lpc17xx_uart.c **** 
1051:Libraries/uC-CSP/LPC17xx/lpc17xx_uart.c **** 
1052:Libraries/uC-CSP/LPC17xx/lpc17xx_uart.c **** /*********************************************************************//**
1053:Libraries/uC-CSP/LPC17xx/lpc17xx_uart.c ****  * @brief		Enable or disable IrDA function on UART peripheral.
1054:Libraries/uC-CSP/LPC17xx/lpc17xx_uart.c ****  * @param[in]	UARTx UART peripheral selected, should be LPC_UART3 (only)
1055:Libraries/uC-CSP/LPC17xx/lpc17xx_uart.c ****  * @param[in]	NewState New state of IrDA function, should be:
1056:Libraries/uC-CSP/LPC17xx/lpc17xx_uart.c ****  * 				- ENABLE: Enable this function.
1057:Libraries/uC-CSP/LPC17xx/lpc17xx_uart.c ****  * 				- DISABLE: Disable this function.
1058:Libraries/uC-CSP/LPC17xx/lpc17xx_uart.c ****  * @return none
1059:Libraries/uC-CSP/LPC17xx/lpc17xx_uart.c ****  **********************************************************************/
1060:Libraries/uC-CSP/LPC17xx/lpc17xx_uart.c **** void UART_IrDACmd(LPC_UART_TypeDef* UARTx, FunctionalState NewState)
1061:Libraries/uC-CSP/LPC17xx/lpc17xx_uart.c **** {
1062:Libraries/uC-CSP/LPC17xx/lpc17xx_uart.c **** 	CHECK_PARAM(PARAM_UART_IrDA(UARTx));
1063:Libraries/uC-CSP/LPC17xx/lpc17xx_uart.c **** 	CHECK_PARAM(PARAM_FUNCTIONALSTATE(NewState));
1064:Libraries/uC-CSP/LPC17xx/lpc17xx_uart.c **** 
1065:Libraries/uC-CSP/LPC17xx/lpc17xx_uart.c **** 	if (NewState == ENABLE)
1066:Libraries/uC-CSP/LPC17xx/lpc17xx_uart.c **** 	{
1067:Libraries/uC-CSP/LPC17xx/lpc17xx_uart.c **** 		UARTx->ICR |= UART_ICR_IRDAEN;
1068:Libraries/uC-CSP/LPC17xx/lpc17xx_uart.c **** 	}
1069:Libraries/uC-CSP/LPC17xx/lpc17xx_uart.c **** 	else
1070:Libraries/uC-CSP/LPC17xx/lpc17xx_uart.c **** 	{
1071:Libraries/uC-CSP/LPC17xx/lpc17xx_uart.c **** 		UARTx->ICR &= (~UART_ICR_IRDAEN) & UART_ICR_BITMASK;
1072:Libraries/uC-CSP/LPC17xx/lpc17xx_uart.c **** 	}
1073:Libraries/uC-CSP/LPC17xx/lpc17xx_uart.c **** }
1074:Libraries/uC-CSP/LPC17xx/lpc17xx_uart.c **** 
1075:Libraries/uC-CSP/LPC17xx/lpc17xx_uart.c **** 
1076:Libraries/uC-CSP/LPC17xx/lpc17xx_uart.c **** /*********************************************************************//**
1077:Libraries/uC-CSP/LPC17xx/lpc17xx_uart.c ****  * @brief		Configure Pulse divider for IrDA function on UART peripheral.
1078:Libraries/uC-CSP/LPC17xx/lpc17xx_uart.c ****  * @param[in]	UARTx UART peripheral selected, should be LPC_UART3 (only)
1079:Libraries/uC-CSP/LPC17xx/lpc17xx_uart.c ****  * @param[in]	PulseDiv Pulse Divider value from Peripheral clock,
1080:Libraries/uC-CSP/LPC17xx/lpc17xx_uart.c ****  * 				should be one of the following:
1081:Libraries/uC-CSP/LPC17xx/lpc17xx_uart.c **** 				- UART_IrDA_PULSEDIV2 	: Pulse width = 2 * Tpclk
1082:Libraries/uC-CSP/LPC17xx/lpc17xx_uart.c **** 				- UART_IrDA_PULSEDIV4 	: Pulse width = 4 * Tpclk
1083:Libraries/uC-CSP/LPC17xx/lpc17xx_uart.c **** 				- UART_IrDA_PULSEDIV8 	: Pulse width = 8 * Tpclk
1084:Libraries/uC-CSP/LPC17xx/lpc17xx_uart.c **** 				- UART_IrDA_PULSEDIV16 	: Pulse width = 16 * Tpclk
1085:Libraries/uC-CSP/LPC17xx/lpc17xx_uart.c **** 				- UART_IrDA_PULSEDIV32 	: Pulse width = 32 * Tpclk
1086:Libraries/uC-CSP/LPC17xx/lpc17xx_uart.c **** 				- UART_IrDA_PULSEDIV64 	: Pulse width = 64 * Tpclk
1087:Libraries/uC-CSP/LPC17xx/lpc17xx_uart.c **** 				- UART_IrDA_PULSEDIV128 : Pulse width = 128 * Tpclk
1088:Libraries/uC-CSP/LPC17xx/lpc17xx_uart.c **** 				- UART_IrDA_PULSEDIV256 : Pulse width = 256 * Tpclk
1089:Libraries/uC-CSP/LPC17xx/lpc17xx_uart.c **** 
1090:Libraries/uC-CSP/LPC17xx/lpc17xx_uart.c ****  * @return none
1091:Libraries/uC-CSP/LPC17xx/lpc17xx_uart.c ****  **********************************************************************/
1092:Libraries/uC-CSP/LPC17xx/lpc17xx_uart.c **** void UART_IrDAPulseDivConfig(LPC_UART_TypeDef *UARTx, UART_IrDA_PULSE_Type PulseDiv)
1093:Libraries/uC-CSP/LPC17xx/lpc17xx_uart.c **** {
1094:Libraries/uC-CSP/LPC17xx/lpc17xx_uart.c **** 	uint32_t tmp, tmp1;
1095:Libraries/uC-CSP/LPC17xx/lpc17xx_uart.c **** 	CHECK_PARAM(PARAM_UART_IrDA(UARTx));
1096:Libraries/uC-CSP/LPC17xx/lpc17xx_uart.c **** 	CHECK_PARAM(PARAM_UART_IrDA_PULSEDIV(PulseDiv));
1097:Libraries/uC-CSP/LPC17xx/lpc17xx_uart.c **** 
1098:Libraries/uC-CSP/LPC17xx/lpc17xx_uart.c **** 	tmp1 = UART_ICR_PULSEDIV(PulseDiv);
1099:Libraries/uC-CSP/LPC17xx/lpc17xx_uart.c **** 	tmp = UARTx->ICR & (~UART_ICR_PULSEDIV(7));
1100:Libraries/uC-CSP/LPC17xx/lpc17xx_uart.c **** 	tmp |= tmp1 | UART_ICR_FIXPULSE_EN;
1101:Libraries/uC-CSP/LPC17xx/lpc17xx_uart.c **** 	UARTx->ICR = tmp & UART_ICR_BITMASK;
1102:Libraries/uC-CSP/LPC17xx/lpc17xx_uart.c **** }
1103:Libraries/uC-CSP/LPC17xx/lpc17xx_uart.c **** 
1104:Libraries/uC-CSP/LPC17xx/lpc17xx_uart.c **** #endif
1105:Libraries/uC-CSP/LPC17xx/lpc17xx_uart.c **** 
1106:Libraries/uC-CSP/LPC17xx/lpc17xx_uart.c **** 
1107:Libraries/uC-CSP/LPC17xx/lpc17xx_uart.c **** /* UART1 FullModem function ---------------------------------------------*/
1108:Libraries/uC-CSP/LPC17xx/lpc17xx_uart.c **** 
1109:Libraries/uC-CSP/LPC17xx/lpc17xx_uart.c **** #ifdef _UART1
1110:Libraries/uC-CSP/LPC17xx/lpc17xx_uart.c **** 
1111:Libraries/uC-CSP/LPC17xx/lpc17xx_uart.c **** /*********************************************************************//**
1112:Libraries/uC-CSP/LPC17xx/lpc17xx_uart.c ****  * @brief		Force pin DTR/RTS corresponding to given state (Full modem mode)
1113:Libraries/uC-CSP/LPC17xx/lpc17xx_uart.c ****  * @param[in]	UARTx	LPC_UART1 (only)
1114:Libraries/uC-CSP/LPC17xx/lpc17xx_uart.c ****  * @param[in]	Pin	Pin that NewState will be applied to, should be:
1115:Libraries/uC-CSP/LPC17xx/lpc17xx_uart.c ****  * 				- UART1_MODEM_PIN_DTR: DTR pin.
1116:Libraries/uC-CSP/LPC17xx/lpc17xx_uart.c ****  * 				- UART1_MODEM_PIN_RTS: RTS pin.
1117:Libraries/uC-CSP/LPC17xx/lpc17xx_uart.c ****  * @param[in]	NewState New State of DTR/RTS pin, should be:
1118:Libraries/uC-CSP/LPC17xx/lpc17xx_uart.c ****  * 				- INACTIVE: Force the pin to inactive signal.
1119:Libraries/uC-CSP/LPC17xx/lpc17xx_uart.c **** 				- ACTIVE: Force the pin to active signal.
1120:Libraries/uC-CSP/LPC17xx/lpc17xx_uart.c ****  * @return none
1121:Libraries/uC-CSP/LPC17xx/lpc17xx_uart.c ****  **********************************************************************/
1122:Libraries/uC-CSP/LPC17xx/lpc17xx_uart.c **** void UART_FullModemForcePinState(LPC_UART1_TypeDef *UARTx, UART_MODEM_PIN_Type Pin, \
1123:Libraries/uC-CSP/LPC17xx/lpc17xx_uart.c **** 							UART1_SignalState NewState)
1124:Libraries/uC-CSP/LPC17xx/lpc17xx_uart.c **** {
 2153              		.loc 1 1124 0
 2154              		.cfi_startproc
 2155              		@ args = 0, pretend = 0, frame = 16
 2156              		@ frame_needed = 1, uses_anonymous_args = 0
 2157              		@ link register save eliminated.
 2158 0c88 80B4     		push	{r7}
 2159              	.LCFI54:
 2160              		.cfi_def_cfa_offset 4
 2161              		.cfi_offset 7, -4
 2162 0c8a 85B0     		sub	sp, sp, #20
 2163              	.LCFI55:
 2164              		.cfi_def_cfa_offset 24
 2165 0c8c 00AF     		add	r7, sp, #0
 2166              	.LCFI56:
 2167              		.cfi_def_cfa_register 7
 2168 0c8e 7860     		str	r0, [r7, #4]
 2169 0c90 1346     		mov	r3, r2
 2170 0c92 0A46     		mov	r2, r1
 2171 0c94 FA70     		strb	r2, [r7, #3]
 2172 0c96 BB70     		strb	r3, [r7, #2]
1125:Libraries/uC-CSP/LPC17xx/lpc17xx_uart.c **** 	uint8_t tmp = 0;
 2173              		.loc 1 1125 0
 2174 0c98 4FF00003 		mov	r3, #0
 2175 0c9c FB73     		strb	r3, [r7, #15]
1126:Libraries/uC-CSP/LPC17xx/lpc17xx_uart.c **** 
1127:Libraries/uC-CSP/LPC17xx/lpc17xx_uart.c **** 	//CHECK_PARAM(PARAM_UART1_MODEM(UARTx));
1128:Libraries/uC-CSP/LPC17xx/lpc17xx_uart.c **** 	//CHECK_PARAM(PARAM_UART1_MODEM_PIN(Pin));
1129:Libraries/uC-CSP/LPC17xx/lpc17xx_uart.c **** 	//CHECK_PARAM(PARAM_UART1_SIGNALSTATE(NewState));
1130:Libraries/uC-CSP/LPC17xx/lpc17xx_uart.c **** 
1131:Libraries/uC-CSP/LPC17xx/lpc17xx_uart.c **** 	switch (Pin){
 2176              		.loc 1 1131 0
 2177 0c9e FB78     		ldrb	r3, [r7, #3]	@ zero_extendqisi2
 2178 0ca0 002B     		cmp	r3, #0
 2179 0ca2 02D0     		beq	.L165
 2180 0ca4 012B     		cmp	r3, #1
 2181 0ca6 04D0     		beq	.L166
 2182 0ca8 07E0     		b	.L170
 2183              	.L165:
1132:Libraries/uC-CSP/LPC17xx/lpc17xx_uart.c **** 	case UART1_MODEM_PIN_DTR:
1133:Libraries/uC-CSP/LPC17xx/lpc17xx_uart.c **** 		tmp = UART1_MCR_DTR_CTRL;
 2184              		.loc 1 1133 0
 2185 0caa 4FF00103 		mov	r3, #1
 2186 0cae FB73     		strb	r3, [r7, #15]
1134:Libraries/uC-CSP/LPC17xx/lpc17xx_uart.c **** 		break;
 2187              		.loc 1 1134 0
 2188 0cb0 04E0     		b	.L167
 2189              	.L166:
1135:Libraries/uC-CSP/LPC17xx/lpc17xx_uart.c **** 	case UART1_MODEM_PIN_RTS:
1136:Libraries/uC-CSP/LPC17xx/lpc17xx_uart.c **** 		tmp = UART1_MCR_RTS_CTRL;
 2190              		.loc 1 1136 0
 2191 0cb2 4FF00203 		mov	r3, #2
 2192 0cb6 FB73     		strb	r3, [r7, #15]
1137:Libraries/uC-CSP/LPC17xx/lpc17xx_uart.c **** 		break;
 2193              		.loc 1 1137 0
 2194 0cb8 00E0     		b	.L167
 2195              	.L170:
1138:Libraries/uC-CSP/LPC17xx/lpc17xx_uart.c **** 	default:
1139:Libraries/uC-CSP/LPC17xx/lpc17xx_uart.c **** 		break;
 2196              		.loc 1 1139 0
 2197 0cba 00BF     		nop
 2198              	.L167:
1140:Libraries/uC-CSP/LPC17xx/lpc17xx_uart.c **** 	}
1141:Libraries/uC-CSP/LPC17xx/lpc17xx_uart.c **** 
1142:Libraries/uC-CSP/LPC17xx/lpc17xx_uart.c **** 	if (NewState == ACTIVE){
 2199              		.loc 1 1142 0
 2200 0cbc BB78     		ldrb	r3, [r7, #2]	@ zero_extendqisi2
 2201 0cbe 012B     		cmp	r3, #1
 2202 0cc0 08D1     		bne	.L168
1143:Libraries/uC-CSP/LPC17xx/lpc17xx_uart.c **** 		UARTx->MCR |= tmp;
 2203              		.loc 1 1143 0
 2204 0cc2 7B68     		ldr	r3, [r7, #4]
 2205 0cc4 1B7C     		ldrb	r3, [r3, #16]
 2206 0cc6 DAB2     		uxtb	r2, r3
 2207 0cc8 FB7B     		ldrb	r3, [r7, #15]
 2208 0cca 1343     		orrs	r3, r3, r2
 2209 0ccc DAB2     		uxtb	r2, r3
 2210 0cce 7B68     		ldr	r3, [r7, #4]
 2211 0cd0 1A74     		strb	r2, [r3, #16]
 2212 0cd2 0FE0     		b	.L163
 2213              	.L168:
1144:Libraries/uC-CSP/LPC17xx/lpc17xx_uart.c **** 	} else {
1145:Libraries/uC-CSP/LPC17xx/lpc17xx_uart.c **** 		UARTx->MCR &= (~tmp) & UART1_MCR_BITMASK;
 2214              		.loc 1 1145 0
 2215 0cd4 7B68     		ldr	r3, [r7, #4]
 2216 0cd6 1B7C     		ldrb	r3, [r3, #16]
 2217 0cd8 DBB2     		uxtb	r3, r3
 2218 0cda DAB2     		uxtb	r2, r3
 2219 0cdc FB7B     		ldrb	r3, [r7, #15]	@ zero_extendqisi2
 2220 0cde 6FEA0303 		mvn	r3, r3
 2221 0ce2 DBB2     		uxtb	r3, r3
 2222 0ce4 23F00C03 		bic	r3, r3, #12
 2223 0ce8 DBB2     		uxtb	r3, r3
 2224 0cea 1340     		ands	r3, r3, r2
 2225 0cec DBB2     		uxtb	r3, r3
 2226 0cee DAB2     		uxtb	r2, r3
 2227 0cf0 7B68     		ldr	r3, [r7, #4]
 2228 0cf2 1A74     		strb	r2, [r3, #16]
 2229              	.L163:
1146:Libraries/uC-CSP/LPC17xx/lpc17xx_uart.c **** 	}
1147:Libraries/uC-CSP/LPC17xx/lpc17xx_uart.c **** }
 2230              		.loc 1 1147 0
 2231 0cf4 07F11407 		add	r7, r7, #20
 2232 0cf8 BD46     		mov	sp, r7
 2233 0cfa 80BC     		pop	{r7}
 2234 0cfc 7047     		bx	lr
 2235              		.cfi_endproc
 2236              	.LFE73:
 2238 0cfe 00BF     		.align	2
 2239              		.global	UART_FullModemConfigMode
 2240              		.thumb
 2241              		.thumb_func
 2243              	UART_FullModemConfigMode:
 2244              	.LFB74:
1148:Libraries/uC-CSP/LPC17xx/lpc17xx_uart.c **** 
1149:Libraries/uC-CSP/LPC17xx/lpc17xx_uart.c **** 
1150:Libraries/uC-CSP/LPC17xx/lpc17xx_uart.c **** /*********************************************************************//**
1151:Libraries/uC-CSP/LPC17xx/lpc17xx_uart.c ****  * @brief		Configure Full Modem mode for UART peripheral
1152:Libraries/uC-CSP/LPC17xx/lpc17xx_uart.c ****  * @param[in]	UARTx	LPC_UART1 (only)
1153:Libraries/uC-CSP/LPC17xx/lpc17xx_uart.c ****  * @param[in]	Mode Full Modem mode, should be:
1154:Libraries/uC-CSP/LPC17xx/lpc17xx_uart.c ****  * 				- UART1_MODEM_MODE_LOOPBACK: Loop back mode.
1155:Libraries/uC-CSP/LPC17xx/lpc17xx_uart.c ****  * 				- UART1_MODEM_MODE_AUTO_RTS: Auto-RTS mode.
1156:Libraries/uC-CSP/LPC17xx/lpc17xx_uart.c ****  * 				- UART1_MODEM_MODE_AUTO_CTS: Auto-CTS mode.
1157:Libraries/uC-CSP/LPC17xx/lpc17xx_uart.c ****  * @param[in]	NewState New State of this mode, should be:
1158:Libraries/uC-CSP/LPC17xx/lpc17xx_uart.c ****  * 				- ENABLE: Enable this mode.
1159:Libraries/uC-CSP/LPC17xx/lpc17xx_uart.c **** 				- DISABLE: Disable this mode.
1160:Libraries/uC-CSP/LPC17xx/lpc17xx_uart.c ****  * @return none
1161:Libraries/uC-CSP/LPC17xx/lpc17xx_uart.c ****  **********************************************************************/
1162:Libraries/uC-CSP/LPC17xx/lpc17xx_uart.c **** void UART_FullModemConfigMode(LPC_UART1_TypeDef *UARTx, UART_MODEM_MODE_Type Mode, \
1163:Libraries/uC-CSP/LPC17xx/lpc17xx_uart.c **** 							FunctionalState NewState)
1164:Libraries/uC-CSP/LPC17xx/lpc17xx_uart.c **** {
 2245              		.loc 1 1164 0
 2246              		.cfi_startproc
 2247              		@ args = 0, pretend = 0, frame = 16
 2248              		@ frame_needed = 1, uses_anonymous_args = 0
 2249              		@ link register save eliminated.
 2250 0d00 80B4     		push	{r7}
 2251              	.LCFI57:
 2252              		.cfi_def_cfa_offset 4
 2253              		.cfi_offset 7, -4
 2254 0d02 85B0     		sub	sp, sp, #20
 2255              	.LCFI58:
 2256              		.cfi_def_cfa_offset 24
 2257 0d04 00AF     		add	r7, sp, #0
 2258              	.LCFI59:
 2259              		.cfi_def_cfa_register 7
 2260 0d06 7860     		str	r0, [r7, #4]
 2261 0d08 1346     		mov	r3, r2
 2262 0d0a 0A46     		mov	r2, r1
 2263 0d0c FA70     		strb	r2, [r7, #3]
 2264 0d0e BB70     		strb	r3, [r7, #2]
1165:Libraries/uC-CSP/LPC17xx/lpc17xx_uart.c **** 	uint8_t tmp;
1166:Libraries/uC-CSP/LPC17xx/lpc17xx_uart.c **** 
1167:Libraries/uC-CSP/LPC17xx/lpc17xx_uart.c **** 	//CHECK_PARAM(PARAM_UART1_MODEM(UARTx));
1168:Libraries/uC-CSP/LPC17xx/lpc17xx_uart.c **** 	//CHECK_PARAM(PARAM_UART1_MODEM_MODE(Mode));
1169:Libraries/uC-CSP/LPC17xx/lpc17xx_uart.c **** 	//CHECK_PARAM(PARAM_FUNCTIONALSTATE(NewState));
1170:Libraries/uC-CSP/LPC17xx/lpc17xx_uart.c **** 
1171:Libraries/uC-CSP/LPC17xx/lpc17xx_uart.c **** 	switch(Mode){
 2265              		.loc 1 1171 0
 2266 0d10 FB78     		ldrb	r3, [r7, #3]	@ zero_extendqisi2
 2267 0d12 012B     		cmp	r3, #1
 2268 0d14 07D0     		beq	.L174
 2269 0d16 022B     		cmp	r3, #2
 2270 0d18 09D0     		beq	.L175
 2271 0d1a 002B     		cmp	r3, #0
 2272 0d1c 0BD1     		bne	.L179
 2273              	.L173:
1172:Libraries/uC-CSP/LPC17xx/lpc17xx_uart.c **** 	case UART1_MODEM_MODE_LOOPBACK:
1173:Libraries/uC-CSP/LPC17xx/lpc17xx_uart.c **** 		tmp = UART1_MCR_LOOPB_EN;
 2274              		.loc 1 1173 0
 2275 0d1e 4FF01003 		mov	r3, #16
 2276 0d22 FB73     		strb	r3, [r7, #15]
1174:Libraries/uC-CSP/LPC17xx/lpc17xx_uart.c **** 		break;
 2277              		.loc 1 1174 0
 2278 0d24 08E0     		b	.L176
 2279              	.L174:
1175:Libraries/uC-CSP/LPC17xx/lpc17xx_uart.c **** 	case UART1_MODEM_MODE_AUTO_RTS:
1176:Libraries/uC-CSP/LPC17xx/lpc17xx_uart.c **** 		tmp = UART1_MCR_AUTO_RTS_EN;
 2280              		.loc 1 1176 0
 2281 0d26 4FF04003 		mov	r3, #64
 2282 0d2a FB73     		strb	r3, [r7, #15]
1177:Libraries/uC-CSP/LPC17xx/lpc17xx_uart.c **** 		break;
 2283              		.loc 1 1177 0
 2284 0d2c 04E0     		b	.L176
 2285              	.L175:
1178:Libraries/uC-CSP/LPC17xx/lpc17xx_uart.c **** 	case UART1_MODEM_MODE_AUTO_CTS:
1179:Libraries/uC-CSP/LPC17xx/lpc17xx_uart.c **** 		tmp = UART1_MCR_AUTO_CTS_EN;
 2286              		.loc 1 1179 0
 2287 0d2e 4FF08003 		mov	r3, #128
 2288 0d32 FB73     		strb	r3, [r7, #15]
1180:Libraries/uC-CSP/LPC17xx/lpc17xx_uart.c **** 		break;
 2289              		.loc 1 1180 0
 2290 0d34 00E0     		b	.L176
 2291              	.L179:
1181:Libraries/uC-CSP/LPC17xx/lpc17xx_uart.c **** 	default:
1182:Libraries/uC-CSP/LPC17xx/lpc17xx_uart.c **** 		break;
 2292              		.loc 1 1182 0
 2293 0d36 00BF     		nop
 2294              	.L176:
1183:Libraries/uC-CSP/LPC17xx/lpc17xx_uart.c **** 	}
1184:Libraries/uC-CSP/LPC17xx/lpc17xx_uart.c **** 
1185:Libraries/uC-CSP/LPC17xx/lpc17xx_uart.c **** 	if (NewState == ENABLE)
 2295              		.loc 1 1185 0
 2296 0d38 BB78     		ldrb	r3, [r7, #2]	@ zero_extendqisi2
 2297 0d3a 012B     		cmp	r3, #1
 2298 0d3c 08D1     		bne	.L177
1186:Libraries/uC-CSP/LPC17xx/lpc17xx_uart.c **** 	{
1187:Libraries/uC-CSP/LPC17xx/lpc17xx_uart.c **** 		UARTx->MCR |= tmp;
 2299              		.loc 1 1187 0
 2300 0d3e 7B68     		ldr	r3, [r7, #4]
 2301 0d40 1B7C     		ldrb	r3, [r3, #16]
 2302 0d42 DAB2     		uxtb	r2, r3
 2303 0d44 FB7B     		ldrb	r3, [r7, #15]
 2304 0d46 1343     		orrs	r3, r3, r2
 2305 0d48 DAB2     		uxtb	r2, r3
 2306 0d4a 7B68     		ldr	r3, [r7, #4]
 2307 0d4c 1A74     		strb	r2, [r3, #16]
 2308 0d4e 0FE0     		b	.L171
 2309              	.L177:
1188:Libraries/uC-CSP/LPC17xx/lpc17xx_uart.c **** 	}
1189:Libraries/uC-CSP/LPC17xx/lpc17xx_uart.c **** 	else
1190:Libraries/uC-CSP/LPC17xx/lpc17xx_uart.c **** 	{
1191:Libraries/uC-CSP/LPC17xx/lpc17xx_uart.c **** 		UARTx->MCR &= (~tmp) & UART1_MCR_BITMASK;
 2310              		.loc 1 1191 0
 2311 0d50 7B68     		ldr	r3, [r7, #4]
 2312 0d52 1B7C     		ldrb	r3, [r3, #16]
 2313 0d54 DBB2     		uxtb	r3, r3
 2314 0d56 DAB2     		uxtb	r2, r3
 2315 0d58 FB7B     		ldrb	r3, [r7, #15]	@ zero_extendqisi2
 2316 0d5a 6FEA0303 		mvn	r3, r3
 2317 0d5e DBB2     		uxtb	r3, r3
 2318 0d60 23F00C03 		bic	r3, r3, #12
 2319 0d64 DBB2     		uxtb	r3, r3
 2320 0d66 1340     		ands	r3, r3, r2
 2321 0d68 DBB2     		uxtb	r3, r3
 2322 0d6a DAB2     		uxtb	r2, r3
 2323 0d6c 7B68     		ldr	r3, [r7, #4]
 2324 0d6e 1A74     		strb	r2, [r3, #16]
 2325              	.L171:
1192:Libraries/uC-CSP/LPC17xx/lpc17xx_uart.c **** 	}
1193:Libraries/uC-CSP/LPC17xx/lpc17xx_uart.c **** }
 2326              		.loc 1 1193 0
 2327 0d70 07F11407 		add	r7, r7, #20
 2328 0d74 BD46     		mov	sp, r7
 2329 0d76 80BC     		pop	{r7}
 2330 0d78 7047     		bx	lr
 2331              		.cfi_endproc
 2332              	.LFE74:
 2334 0d7a 00BF     		.align	2
 2335              		.global	UART_FullModemGetStatus
 2336              		.thumb
 2337              		.thumb_func
 2339              	UART_FullModemGetStatus:
 2340              	.LFB75:
1194:Libraries/uC-CSP/LPC17xx/lpc17xx_uart.c **** 
1195:Libraries/uC-CSP/LPC17xx/lpc17xx_uart.c **** 
1196:Libraries/uC-CSP/LPC17xx/lpc17xx_uart.c **** /*********************************************************************//**
1197:Libraries/uC-CSP/LPC17xx/lpc17xx_uart.c ****  * @brief		Get current status of modem status register
1198:Libraries/uC-CSP/LPC17xx/lpc17xx_uart.c ****  * @param[in]	UARTx	LPC_UART1 (only)
1199:Libraries/uC-CSP/LPC17xx/lpc17xx_uart.c ****  * @return 		Current value of modem status register
1200:Libraries/uC-CSP/LPC17xx/lpc17xx_uart.c ****  * Note:	The return value of this function must be ANDed with each member
1201:Libraries/uC-CSP/LPC17xx/lpc17xx_uart.c ****  * 			UART_MODEM_STAT_type enumeration to determine current flag status
1202:Libraries/uC-CSP/LPC17xx/lpc17xx_uart.c ****  * 			corresponding to each modem flag status. Because some flags in
1203:Libraries/uC-CSP/LPC17xx/lpc17xx_uart.c ****  * 			modem status register will be cleared after reading, the next reading
1204:Libraries/uC-CSP/LPC17xx/lpc17xx_uart.c ****  * 			modem register could not be correct. So this function used to
1205:Libraries/uC-CSP/LPC17xx/lpc17xx_uart.c ****  * 			read modem status register in one time only, then the return value
1206:Libraries/uC-CSP/LPC17xx/lpc17xx_uart.c ****  * 			used to check all flags.
1207:Libraries/uC-CSP/LPC17xx/lpc17xx_uart.c ****  **********************************************************************/
1208:Libraries/uC-CSP/LPC17xx/lpc17xx_uart.c **** uint8_t UART_FullModemGetStatus(LPC_UART1_TypeDef *UARTx)
1209:Libraries/uC-CSP/LPC17xx/lpc17xx_uart.c **** {
 2341              		.loc 1 1209 0
 2342              		.cfi_startproc
 2343              		@ args = 0, pretend = 0, frame = 8
 2344              		@ frame_needed = 1, uses_anonymous_args = 0
 2345              		@ link register save eliminated.
 2346 0d7c 80B4     		push	{r7}
 2347              	.LCFI60:
 2348              		.cfi_def_cfa_offset 4
 2349              		.cfi_offset 7, -4
 2350 0d7e 83B0     		sub	sp, sp, #12
 2351              	.LCFI61:
 2352              		.cfi_def_cfa_offset 16
 2353 0d80 00AF     		add	r7, sp, #0
 2354              	.LCFI62:
 2355              		.cfi_def_cfa_register 7
 2356 0d82 7860     		str	r0, [r7, #4]
1210:Libraries/uC-CSP/LPC17xx/lpc17xx_uart.c **** 	//CHECK_PARAM(PARAM_UART1_MODEM(UARTx));
1211:Libraries/uC-CSP/LPC17xx/lpc17xx_uart.c **** 	return ((UARTx->MSR) & UART1_MSR_BITMASK);
 2357              		.loc 1 1211 0
 2358 0d84 7B68     		ldr	r3, [r7, #4]
 2359 0d86 1B7E     		ldrb	r3, [r3, #24]
 2360 0d88 DBB2     		uxtb	r3, r3
1212:Libraries/uC-CSP/LPC17xx/lpc17xx_uart.c **** }
 2361              		.loc 1 1212 0
 2362 0d8a 1846     		mov	r0, r3
 2363 0d8c 07F10C07 		add	r7, r7, #12
 2364 0d90 BD46     		mov	sp, r7
 2365 0d92 80BC     		pop	{r7}
 2366 0d94 7047     		bx	lr
 2367              		.cfi_endproc
 2368              	.LFE75:
 2370 0d96 00BF     		.align	2
 2371              		.global	UART_RS485Config
 2372              		.thumb
 2373              		.thumb_func
 2375              	UART_RS485Config:
 2376              	.LFB76:
1213:Libraries/uC-CSP/LPC17xx/lpc17xx_uart.c **** 
1214:Libraries/uC-CSP/LPC17xx/lpc17xx_uart.c **** 
1215:Libraries/uC-CSP/LPC17xx/lpc17xx_uart.c **** /* UART RS485 functions --------------------------------------------------------------*/
1216:Libraries/uC-CSP/LPC17xx/lpc17xx_uart.c **** 
1217:Libraries/uC-CSP/LPC17xx/lpc17xx_uart.c **** /*********************************************************************//**
1218:Libraries/uC-CSP/LPC17xx/lpc17xx_uart.c ****  * @brief		Configure UART peripheral in RS485 mode according to the specified
1219:Libraries/uC-CSP/LPC17xx/lpc17xx_uart.c **** *               parameters in the RS485ConfigStruct.
1220:Libraries/uC-CSP/LPC17xx/lpc17xx_uart.c ****  * @param[in]	UARTx	LPC_UART1 (only)
1221:Libraries/uC-CSP/LPC17xx/lpc17xx_uart.c ****  * @param[in]	RS485ConfigStruct Pointer to a UART1_RS485_CTRLCFG_Type structure
1222:Libraries/uC-CSP/LPC17xx/lpc17xx_uart.c **** *                    that contains the configuration information for specified UART
1223:Libraries/uC-CSP/LPC17xx/lpc17xx_uart.c **** *                    in RS485 mode.
1224:Libraries/uC-CSP/LPC17xx/lpc17xx_uart.c ****  * @return		None
1225:Libraries/uC-CSP/LPC17xx/lpc17xx_uart.c ****  **********************************************************************/
1226:Libraries/uC-CSP/LPC17xx/lpc17xx_uart.c **** void UART_RS485Config(LPC_UART1_TypeDef *UARTx, UART1_RS485_CTRLCFG_Type *RS485ConfigStruct)
1227:Libraries/uC-CSP/LPC17xx/lpc17xx_uart.c **** {
 2377              		.loc 1 1227 0
 2378              		.cfi_startproc
 2379              		@ args = 0, pretend = 0, frame = 16
 2380              		@ frame_needed = 1, uses_anonymous_args = 0
 2381              		@ link register save eliminated.
 2382 0d98 80B4     		push	{r7}
 2383              	.LCFI63:
 2384              		.cfi_def_cfa_offset 4
 2385              		.cfi_offset 7, -4
 2386 0d9a 85B0     		sub	sp, sp, #20
 2387              	.LCFI64:
 2388              		.cfi_def_cfa_offset 24
 2389 0d9c 00AF     		add	r7, sp, #0
 2390              	.LCFI65:
 2391              		.cfi_def_cfa_register 7
 2392 0d9e 7860     		str	r0, [r7, #4]
 2393 0da0 3960     		str	r1, [r7, #0]
1228:Libraries/uC-CSP/LPC17xx/lpc17xx_uart.c **** 	uint32_t tmp;
1229:Libraries/uC-CSP/LPC17xx/lpc17xx_uart.c **** 
1230:Libraries/uC-CSP/LPC17xx/lpc17xx_uart.c **** 	//CHECK_PARAM(PARAM_UART1_MODEM(UARTx));
1231:Libraries/uC-CSP/LPC17xx/lpc17xx_uart.c **** 	//CHECK_PARAM(PARAM_FUNCTIONALSTATE(RS485ConfigStruct->AutoAddrDetect_State));
1232:Libraries/uC-CSP/LPC17xx/lpc17xx_uart.c **** 	//CHECK_PARAM(PARAM_FUNCTIONALSTATE(RS485ConfigStruct->AutoDirCtrl_State));
1233:Libraries/uC-CSP/LPC17xx/lpc17xx_uart.c **** 	//CHECK_PARAM(PARAM_UART1_RS485_CFG_DELAYVALUE(RS485ConfigStruct->DelayValue));
1234:Libraries/uC-CSP/LPC17xx/lpc17xx_uart.c **** 	//CHECK_PARAM(PARAM_SETSTATE(RS485ConfigStruct->DirCtrlPol_Level));
1235:Libraries/uC-CSP/LPC17xx/lpc17xx_uart.c **** 	//CHECK_PARAM(PARAM_UART_RS485_DIRCTRL_PIN(RS485ConfigStruct->DirCtrlPin));
1236:Libraries/uC-CSP/LPC17xx/lpc17xx_uart.c **** 	//CHECK_PARAM(PARAM_UART1_RS485_CFG_MATCHADDRVALUE(RS485ConfigStruct->MatchAddrValue));
1237:Libraries/uC-CSP/LPC17xx/lpc17xx_uart.c **** 	//CHECK_PARAM(PARAM_FUNCTIONALSTATE(RS485ConfigStruct->NormalMultiDropMode_State));
1238:Libraries/uC-CSP/LPC17xx/lpc17xx_uart.c **** 	//CHECK_PARAM(PARAM_FUNCTIONALSTATE(RS485ConfigStruct->Rx_State));
1239:Libraries/uC-CSP/LPC17xx/lpc17xx_uart.c **** 
1240:Libraries/uC-CSP/LPC17xx/lpc17xx_uart.c **** 	tmp = 0;
 2394              		.loc 1 1240 0
 2395 0da2 4FF00003 		mov	r3, #0
 2396 0da6 FB60     		str	r3, [r7, #12]
1241:Libraries/uC-CSP/LPC17xx/lpc17xx_uart.c **** 	// If Auto Direction Control is enabled -  This function is used in Master mode
1242:Libraries/uC-CSP/LPC17xx/lpc17xx_uart.c **** 	if (RS485ConfigStruct->AutoDirCtrl_State == ENABLE)
 2397              		.loc 1 1242 0
 2398 0da8 3B68     		ldr	r3, [r7, #0]
 2399 0daa DB78     		ldrb	r3, [r3, #3]	@ zero_extendqisi2
 2400 0dac 012B     		cmp	r3, #1
 2401 0dae 18D1     		bne	.L182
1243:Libraries/uC-CSP/LPC17xx/lpc17xx_uart.c **** 	{
1244:Libraries/uC-CSP/LPC17xx/lpc17xx_uart.c **** 		tmp |= UART1_RS485CTRL_DCTRL_EN;
 2402              		.loc 1 1244 0
 2403 0db0 FB68     		ldr	r3, [r7, #12]
 2404 0db2 43F01003 		orr	r3, r3, #16
 2405 0db6 FB60     		str	r3, [r7, #12]
1245:Libraries/uC-CSP/LPC17xx/lpc17xx_uart.c **** 
1246:Libraries/uC-CSP/LPC17xx/lpc17xx_uart.c **** 		// Set polar
1247:Libraries/uC-CSP/LPC17xx/lpc17xx_uart.c **** 		if (RS485ConfigStruct->DirCtrlPol_Level == SET)
 2406              		.loc 1 1247 0
 2407 0db8 3B68     		ldr	r3, [r7, #0]
 2408 0dba 5B79     		ldrb	r3, [r3, #5]	@ zero_extendqisi2
 2409 0dbc 012B     		cmp	r3, #1
 2410 0dbe 03D1     		bne	.L183
1248:Libraries/uC-CSP/LPC17xx/lpc17xx_uart.c **** 		{
1249:Libraries/uC-CSP/LPC17xx/lpc17xx_uart.c **** 			tmp |= UART1_RS485CTRL_OINV_1;
 2411              		.loc 1 1249 0
 2412 0dc0 FB68     		ldr	r3, [r7, #12]
 2413 0dc2 43F02003 		orr	r3, r3, #32
 2414 0dc6 FB60     		str	r3, [r7, #12]
 2415              	.L183:
1250:Libraries/uC-CSP/LPC17xx/lpc17xx_uart.c **** 		}
1251:Libraries/uC-CSP/LPC17xx/lpc17xx_uart.c **** 
1252:Libraries/uC-CSP/LPC17xx/lpc17xx_uart.c **** 		// Set pin according to
1253:Libraries/uC-CSP/LPC17xx/lpc17xx_uart.c **** 		if (RS485ConfigStruct->DirCtrlPin == UART1_RS485_DIRCTRL_DTR)
 2416              		.loc 1 1253 0
 2417 0dc8 3B68     		ldr	r3, [r7, #0]
 2418 0dca 1B79     		ldrb	r3, [r3, #4]	@ zero_extendqisi2
 2419 0dcc 012B     		cmp	r3, #1
 2420 0dce 03D1     		bne	.L184
1254:Libraries/uC-CSP/LPC17xx/lpc17xx_uart.c **** 		{
1255:Libraries/uC-CSP/LPC17xx/lpc17xx_uart.c **** 			tmp |= UART1_RS485CTRL_SEL_DTR;
 2421              		.loc 1 1255 0
 2422 0dd0 FB68     		ldr	r3, [r7, #12]
 2423 0dd2 43F00803 		orr	r3, r3, #8
 2424 0dd6 FB60     		str	r3, [r7, #12]
 2425              	.L184:
1256:Libraries/uC-CSP/LPC17xx/lpc17xx_uart.c **** 		}
1257:Libraries/uC-CSP/LPC17xx/lpc17xx_uart.c **** 
1258:Libraries/uC-CSP/LPC17xx/lpc17xx_uart.c **** 		// Fill delay time
1259:Libraries/uC-CSP/LPC17xx/lpc17xx_uart.c **** 		UARTx->RS485DLY = RS485ConfigStruct->DelayValue & UART1_RS485DLY_BITMASK;
 2426              		.loc 1 1259 0
 2427 0dd8 3B68     		ldr	r3, [r7, #0]
 2428 0dda DA79     		ldrb	r2, [r3, #7]	@ zero_extendqisi2
 2429 0ddc 7B68     		ldr	r3, [r7, #4]
 2430 0dde 83F85420 		strb	r2, [r3, #84]
 2431              	.L182:
1260:Libraries/uC-CSP/LPC17xx/lpc17xx_uart.c **** 	}
1261:Libraries/uC-CSP/LPC17xx/lpc17xx_uart.c **** 
1262:Libraries/uC-CSP/LPC17xx/lpc17xx_uart.c **** 	// MultiDrop mode is enable
1263:Libraries/uC-CSP/LPC17xx/lpc17xx_uart.c **** 	if (RS485ConfigStruct->NormalMultiDropMode_State == ENABLE)
 2432              		.loc 1 1263 0
 2433 0de2 3B68     		ldr	r3, [r7, #0]
 2434 0de4 1B78     		ldrb	r3, [r3, #0]	@ zero_extendqisi2
 2435 0de6 012B     		cmp	r3, #1
 2436 0de8 03D1     		bne	.L185
1264:Libraries/uC-CSP/LPC17xx/lpc17xx_uart.c **** 	{
1265:Libraries/uC-CSP/LPC17xx/lpc17xx_uart.c **** 		tmp |= UART1_RS485CTRL_NMM_EN;
 2437              		.loc 1 1265 0
 2438 0dea FB68     		ldr	r3, [r7, #12]
 2439 0dec 43F00103 		orr	r3, r3, #1
 2440 0df0 FB60     		str	r3, [r7, #12]
 2441              	.L185:
1266:Libraries/uC-CSP/LPC17xx/lpc17xx_uart.c **** 	}
1267:Libraries/uC-CSP/LPC17xx/lpc17xx_uart.c **** 
1268:Libraries/uC-CSP/LPC17xx/lpc17xx_uart.c **** 	// Auto Address Detect function
1269:Libraries/uC-CSP/LPC17xx/lpc17xx_uart.c **** 	if (RS485ConfigStruct->AutoAddrDetect_State == ENABLE)
 2442              		.loc 1 1269 0
 2443 0df2 3B68     		ldr	r3, [r7, #0]
 2444 0df4 9B78     		ldrb	r3, [r3, #2]	@ zero_extendqisi2
 2445 0df6 012B     		cmp	r3, #1
 2446 0df8 08D1     		bne	.L186
1270:Libraries/uC-CSP/LPC17xx/lpc17xx_uart.c **** 	{
1271:Libraries/uC-CSP/LPC17xx/lpc17xx_uart.c **** 		tmp |= UART1_RS485CTRL_AADEN;
 2447              		.loc 1 1271 0
 2448 0dfa FB68     		ldr	r3, [r7, #12]
 2449 0dfc 43F00403 		orr	r3, r3, #4
 2450 0e00 FB60     		str	r3, [r7, #12]
1272:Libraries/uC-CSP/LPC17xx/lpc17xx_uart.c **** 		// Fill Match Address
1273:Libraries/uC-CSP/LPC17xx/lpc17xx_uart.c **** 		UARTx->ADRMATCH = RS485ConfigStruct->MatchAddrValue & UART1_RS485ADRMATCH_BITMASK;
 2451              		.loc 1 1273 0
 2452 0e02 3B68     		ldr	r3, [r7, #0]
 2453 0e04 9A79     		ldrb	r2, [r3, #6]	@ zero_extendqisi2
 2454 0e06 7B68     		ldr	r3, [r7, #4]
 2455 0e08 83F85020 		strb	r2, [r3, #80]
 2456              	.L186:
1274:Libraries/uC-CSP/LPC17xx/lpc17xx_uart.c **** 	}
1275:Libraries/uC-CSP/LPC17xx/lpc17xx_uart.c **** 
1276:Libraries/uC-CSP/LPC17xx/lpc17xx_uart.c **** 
1277:Libraries/uC-CSP/LPC17xx/lpc17xx_uart.c **** 	// Receiver is disable
1278:Libraries/uC-CSP/LPC17xx/lpc17xx_uart.c **** 	if (RS485ConfigStruct->Rx_State == DISABLE)
 2457              		.loc 1 1278 0
 2458 0e0c 3B68     		ldr	r3, [r7, #0]
 2459 0e0e 5B78     		ldrb	r3, [r3, #1]	@ zero_extendqisi2
 2460 0e10 002B     		cmp	r3, #0
 2461 0e12 03D1     		bne	.L187
1279:Libraries/uC-CSP/LPC17xx/lpc17xx_uart.c **** 	{
1280:Libraries/uC-CSP/LPC17xx/lpc17xx_uart.c **** 		tmp |= UART1_RS485CTRL_RX_DIS;
 2462              		.loc 1 1280 0
 2463 0e14 FB68     		ldr	r3, [r7, #12]
 2464 0e16 43F00203 		orr	r3, r3, #2
 2465 0e1a FB60     		str	r3, [r7, #12]
 2466              	.L187:
1281:Libraries/uC-CSP/LPC17xx/lpc17xx_uart.c **** 	}
1282:Libraries/uC-CSP/LPC17xx/lpc17xx_uart.c **** 
1283:Libraries/uC-CSP/LPC17xx/lpc17xx_uart.c **** 	// write back to RS485 control register
1284:Libraries/uC-CSP/LPC17xx/lpc17xx_uart.c **** 	UARTx->RS485CTRL = tmp & UART1_RS485CTRL_BITMASK;
 2467              		.loc 1 1284 0
 2468 0e1c FB68     		ldr	r3, [r7, #12]
 2469 0e1e DBB2     		uxtb	r3, r3
 2470 0e20 03F03F03 		and	r3, r3, #63
 2471 0e24 DAB2     		uxtb	r2, r3
 2472 0e26 7B68     		ldr	r3, [r7, #4]
 2473 0e28 83F84C20 		strb	r2, [r3, #76]
1285:Libraries/uC-CSP/LPC17xx/lpc17xx_uart.c **** 
1286:Libraries/uC-CSP/LPC17xx/lpc17xx_uart.c **** 	// Enable Parity function and leave parity in stick '0' parity as default
1287:Libraries/uC-CSP/LPC17xx/lpc17xx_uart.c **** 	UARTx->LCR |= (UART_LCR_PARITY_F_0 | UART_LCR_PARITY_EN);
 2474              		.loc 1 1287 0
 2475 0e2c 7B68     		ldr	r3, [r7, #4]
 2476 0e2e 1B7B     		ldrb	r3, [r3, #12]
 2477 0e30 DBB2     		uxtb	r3, r3
 2478 0e32 43F03803 		orr	r3, r3, #56
 2479 0e36 DAB2     		uxtb	r2, r3
 2480 0e38 7B68     		ldr	r3, [r7, #4]
 2481 0e3a 1A73     		strb	r2, [r3, #12]
1288:Libraries/uC-CSP/LPC17xx/lpc17xx_uart.c **** }
 2482              		.loc 1 1288 0
 2483 0e3c 07F11407 		add	r7, r7, #20
 2484 0e40 BD46     		mov	sp, r7
 2485 0e42 80BC     		pop	{r7}
 2486 0e44 7047     		bx	lr
 2487              		.cfi_endproc
 2488              	.LFE76:
 2490 0e46 00BF     		.align	2
 2491              		.global	UART_RS485ReceiverCmd
 2492              		.thumb
 2493              		.thumb_func
 2495              	UART_RS485ReceiverCmd:
 2496              	.LFB77:
1289:Libraries/uC-CSP/LPC17xx/lpc17xx_uart.c **** 
1290:Libraries/uC-CSP/LPC17xx/lpc17xx_uart.c **** /*********************************************************************//**
1291:Libraries/uC-CSP/LPC17xx/lpc17xx_uart.c ****  * @brief		Enable/Disable receiver in RS485 module in UART1
1292:Libraries/uC-CSP/LPC17xx/lpc17xx_uart.c ****  * @param[in]	UARTx	LPC_UART1 (only)
1293:Libraries/uC-CSP/LPC17xx/lpc17xx_uart.c ****  * @param[in]	NewState	New State of command, should be:
1294:Libraries/uC-CSP/LPC17xx/lpc17xx_uart.c ****  * 							- ENABLE: Enable this function.
1295:Libraries/uC-CSP/LPC17xx/lpc17xx_uart.c ****  * 							- DISABLE: Disable this function.
1296:Libraries/uC-CSP/LPC17xx/lpc17xx_uart.c ****  * @return		None
1297:Libraries/uC-CSP/LPC17xx/lpc17xx_uart.c ****  **********************************************************************/
1298:Libraries/uC-CSP/LPC17xx/lpc17xx_uart.c **** void UART_RS485ReceiverCmd(LPC_UART1_TypeDef *UARTx, FunctionalState NewState)
1299:Libraries/uC-CSP/LPC17xx/lpc17xx_uart.c **** {
 2497              		.loc 1 1299 0
 2498              		.cfi_startproc
 2499              		@ args = 0, pretend = 0, frame = 8
 2500              		@ frame_needed = 1, uses_anonymous_args = 0
 2501              		@ link register save eliminated.
 2502 0e48 80B4     		push	{r7}
 2503              	.LCFI66:
 2504              		.cfi_def_cfa_offset 4
 2505              		.cfi_offset 7, -4
 2506 0e4a 83B0     		sub	sp, sp, #12
 2507              	.LCFI67:
 2508              		.cfi_def_cfa_offset 16
 2509 0e4c 00AF     		add	r7, sp, #0
 2510              	.LCFI68:
 2511              		.cfi_def_cfa_register 7
 2512 0e4e 7860     		str	r0, [r7, #4]
 2513 0e50 0B46     		mov	r3, r1
 2514 0e52 FB70     		strb	r3, [r7, #3]
1300:Libraries/uC-CSP/LPC17xx/lpc17xx_uart.c **** 	if (NewState == ENABLE){
 2515              		.loc 1 1300 0
 2516 0e54 FB78     		ldrb	r3, [r7, #3]	@ zero_extendqisi2
 2517 0e56 012B     		cmp	r3, #1
 2518 0e58 0AD1     		bne	.L189
1301:Libraries/uC-CSP/LPC17xx/lpc17xx_uart.c **** 		UARTx->RS485CTRL &= ~UART1_RS485CTRL_RX_DIS;
 2519              		.loc 1 1301 0
 2520 0e5a 7B68     		ldr	r3, [r7, #4]
 2521 0e5c 93F84C30 		ldrb	r3, [r3, #76]
 2522 0e60 DBB2     		uxtb	r3, r3
 2523 0e62 23F00203 		bic	r3, r3, #2
 2524 0e66 DAB2     		uxtb	r2, r3
 2525 0e68 7B68     		ldr	r3, [r7, #4]
 2526 0e6a 83F84C20 		strb	r2, [r3, #76]
 2527 0e6e 09E0     		b	.L188
 2528              	.L189:
1302:Libraries/uC-CSP/LPC17xx/lpc17xx_uart.c **** 	} else {
1303:Libraries/uC-CSP/LPC17xx/lpc17xx_uart.c **** 		UARTx->RS485CTRL |= UART1_RS485CTRL_RX_DIS;
 2529              		.loc 1 1303 0
 2530 0e70 7B68     		ldr	r3, [r7, #4]
 2531 0e72 93F84C30 		ldrb	r3, [r3, #76]
 2532 0e76 DBB2     		uxtb	r3, r3
 2533 0e78 43F00203 		orr	r3, r3, #2
 2534 0e7c DAB2     		uxtb	r2, r3
 2535 0e7e 7B68     		ldr	r3, [r7, #4]
 2536 0e80 83F84C20 		strb	r2, [r3, #76]
 2537              	.L188:
1304:Libraries/uC-CSP/LPC17xx/lpc17xx_uart.c **** 	}
1305:Libraries/uC-CSP/LPC17xx/lpc17xx_uart.c **** }
 2538              		.loc 1 1305 0
 2539 0e84 07F10C07 		add	r7, r7, #12
 2540 0e88 BD46     		mov	sp, r7
 2541 0e8a 80BC     		pop	{r7}
 2542 0e8c 7047     		bx	lr
 2543              		.cfi_endproc
 2544              	.LFE77:
 2546 0e8e 00BF     		.align	2
 2547              		.global	UART_RS485Send
 2548              		.thumb
 2549              		.thumb_func
 2551              	UART_RS485Send:
 2552              	.LFB78:
1306:Libraries/uC-CSP/LPC17xx/lpc17xx_uart.c **** 
1307:Libraries/uC-CSP/LPC17xx/lpc17xx_uart.c **** /*********************************************************************//**
1308:Libraries/uC-CSP/LPC17xx/lpc17xx_uart.c ****  * @brief		Send data on RS485 bus with specified parity stick value (9-bit mode).
1309:Libraries/uC-CSP/LPC17xx/lpc17xx_uart.c ****  * @param[in]	UARTx	LPC_UART1 (only)
1310:Libraries/uC-CSP/LPC17xx/lpc17xx_uart.c ****  * @param[in]	pDatFrm 	Pointer to data frame.
1311:Libraries/uC-CSP/LPC17xx/lpc17xx_uart.c ****  * @param[in]	size		Size of data.
1312:Libraries/uC-CSP/LPC17xx/lpc17xx_uart.c ****  * @param[in]	ParityStick	Parity Stick value, should be 0 or 1.
1313:Libraries/uC-CSP/LPC17xx/lpc17xx_uart.c ****  * @return		None
1314:Libraries/uC-CSP/LPC17xx/lpc17xx_uart.c ****  **********************************************************************/
1315:Libraries/uC-CSP/LPC17xx/lpc17xx_uart.c **** uint32_t UART_RS485Send(LPC_UART1_TypeDef *UARTx, uint8_t *pDatFrm, \
1316:Libraries/uC-CSP/LPC17xx/lpc17xx_uart.c **** 					uint32_t size, uint8_t ParityStick)
1317:Libraries/uC-CSP/LPC17xx/lpc17xx_uart.c **** {
 2553              		.loc 1 1317 0
 2554              		.cfi_startproc
 2555              		@ args = 0, pretend = 0, frame = 24
 2556              		@ frame_needed = 1, uses_anonymous_args = 0
 2557 0e90 80B5     		push	{r7, lr}
 2558              	.LCFI69:
 2559              		.cfi_def_cfa_offset 8
 2560              		.cfi_offset 14, -4
 2561              		.cfi_offset 7, -8
 2562 0e92 86B0     		sub	sp, sp, #24
 2563              	.LCFI70:
 2564              		.cfi_def_cfa_offset 32
 2565 0e94 00AF     		add	r7, sp, #0
 2566              	.LCFI71:
 2567              		.cfi_def_cfa_register 7
 2568 0e96 F860     		str	r0, [r7, #12]
 2569 0e98 B960     		str	r1, [r7, #8]
 2570 0e9a 7A60     		str	r2, [r7, #4]
 2571 0e9c FB70     		strb	r3, [r7, #3]
1318:Libraries/uC-CSP/LPC17xx/lpc17xx_uart.c **** 	uint8_t tmp, save;
1319:Libraries/uC-CSP/LPC17xx/lpc17xx_uart.c **** 	uint32_t cnt;
1320:Libraries/uC-CSP/LPC17xx/lpc17xx_uart.c **** 
1321:Libraries/uC-CSP/LPC17xx/lpc17xx_uart.c **** 	if (ParityStick){
 2572              		.loc 1 1321 0
 2573 0e9e FB78     		ldrb	r3, [r7, #3]	@ zero_extendqisi2
 2574 0ea0 002B     		cmp	r3, #0
 2575 0ea2 1FD0     		beq	.L192
1322:Libraries/uC-CSP/LPC17xx/lpc17xx_uart.c **** 		save = tmp = UARTx->LCR & UART_LCR_BITMASK;
 2576              		.loc 1 1322 0
 2577 0ea4 FB68     		ldr	r3, [r7, #12]
 2578 0ea6 1B7B     		ldrb	r3, [r3, #12]
 2579 0ea8 FB74     		strb	r3, [r7, #19]
 2580 0eaa FB7C     		ldrb	r3, [r7, #19]
 2581 0eac BB74     		strb	r3, [r7, #18]
1323:Libraries/uC-CSP/LPC17xx/lpc17xx_uart.c **** 		tmp &= ~(UART_LCR_PARITY_EVEN);
 2582              		.loc 1 1323 0
 2583 0eae FB7C     		ldrb	r3, [r7, #19]
 2584 0eb0 23F01003 		bic	r3, r3, #16
 2585 0eb4 FB74     		strb	r3, [r7, #19]
1324:Libraries/uC-CSP/LPC17xx/lpc17xx_uart.c **** 		UARTx->LCR = tmp;
 2586              		.loc 1 1324 0
 2587 0eb6 FB68     		ldr	r3, [r7, #12]
 2588 0eb8 FA7C     		ldrb	r2, [r7, #19]
 2589 0eba 1A73     		strb	r2, [r3, #12]
1325:Libraries/uC-CSP/LPC17xx/lpc17xx_uart.c **** 		cnt = UART_Send((LPC_UART_TypeDef *)UARTx, pDatFrm, size, BLOCKING);
 2590              		.loc 1 1325 0
 2591 0ebc F868     		ldr	r0, [r7, #12]
 2592 0ebe B968     		ldr	r1, [r7, #8]
 2593 0ec0 7A68     		ldr	r2, [r7, #4]
 2594 0ec2 4FF00103 		mov	r3, #1
 2595 0ec6 FFF7FEFF 		bl	UART_Send
 2596 0eca 7861     		str	r0, [r7, #20]
1326:Libraries/uC-CSP/LPC17xx/lpc17xx_uart.c **** 		while (!(UARTx->LSR & UART_LSR_TEMT));
 2597              		.loc 1 1326 0
 2598 0ecc 00BF     		nop
 2599              	.L193:
 2600              		.loc 1 1326 0 is_stmt 0 discriminator 1
 2601 0ece FB68     		ldr	r3, [r7, #12]
 2602 0ed0 1B7D     		ldrb	r3, [r3, #20]
 2603 0ed2 DBB2     		uxtb	r3, r3
 2604 0ed4 03F04003 		and	r3, r3, #64
 2605 0ed8 002B     		cmp	r3, #0
 2606 0eda F8D0     		beq	.L193
1327:Libraries/uC-CSP/LPC17xx/lpc17xx_uart.c **** 		UARTx->LCR = save;
 2607              		.loc 1 1327 0 is_stmt 1
 2608 0edc FB68     		ldr	r3, [r7, #12]
 2609 0ede BA7C     		ldrb	r2, [r7, #18]
 2610 0ee0 1A73     		strb	r2, [r3, #12]
 2611 0ee2 0FE0     		b	.L194
 2612              	.L192:
1328:Libraries/uC-CSP/LPC17xx/lpc17xx_uart.c **** 	} else {
1329:Libraries/uC-CSP/LPC17xx/lpc17xx_uart.c **** 		cnt = UART_Send((LPC_UART_TypeDef *)UARTx, pDatFrm, size, BLOCKING);
 2613              		.loc 1 1329 0
 2614 0ee4 F868     		ldr	r0, [r7, #12]
 2615 0ee6 B968     		ldr	r1, [r7, #8]
 2616 0ee8 7A68     		ldr	r2, [r7, #4]
 2617 0eea 4FF00103 		mov	r3, #1
 2618 0eee FFF7FEFF 		bl	UART_Send
 2619 0ef2 7861     		str	r0, [r7, #20]
1330:Libraries/uC-CSP/LPC17xx/lpc17xx_uart.c **** 		while (!(UARTx->LSR & UART_LSR_TEMT));
 2620              		.loc 1 1330 0
 2621 0ef4 00BF     		nop
 2622              	.L195:
 2623              		.loc 1 1330 0 is_stmt 0 discriminator 1
 2624 0ef6 FB68     		ldr	r3, [r7, #12]
 2625 0ef8 1B7D     		ldrb	r3, [r3, #20]
 2626 0efa DBB2     		uxtb	r3, r3
 2627 0efc 03F04003 		and	r3, r3, #64
 2628 0f00 002B     		cmp	r3, #0
 2629 0f02 F8D0     		beq	.L195
 2630              	.L194:
1331:Libraries/uC-CSP/LPC17xx/lpc17xx_uart.c **** 	}
1332:Libraries/uC-CSP/LPC17xx/lpc17xx_uart.c **** 	return cnt;
 2631              		.loc 1 1332 0 is_stmt 1
 2632 0f04 7B69     		ldr	r3, [r7, #20]
1333:Libraries/uC-CSP/LPC17xx/lpc17xx_uart.c **** }
 2633              		.loc 1 1333 0
 2634 0f06 1846     		mov	r0, r3
 2635 0f08 07F11807 		add	r7, r7, #24
 2636 0f0c BD46     		mov	sp, r7
 2637 0f0e 80BD     		pop	{r7, pc}
 2638              		.cfi_endproc
 2639              	.LFE78:
 2641              		.align	2
 2642              		.global	UART_RS485SendSlvAddr
 2643              		.thumb
 2644              		.thumb_func
 2646              	UART_RS485SendSlvAddr:
 2647              	.LFB79:
1334:Libraries/uC-CSP/LPC17xx/lpc17xx_uart.c **** 
1335:Libraries/uC-CSP/LPC17xx/lpc17xx_uart.c **** /*********************************************************************//**
1336:Libraries/uC-CSP/LPC17xx/lpc17xx_uart.c ****  * @brief		Send Slave address frames on RS485 bus.
1337:Libraries/uC-CSP/LPC17xx/lpc17xx_uart.c ****  * @param[in]	UARTx	LPC_UART1 (only)
1338:Libraries/uC-CSP/LPC17xx/lpc17xx_uart.c ****  * @param[in]	SlvAddr Slave Address.
1339:Libraries/uC-CSP/LPC17xx/lpc17xx_uart.c ****  * @return		None
1340:Libraries/uC-CSP/LPC17xx/lpc17xx_uart.c ****  **********************************************************************/
1341:Libraries/uC-CSP/LPC17xx/lpc17xx_uart.c **** void UART_RS485SendSlvAddr(LPC_UART1_TypeDef *UARTx, uint8_t SlvAddr)
1342:Libraries/uC-CSP/LPC17xx/lpc17xx_uart.c **** {
 2648              		.loc 1 1342 0
 2649              		.cfi_startproc
 2650              		@ args = 0, pretend = 0, frame = 8
 2651              		@ frame_needed = 1, uses_anonymous_args = 0
 2652 0f10 80B5     		push	{r7, lr}
 2653              	.LCFI72:
 2654              		.cfi_def_cfa_offset 8
 2655              		.cfi_offset 14, -4
 2656              		.cfi_offset 7, -8
 2657 0f12 82B0     		sub	sp, sp, #8
 2658              	.LCFI73:
 2659              		.cfi_def_cfa_offset 16
 2660 0f14 00AF     		add	r7, sp, #0
 2661              	.LCFI74:
 2662              		.cfi_def_cfa_register 7
 2663 0f16 7860     		str	r0, [r7, #4]
 2664 0f18 0B46     		mov	r3, r1
 2665 0f1a FB70     		strb	r3, [r7, #3]
1343:Libraries/uC-CSP/LPC17xx/lpc17xx_uart.c **** 	UART_RS485Send(UARTx, &SlvAddr, 1, 1);
 2666              		.loc 1 1343 0
 2667 0f1c 7868     		ldr	r0, [r7, #4]
 2668 0f1e 07F10303 		add	r3, r7, #3
 2669 0f22 1946     		mov	r1, r3
 2670 0f24 4FF00102 		mov	r2, #1
 2671 0f28 4FF00103 		mov	r3, #1
 2672 0f2c FFF7FEFF 		bl	UART_RS485Send
1344:Libraries/uC-CSP/LPC17xx/lpc17xx_uart.c **** }
 2673              		.loc 1 1344 0
 2674 0f30 07F10807 		add	r7, r7, #8
 2675 0f34 BD46     		mov	sp, r7
 2676 0f36 80BD     		pop	{r7, pc}
 2677              		.cfi_endproc
 2678              	.LFE79:
 2680              		.align	2
 2681              		.global	UART_RS485SendData
 2682              		.thumb
 2683              		.thumb_func
 2685              	UART_RS485SendData:
 2686              	.LFB80:
1345:Libraries/uC-CSP/LPC17xx/lpc17xx_uart.c **** 
1346:Libraries/uC-CSP/LPC17xx/lpc17xx_uart.c **** /*********************************************************************//**
1347:Libraries/uC-CSP/LPC17xx/lpc17xx_uart.c ****  * @brief		Send Data frames on RS485 bus.
1348:Libraries/uC-CSP/LPC17xx/lpc17xx_uart.c ****  * @param[in]	UARTx	LPC_UART1 (only)
1349:Libraries/uC-CSP/LPC17xx/lpc17xx_uart.c ****  * @param[in]	pData Pointer to data to be sent.
1350:Libraries/uC-CSP/LPC17xx/lpc17xx_uart.c ****  * @param[in]	size Size of data frame to be sent.
1351:Libraries/uC-CSP/LPC17xx/lpc17xx_uart.c ****  * @return		None
1352:Libraries/uC-CSP/LPC17xx/lpc17xx_uart.c ****  **********************************************************************/
1353:Libraries/uC-CSP/LPC17xx/lpc17xx_uart.c **** uint32_t UART_RS485SendData(LPC_UART1_TypeDef *UARTx, uint8_t *pData, uint32_t size)
1354:Libraries/uC-CSP/LPC17xx/lpc17xx_uart.c **** {
 2687              		.loc 1 1354 0
 2688              		.cfi_startproc
 2689              		@ args = 0, pretend = 0, frame = 16
 2690              		@ frame_needed = 1, uses_anonymous_args = 0
 2691 0f38 80B5     		push	{r7, lr}
 2692              	.LCFI75:
 2693              		.cfi_def_cfa_offset 8
 2694              		.cfi_offset 14, -4
 2695              		.cfi_offset 7, -8
 2696 0f3a 84B0     		sub	sp, sp, #16
 2697              	.LCFI76:
 2698              		.cfi_def_cfa_offset 24
 2699 0f3c 00AF     		add	r7, sp, #0
 2700              	.LCFI77:
 2701              		.cfi_def_cfa_register 7
 2702 0f3e F860     		str	r0, [r7, #12]
 2703 0f40 B960     		str	r1, [r7, #8]
 2704 0f42 7A60     		str	r2, [r7, #4]
1355:Libraries/uC-CSP/LPC17xx/lpc17xx_uart.c **** 	return (UART_RS485Send(UARTx, pData, size, 0));
 2705              		.loc 1 1355 0
 2706 0f44 F868     		ldr	r0, [r7, #12]
 2707 0f46 B968     		ldr	r1, [r7, #8]
 2708 0f48 7A68     		ldr	r2, [r7, #4]
 2709 0f4a 4FF00003 		mov	r3, #0
 2710 0f4e FFF7FEFF 		bl	UART_RS485Send
 2711 0f52 0346     		mov	r3, r0
1356:Libraries/uC-CSP/LPC17xx/lpc17xx_uart.c **** }
 2712              		.loc 1 1356 0
 2713 0f54 1846     		mov	r0, r3
 2714 0f56 07F11007 		add	r7, r7, #16
 2715 0f5a BD46     		mov	sp, r7
 2716 0f5c 80BD     		pop	{r7, pc}
 2717              		.cfi_endproc
 2718              	.LFE80:
 2720              	.Letext0:
 2721              		.file 2 "/home/wimma/bin/codesourcery/Sourcery_CodeBench_Lite_for_ARM_EABI/bin/../lib/gcc/arm-none
 2722              		.file 3 "Libraries/CM3/inc/LPC17xx.h"
 2723              		.file 4 "Libraries/CM3/inc/lpc_types.h"
 2724              		.file 5 "Libraries/uC-CSP/LPC17xx/lpc17xx_uart.h"
 2725              		.file 6 "Libraries/CM3/inc/core_cm3.h"