   1              		.syntax unified
   2              		.cpu cortex-m3
   3              		.fpu softvfp
   4              		.eabi_attribute 20, 1
   5              		.eabi_attribute 21, 1
   6              		.eabi_attribute 23, 3
   7              		.eabi_attribute 24, 1
   8              		.eabi_attribute 25, 1
   9              		.eabi_attribute 26, 1
  10              		.eabi_attribute 30, 6
  11              		.eabi_attribute 34, 1
  12              		.eabi_attribute 18, 4
  13              		.thumb
  14              		.file	"lib_str.c"
  15              		.text
  16              	.Ltext0:
  17              		.cfi_sections	.debug_frame
  18              		.section	.rodata
  19              		.align	2
  22              	Str_MultOvfThTbl_Int32U:
  23 0000 FFFFFFFF 		.word	-1
  24 0004 FFFFFFFF 		.word	-1
  25 0008 FFFFFF7F 		.word	2147483647
  26 000c 55555555 		.word	1431655765
  27 0010 FFFFFF3F 		.word	1073741823
  28 0014 33333333 		.word	858993459
  29 0018 AAAAAA2A 		.word	715827882
  30 001c 24499224 		.word	613566756
  31 0020 FFFFFF1F 		.word	536870911
  32 0024 1CC7711C 		.word	477218588
  33 0028 99999919 		.word	429496729
  34 002c 74D14517 		.word	390451572
  35 0030 55555515 		.word	357913941
  36 0034 133BB113 		.word	330382099
  37 0038 92244912 		.word	306783378
  38 003c 11111111 		.word	286331153
  39 0040 FFFFFF0F 		.word	268435455
  40 0044 0F0F0F0F 		.word	252645135
  41 0048 8EE3380E 		.word	238609294
  42 004c 5E43790D 		.word	226050910
  43 0050 CCCCCC0C 		.word	214748364
  44 0054 0CC3300C 		.word	204522252
  45 0058 BAE8A20B 		.word	195225786
  46 005c 2C64210B 		.word	186737708
  47 0060 AAAAAA0A 		.word	178956970
  48 0064 A3703D0A 		.word	171798691
  49 0068 899DD809 		.word	165191049
  50 006c 5E427B09 		.word	159072862
  51 0070 49922409 		.word	153391689
  52 0074 B0DCD308 		.word	148102320
  53 0078 88888808 		.word	143165576
  54 007c 84104208 		.word	138547332
  55 0080 FFFFFF07 		.word	134217727
  56 0084 7CF0C107 		.word	130150524
  57 0088 87878707 		.word	126322567
  58 008c 07755007 		.word	122713351
  59 0090 C7711C07 		.word	119304647
  60              		.text
  61              		.align	2
  62              		.global	Str_Len
  63              		.thumb
  64              		.thumb_func
  66              	Str_Len:
  67              	.LFB0:
  68              		.file 1 "Libraries/uC-LIB/lib_str.c"
   1:Libraries/uC-LIB/lib_str.c **** /*
   2:Libraries/uC-LIB/lib_str.c **** ***************************************************************************************************
   3:Libraries/uC-LIB/lib_str.c **** *                                                uC/LIB
   4:Libraries/uC-LIB/lib_str.c **** *                                        CUSTOM LIBRARY MODULES
   5:Libraries/uC-LIB/lib_str.c **** *
   6:Libraries/uC-LIB/lib_str.c **** *                          (c) Copyright 2004-2011; Micrium, Inc.; Weston, FL
   7:Libraries/uC-LIB/lib_str.c **** *
   8:Libraries/uC-LIB/lib_str.c **** *               All rights reserved.  Protected by international copyright laws.
   9:Libraries/uC-LIB/lib_str.c **** *
  10:Libraries/uC-LIB/lib_str.c **** *               uC/LIB is provided in source form to registered licensees ONLY.  It is 
  11:Libraries/uC-LIB/lib_str.c **** *               illegal to distribute this source code to any third party unless you receive 
  12:Libraries/uC-LIB/lib_str.c **** *               written permission by an authorized Micrium representative.  Knowledge of 
  13:Libraries/uC-LIB/lib_str.c **** *               the source code may NOT be used to develop a similar product.
  14:Libraries/uC-LIB/lib_str.c **** *
  15:Libraries/uC-LIB/lib_str.c **** *               Please help us continue to provide the Embedded community with the finest 
  16:Libraries/uC-LIB/lib_str.c **** *               software available.  Your honesty is greatly appreciated.
  17:Libraries/uC-LIB/lib_str.c **** *
  18:Libraries/uC-LIB/lib_str.c **** *               You can contact us at www.micrium.com.
  19:Libraries/uC-LIB/lib_str.c **** ***************************************************************************************************
  20:Libraries/uC-LIB/lib_str.c **** */
  21:Libraries/uC-LIB/lib_str.c **** 
  22:Libraries/uC-LIB/lib_str.c **** /*
  23:Libraries/uC-LIB/lib_str.c **** ***************************************************************************************************
  24:Libraries/uC-LIB/lib_str.c **** *
  25:Libraries/uC-LIB/lib_str.c **** *                                       ASCII STRING MANAGEMENT
  26:Libraries/uC-LIB/lib_str.c **** *
  27:Libraries/uC-LIB/lib_str.c **** * Filename      : lib_str.c
  28:Libraries/uC-LIB/lib_str.c **** * Version       : V1.35.00
  29:Libraries/uC-LIB/lib_str.c **** * Programmer(s) : ITJ
  30:Libraries/uC-LIB/lib_str.c **** *                 BAN
  31:Libraries/uC-LIB/lib_str.c **** *                 JDH
  32:Libraries/uC-LIB/lib_str.c **** ***************************************************************************************************
  33:Libraries/uC-LIB/lib_str.c **** * Note(s)       : (1) NO compiler-supplied standard library functions are used in library or produc
  34:Libraries/uC-LIB/lib_str.c **** *
  35:Libraries/uC-LIB/lib_str.c **** *                     (a) ALL standard library functions are implemented in the custom library modu
  36:Libraries/uC-LIB/lib_str.c **** *
  37:Libraries/uC-LIB/lib_str.c **** *                         (1) \<Custom Library Directory>\lib_*.*
  38:Libraries/uC-LIB/lib_str.c **** *
  39:Libraries/uC-LIB/lib_str.c **** *                         (2) \<Custom Library Directory>\Ports\<cpu>\<compiler>\lib*_a.*
  40:Libraries/uC-LIB/lib_str.c **** *
  41:Libraries/uC-LIB/lib_str.c **** *                               where
  42:Libraries/uC-LIB/lib_str.c **** *                                       <Custom Library Directory>      directory path for custom l
  43:Libraries/uC-LIB/lib_str.c **** *                                       <cpu>                           directory name for specific
  44:Libraries/uC-LIB/lib_str.c **** *                                       <compiler>                      directory name for specific
  45:Libraries/uC-LIB/lib_str.c **** *
  46:Libraries/uC-LIB/lib_str.c **** *                     (b) Product-specific library functions are implemented in individual products
  47:Libraries/uC-LIB/lib_str.c **** *
  48:Libraries/uC-LIB/lib_str.c **** ***************************************************************************************************
  49:Libraries/uC-LIB/lib_str.c **** * Notice(s)     : (1) The Institute of Electrical and Electronics Engineers and The Open Group, hav
  50:Libraries/uC-LIB/lib_str.c **** *                     us permission to reprint portions of their documentation.  Portions of this t
  51:Libraries/uC-LIB/lib_str.c **** *                     reprinted and reproduced in electronic form from the IEEE Std 1003.1, 2004 Ed
  52:Libraries/uC-LIB/lib_str.c **** *                     Standard for Information Technology -- Portable Operating System Interface (P
  53:Libraries/uC-LIB/lib_str.c **** *                     The Open Group Base Specifications Issue 6, Copyright (C) 2001-2004 by the In
  54:Libraries/uC-LIB/lib_str.c **** *                     of Electrical and Electronics Engineers, Inc and The Open Group.  In the even
  55:Libraries/uC-LIB/lib_str.c **** *                     discrepancy between these versions and the original IEEE and The Open Group S
  56:Libraries/uC-LIB/lib_str.c **** *                     the original IEEE and The Open Group Standard is the referee document.  The o
  57:Libraries/uC-LIB/lib_str.c **** *                     Standard can be obtained online at http://www.opengroup.org/unix/online.html.
  58:Libraries/uC-LIB/lib_str.c **** ***************************************************************************************************
  59:Libraries/uC-LIB/lib_str.c **** */
  60:Libraries/uC-LIB/lib_str.c **** 
  61:Libraries/uC-LIB/lib_str.c **** 
  62:Libraries/uC-LIB/lib_str.c **** /*
  63:Libraries/uC-LIB/lib_str.c **** ***************************************************************************************************
  64:Libraries/uC-LIB/lib_str.c **** *                                            INCLUDE FILES
  65:Libraries/uC-LIB/lib_str.c **** ***************************************************************************************************
  66:Libraries/uC-LIB/lib_str.c **** */
  67:Libraries/uC-LIB/lib_str.c **** 
  68:Libraries/uC-LIB/lib_str.c **** #define    LIB_STR_MODULE
  69:Libraries/uC-LIB/lib_str.c **** #include  <lib_str.h>
  70:Libraries/uC-LIB/lib_str.c **** 
  71:Libraries/uC-LIB/lib_str.c **** 
  72:Libraries/uC-LIB/lib_str.c **** /*$PAGE*/
  73:Libraries/uC-LIB/lib_str.c **** /*
  74:Libraries/uC-LIB/lib_str.c **** ***************************************************************************************************
  75:Libraries/uC-LIB/lib_str.c **** *                                            LOCAL DEFINES
  76:Libraries/uC-LIB/lib_str.c **** ***************************************************************************************************
  77:Libraries/uC-LIB/lib_str.c **** */
  78:Libraries/uC-LIB/lib_str.c **** 
  79:Libraries/uC-LIB/lib_str.c **** 
  80:Libraries/uC-LIB/lib_str.c **** /*
  81:Libraries/uC-LIB/lib_str.c **** ***************************************************************************************************
  82:Libraries/uC-LIB/lib_str.c **** *                                           LOCAL CONSTANTS
  83:Libraries/uC-LIB/lib_str.c **** ***************************************************************************************************
  84:Libraries/uC-LIB/lib_str.c **** */
  85:Libraries/uC-LIB/lib_str.c **** 
  86:Libraries/uC-LIB/lib_str.c **** 
  87:Libraries/uC-LIB/lib_str.c **** /*
  88:Libraries/uC-LIB/lib_str.c **** ***************************************************************************************************
  89:Libraries/uC-LIB/lib_str.c **** *                                          LOCAL DATA TYPES
  90:Libraries/uC-LIB/lib_str.c **** ***************************************************************************************************
  91:Libraries/uC-LIB/lib_str.c **** */
  92:Libraries/uC-LIB/lib_str.c **** 
  93:Libraries/uC-LIB/lib_str.c **** 
  94:Libraries/uC-LIB/lib_str.c **** /*
  95:Libraries/uC-LIB/lib_str.c **** ***************************************************************************************************
  96:Libraries/uC-LIB/lib_str.c **** *                                            LOCAL TABLES
  97:Libraries/uC-LIB/lib_str.c **** ***************************************************************************************************
  98:Libraries/uC-LIB/lib_str.c **** */
  99:Libraries/uC-LIB/lib_str.c **** 
 100:Libraries/uC-LIB/lib_str.c **** static  const  CPU_INT32U  Str_MultOvfThTbl_Int32U[] = {
 101:Libraries/uC-LIB/lib_str.c ****    (CPU_INT32U) DEF_INT_32U_MAX_VAL,                /*                Invalid base  0.  */
 102:Libraries/uC-LIB/lib_str.c ****    (CPU_INT32U)(DEF_INT_32U_MAX_VAL /  1u),         /*                Invalid base  1.  */
 103:Libraries/uC-LIB/lib_str.c ****    (CPU_INT32U)(DEF_INT_32U_MAX_VAL /  2u),         /* 32-bit mult ovf th for base  2.  */
 104:Libraries/uC-LIB/lib_str.c ****    (CPU_INT32U)(DEF_INT_32U_MAX_VAL /  3u),         /* 32-bit mult ovf th for base  3.  */
 105:Libraries/uC-LIB/lib_str.c ****    (CPU_INT32U)(DEF_INT_32U_MAX_VAL /  4u),         /* 32-bit mult ovf th for base  4.  */
 106:Libraries/uC-LIB/lib_str.c ****    (CPU_INT32U)(DEF_INT_32U_MAX_VAL /  5u),         /* 32-bit mult ovf th for base  5.  */
 107:Libraries/uC-LIB/lib_str.c ****    (CPU_INT32U)(DEF_INT_32U_MAX_VAL /  6u),         /* 32-bit mult ovf th for base  6.  */
 108:Libraries/uC-LIB/lib_str.c ****    (CPU_INT32U)(DEF_INT_32U_MAX_VAL /  7u),         /* 32-bit mult ovf th for base  7.  */
 109:Libraries/uC-LIB/lib_str.c ****    (CPU_INT32U)(DEF_INT_32U_MAX_VAL /  8u),         /* 32-bit mult ovf th for base  8.  */
 110:Libraries/uC-LIB/lib_str.c ****    (CPU_INT32U)(DEF_INT_32U_MAX_VAL /  9u),         /* 32-bit mult ovf th for base  9.  */
 111:Libraries/uC-LIB/lib_str.c ****    (CPU_INT32U)(DEF_INT_32U_MAX_VAL / 10u),         /* 32-bit mult ovf th for base 10.  */
 112:Libraries/uC-LIB/lib_str.c ****    (CPU_INT32U)(DEF_INT_32U_MAX_VAL / 11u),         /* 32-bit mult ovf th for base 11.  */
 113:Libraries/uC-LIB/lib_str.c ****    (CPU_INT32U)(DEF_INT_32U_MAX_VAL / 12u),         /* 32-bit mult ovf th for base 12.  */
 114:Libraries/uC-LIB/lib_str.c ****    (CPU_INT32U)(DEF_INT_32U_MAX_VAL / 13u),         /* 32-bit mult ovf th for base 13.  */
 115:Libraries/uC-LIB/lib_str.c ****    (CPU_INT32U)(DEF_INT_32U_MAX_VAL / 14u),         /* 32-bit mult ovf th for base 14.  */
 116:Libraries/uC-LIB/lib_str.c ****    (CPU_INT32U)(DEF_INT_32U_MAX_VAL / 15u),         /* 32-bit mult ovf th for base 15.  */
 117:Libraries/uC-LIB/lib_str.c ****    (CPU_INT32U)(DEF_INT_32U_MAX_VAL / 16u),         /* 32-bit mult ovf th for base 16.  */
 118:Libraries/uC-LIB/lib_str.c ****    (CPU_INT32U)(DEF_INT_32U_MAX_VAL / 17u),         /* 32-bit mult ovf th for base 17.  */
 119:Libraries/uC-LIB/lib_str.c ****    (CPU_INT32U)(DEF_INT_32U_MAX_VAL / 18u),         /* 32-bit mult ovf th for base 18.  */
 120:Libraries/uC-LIB/lib_str.c ****    (CPU_INT32U)(DEF_INT_32U_MAX_VAL / 19u),         /* 32-bit mult ovf th for base 19.  */
 121:Libraries/uC-LIB/lib_str.c ****    (CPU_INT32U)(DEF_INT_32U_MAX_VAL / 20u),         /* 32-bit mult ovf th for base 20.  */
 122:Libraries/uC-LIB/lib_str.c ****    (CPU_INT32U)(DEF_INT_32U_MAX_VAL / 21u),         /* 32-bit mult ovf th for base 21.  */
 123:Libraries/uC-LIB/lib_str.c ****    (CPU_INT32U)(DEF_INT_32U_MAX_VAL / 22u),         /* 32-bit mult ovf th for base 22.  */
 124:Libraries/uC-LIB/lib_str.c ****    (CPU_INT32U)(DEF_INT_32U_MAX_VAL / 23u),         /* 32-bit mult ovf th for base 23.  */
 125:Libraries/uC-LIB/lib_str.c ****    (CPU_INT32U)(DEF_INT_32U_MAX_VAL / 24u),         /* 32-bit mult ovf th for base 24.  */
 126:Libraries/uC-LIB/lib_str.c ****    (CPU_INT32U)(DEF_INT_32U_MAX_VAL / 25u),         /* 32-bit mult ovf th for base 25.  */
 127:Libraries/uC-LIB/lib_str.c ****    (CPU_INT32U)(DEF_INT_32U_MAX_VAL / 26u),         /* 32-bit mult ovf th for base 26.  */
 128:Libraries/uC-LIB/lib_str.c ****    (CPU_INT32U)(DEF_INT_32U_MAX_VAL / 27u),         /* 32-bit mult ovf th for base 27.  */
 129:Libraries/uC-LIB/lib_str.c ****    (CPU_INT32U)(DEF_INT_32U_MAX_VAL / 28u),         /* 32-bit mult ovf th for base 28.  */
 130:Libraries/uC-LIB/lib_str.c ****    (CPU_INT32U)(DEF_INT_32U_MAX_VAL / 29u),         /* 32-bit mult ovf th for base 29.  */
 131:Libraries/uC-LIB/lib_str.c ****    (CPU_INT32U)(DEF_INT_32U_MAX_VAL / 30u),         /* 32-bit mult ovf th for base 30.  */
 132:Libraries/uC-LIB/lib_str.c ****    (CPU_INT32U)(DEF_INT_32U_MAX_VAL / 31u),         /* 32-bit mult ovf th for base 31.  */
 133:Libraries/uC-LIB/lib_str.c ****    (CPU_INT32U)(DEF_INT_32U_MAX_VAL / 32u),         /* 32-bit mult ovf th for base 32.  */
 134:Libraries/uC-LIB/lib_str.c ****    (CPU_INT32U)(DEF_INT_32U_MAX_VAL / 33u),         /* 32-bit mult ovf th for base 33.  */
 135:Libraries/uC-LIB/lib_str.c ****    (CPU_INT32U)(DEF_INT_32U_MAX_VAL / 34u),         /* 32-bit mult ovf th for base 34.  */
 136:Libraries/uC-LIB/lib_str.c ****    (CPU_INT32U)(DEF_INT_32U_MAX_VAL / 35u),         /* 32-bit mult ovf th for base 35.  */
 137:Libraries/uC-LIB/lib_str.c ****    (CPU_INT32U)(DEF_INT_32U_MAX_VAL / 36u)          /* 32-bit mult ovf th for base 36.  */
 138:Libraries/uC-LIB/lib_str.c **** };
 139:Libraries/uC-LIB/lib_str.c **** 
 140:Libraries/uC-LIB/lib_str.c **** 
 141:Libraries/uC-LIB/lib_str.c **** /*
 142:Libraries/uC-LIB/lib_str.c **** ***************************************************************************************************
 143:Libraries/uC-LIB/lib_str.c **** *                                       LOCAL GLOBAL VARIABLES
 144:Libraries/uC-LIB/lib_str.c **** ***************************************************************************************************
 145:Libraries/uC-LIB/lib_str.c **** */
 146:Libraries/uC-LIB/lib_str.c **** 
 147:Libraries/uC-LIB/lib_str.c **** 
 148:Libraries/uC-LIB/lib_str.c **** /*$PAGE*/
 149:Libraries/uC-LIB/lib_str.c **** /*
 150:Libraries/uC-LIB/lib_str.c **** ***************************************************************************************************
 151:Libraries/uC-LIB/lib_str.c **** *                                      LOCAL FUNCTION PROTOTYPES
 152:Libraries/uC-LIB/lib_str.c **** ***************************************************************************************************
 153:Libraries/uC-LIB/lib_str.c **** */
 154:Libraries/uC-LIB/lib_str.c **** 
 155:Libraries/uC-LIB/lib_str.c **** static  CPU_CHAR    *Str_FmtNbr_Int32  (       CPU_INT32U     nbr,
 156:Libraries/uC-LIB/lib_str.c ****                                                CPU_INT08U     nbr_dig,
 157:Libraries/uC-LIB/lib_str.c ****                                                CPU_INT08U     nbr_base,
 158:Libraries/uC-LIB/lib_str.c ****                                                CPU_BOOLEAN    nbr_neg,
 159:Libraries/uC-LIB/lib_str.c ****                                                CPU_CHAR       lead_char,
 160:Libraries/uC-LIB/lib_str.c ****                                                CPU_BOOLEAN    lower_case,
 161:Libraries/uC-LIB/lib_str.c ****                                                CPU_BOOLEAN    nul,
 162:Libraries/uC-LIB/lib_str.c ****                                                CPU_CHAR      *pstr);
 163:Libraries/uC-LIB/lib_str.c **** 
 164:Libraries/uC-LIB/lib_str.c **** static  CPU_INT32U   Str_ParseNbr_Int32(const  CPU_CHAR      *pstr,
 165:Libraries/uC-LIB/lib_str.c ****                                                CPU_CHAR     **pstr_next,
 166:Libraries/uC-LIB/lib_str.c ****                                                CPU_INT08U     nbr_base,
 167:Libraries/uC-LIB/lib_str.c ****                                                CPU_BOOLEAN    nbr_signed,
 168:Libraries/uC-LIB/lib_str.c ****                                                CPU_BOOLEAN   *pnbr_neg);
 169:Libraries/uC-LIB/lib_str.c **** 
 170:Libraries/uC-LIB/lib_str.c **** 
 171:Libraries/uC-LIB/lib_str.c **** /*
 172:Libraries/uC-LIB/lib_str.c **** ***************************************************************************************************
 173:Libraries/uC-LIB/lib_str.c **** *                                     LOCAL CONFIGURATION ERRORS
 174:Libraries/uC-LIB/lib_str.c **** ***************************************************************************************************
 175:Libraries/uC-LIB/lib_str.c **** */
 176:Libraries/uC-LIB/lib_str.c **** 
 177:Libraries/uC-LIB/lib_str.c **** 
 178:Libraries/uC-LIB/lib_str.c **** /*$PAGE*/
 179:Libraries/uC-LIB/lib_str.c **** /*
 180:Libraries/uC-LIB/lib_str.c **** ***************************************************************************************************
 181:Libraries/uC-LIB/lib_str.c **** *                                              Str_Len()
 182:Libraries/uC-LIB/lib_str.c **** *
 183:Libraries/uC-LIB/lib_str.c **** * Description : Calculate length of a string.
 184:Libraries/uC-LIB/lib_str.c **** *
 185:Libraries/uC-LIB/lib_str.c **** * Argument(s) : pstr        Pointer to string (see Note #1).
 186:Libraries/uC-LIB/lib_str.c **** *
 187:Libraries/uC-LIB/lib_str.c **** * Return(s)   : Length of string; number of characters in string before terminating NULL character 
 188:Libraries/uC-LIB/lib_str.c **** *                   (see Note #2b1).
 189:Libraries/uC-LIB/lib_str.c **** *
 190:Libraries/uC-LIB/lib_str.c **** * Caller(s)   : Application.
 191:Libraries/uC-LIB/lib_str.c **** *
 192:Libraries/uC-LIB/lib_str.c **** * Note(s)     : (1) String buffer NOT modified.
 193:Libraries/uC-LIB/lib_str.c **** *
 194:Libraries/uC-LIB/lib_str.c **** *               (2) (a) IEEE Std 1003.1, 2004 Edition, Section 'strlen() : DESCRIPTION' states that
 195:Libraries/uC-LIB/lib_str.c **** *
 196:Libraries/uC-LIB/lib_str.c **** *                       (1) "The strlen() function shall compute the number of bytes in the string 
 197:Libraries/uC-LIB/lib_str.c **** *                            which 's' ('pstr') points," ...
 198:Libraries/uC-LIB/lib_str.c **** *                       (2) "not including the terminating null byte."
 199:Libraries/uC-LIB/lib_str.c **** *
 200:Libraries/uC-LIB/lib_str.c **** *                   (b) IEEE Std 1003.1, 2004 Edition, Section 'strlen() : RETURN VALUE' states tha
 201:Libraries/uC-LIB/lib_str.c **** *
 202:Libraries/uC-LIB/lib_str.c **** *                       (1) "The strlen() function shall return the length of 's' ('pstr');" ...
 203:Libraries/uC-LIB/lib_str.c **** *                       (2) "no return value shall be reserved to indicate an error."
 204:Libraries/uC-LIB/lib_str.c **** *
 205:Libraries/uC-LIB/lib_str.c **** *               (3) String length calculation terminates when :
 206:Libraries/uC-LIB/lib_str.c **** *
 207:Libraries/uC-LIB/lib_str.c **** *                   (a) String pointer points to NULL.
 208:Libraries/uC-LIB/lib_str.c **** *                       (1) String buffer overlaps with NULL address.
 209:Libraries/uC-LIB/lib_str.c **** *                       (2) String length calculated for string up to but NOT beyond or including
 210:Libraries/uC-LIB/lib_str.c **** *                           the NULL address.
 211:Libraries/uC-LIB/lib_str.c **** *
 212:Libraries/uC-LIB/lib_str.c **** *                   (b) Terminating NULL character found.
 213:Libraries/uC-LIB/lib_str.c **** *                       (1) String length calculated for string up to but NOT           including
 214:Libraries/uC-LIB/lib_str.c **** *                           the NULL character (see Note #2a2).
 215:Libraries/uC-LIB/lib_str.c **** ***************************************************************************************************
 216:Libraries/uC-LIB/lib_str.c **** */
 217:Libraries/uC-LIB/lib_str.c **** 
 218:Libraries/uC-LIB/lib_str.c **** CPU_SIZE_T  Str_Len (const  CPU_CHAR  *pstr)
 219:Libraries/uC-LIB/lib_str.c **** {
  69              		.loc 1 219 0
  70              		.cfi_startproc
  71              		@ args = 0, pretend = 0, frame = 16
  72              		@ frame_needed = 1, uses_anonymous_args = 0
  73 0000 80B5     		push	{r7, lr}
  74              	.LCFI0:
  75              		.cfi_def_cfa_offset 8
  76              		.cfi_offset 14, -4
  77              		.cfi_offset 7, -8
  78 0002 84B0     		sub	sp, sp, #16
  79              	.LCFI1:
  80              		.cfi_def_cfa_offset 24
  81 0004 00AF     		add	r7, sp, #0
  82              	.LCFI2:
  83              		.cfi_def_cfa_register 7
  84 0006 7860     		str	r0, [r7, #4]
 220:Libraries/uC-LIB/lib_str.c ****     CPU_SIZE_T  len;
 221:Libraries/uC-LIB/lib_str.c **** 
 222:Libraries/uC-LIB/lib_str.c **** 
 223:Libraries/uC-LIB/lib_str.c ****     len = Str_Len_N(pstr,
  85              		.loc 1 223 0
  86 0008 7868     		ldr	r0, [r7, #4]
  87 000a 4FF0FF31 		mov	r1, #-1
  88 000e FFF7FEFF 		bl	Str_Len_N
  89 0012 F860     		str	r0, [r7, #12]
 224:Libraries/uC-LIB/lib_str.c ****                     DEF_INT_CPU_U_MAX_VAL);
 225:Libraries/uC-LIB/lib_str.c **** 
 226:Libraries/uC-LIB/lib_str.c ****     return (len);
  90              		.loc 1 226 0
  91 0014 FB68     		ldr	r3, [r7, #12]
 227:Libraries/uC-LIB/lib_str.c **** }
  92              		.loc 1 227 0
  93 0016 1846     		mov	r0, r3
  94 0018 07F11007 		add	r7, r7, #16
  95 001c BD46     		mov	sp, r7
  96 001e 80BD     		pop	{r7, pc}
  97              		.cfi_endproc
  98              	.LFE0:
 100              		.align	2
 101              		.global	Str_Len_N
 102              		.thumb
 103              		.thumb_func
 105              	Str_Len_N:
 106              	.LFB1:
 228:Libraries/uC-LIB/lib_str.c **** 
 229:Libraries/uC-LIB/lib_str.c **** 
 230:Libraries/uC-LIB/lib_str.c **** /*$PAGE*/
 231:Libraries/uC-LIB/lib_str.c **** /*
 232:Libraries/uC-LIB/lib_str.c **** ***************************************************************************************************
 233:Libraries/uC-LIB/lib_str.c **** *                                             Str_Len_N()
 234:Libraries/uC-LIB/lib_str.c **** *
 235:Libraries/uC-LIB/lib_str.c **** * Description : Calculate length of a string, up to a maximum number of characters.
 236:Libraries/uC-LIB/lib_str.c **** *
 237:Libraries/uC-LIB/lib_str.c **** * Argument(s) : pstr        Pointer to string (see Note #1).
 238:Libraries/uC-LIB/lib_str.c **** *
 239:Libraries/uC-LIB/lib_str.c **** *               len_max     Maximum number of characters to search (see Note #3c).
 240:Libraries/uC-LIB/lib_str.c **** *
 241:Libraries/uC-LIB/lib_str.c **** * Return(s)   : Length of string; number of characters in string before terminating NULL character,
 242:Libraries/uC-LIB/lib_str.c **** *                   if terminating NULL character     found (see Note #2b1).
 243:Libraries/uC-LIB/lib_str.c **** *
 244:Libraries/uC-LIB/lib_str.c **** *               Requested maximum number of characters to search, 
 245:Libraries/uC-LIB/lib_str.c **** *                   if terminating NULL character NOT found (see Note #3c).
 246:Libraries/uC-LIB/lib_str.c **** *
 247:Libraries/uC-LIB/lib_str.c **** * Caller(s)   : Application.
 248:Libraries/uC-LIB/lib_str.c **** *
 249:Libraries/uC-LIB/lib_str.c **** * Note(s)     : (1) String buffer NOT modified.
 250:Libraries/uC-LIB/lib_str.c **** *
 251:Libraries/uC-LIB/lib_str.c **** *               (2) (a) IEEE Std 1003.1, 2004 Edition, Section 'strlen() : DESCRIPTION' states that
 252:Libraries/uC-LIB/lib_str.c **** *
 253:Libraries/uC-LIB/lib_str.c **** *                       (1) "The strlen() function shall compute the number of bytes in the string 
 254:Libraries/uC-LIB/lib_str.c **** *                            which 's' ('pstr') points," ...
 255:Libraries/uC-LIB/lib_str.c **** *                       (2) "not including the terminating null byte."
 256:Libraries/uC-LIB/lib_str.c **** *
 257:Libraries/uC-LIB/lib_str.c **** *                   (b) IEEE Std 1003.1, 2004 Edition, Section 'strlen() : RETURN VALUE' states tha
 258:Libraries/uC-LIB/lib_str.c **** *
 259:Libraries/uC-LIB/lib_str.c **** *                       (1) "The strlen() function shall return the length of 's' ('pstr');" ...
 260:Libraries/uC-LIB/lib_str.c **** *                       (2) "no return value shall be reserved to indicate an error."
 261:Libraries/uC-LIB/lib_str.c **** *
 262:Libraries/uC-LIB/lib_str.c **** *               (3) String length calculation terminates when :
 263:Libraries/uC-LIB/lib_str.c **** *
 264:Libraries/uC-LIB/lib_str.c **** *                   (a) String pointer points to NULL.
 265:Libraries/uC-LIB/lib_str.c **** *                       (1) String buffer overlaps with NULL address.
 266:Libraries/uC-LIB/lib_str.c **** *                       (2) String length calculated for string up to but NOT beyond or including
 267:Libraries/uC-LIB/lib_str.c **** *                           the NULL address.
 268:Libraries/uC-LIB/lib_str.c **** *
 269:Libraries/uC-LIB/lib_str.c **** *                   (b) Terminating NULL character found.
 270:Libraries/uC-LIB/lib_str.c **** *                       (1) String length calculated for string up to but NOT           including
 271:Libraries/uC-LIB/lib_str.c **** *                           the NULL character (see Note #2a2).
 272:Libraries/uC-LIB/lib_str.c **** *
 273:Libraries/uC-LIB/lib_str.c **** *                   (c) 'len_max' number of characters searched.
 274:Libraries/uC-LIB/lib_str.c **** *                       (1) 'len_max' number of characters does NOT include the terminating NULL ch
 275:Libraries/uC-LIB/lib_str.c **** ***************************************************************************************************
 276:Libraries/uC-LIB/lib_str.c **** */
 277:Libraries/uC-LIB/lib_str.c **** 
 278:Libraries/uC-LIB/lib_str.c **** CPU_SIZE_T  Str_Len_N (const  CPU_CHAR    *pstr,
 279:Libraries/uC-LIB/lib_str.c ****                               CPU_SIZE_T   len_max)
 280:Libraries/uC-LIB/lib_str.c **** {
 107              		.loc 1 280 0
 108              		.cfi_startproc
 109              		@ args = 0, pretend = 0, frame = 16
 110              		@ frame_needed = 1, uses_anonymous_args = 0
 111              		@ link register save eliminated.
 112 0020 80B4     		push	{r7}
 113              	.LCFI3:
 114              		.cfi_def_cfa_offset 4
 115              		.cfi_offset 7, -4
 116 0022 85B0     		sub	sp, sp, #20
 117              	.LCFI4:
 118              		.cfi_def_cfa_offset 24
 119 0024 00AF     		add	r7, sp, #0
 120              	.LCFI5:
 121              		.cfi_def_cfa_register 7
 122 0026 7860     		str	r0, [r7, #4]
 123 0028 3960     		str	r1, [r7, #0]
 281:Libraries/uC-LIB/lib_str.c ****     const  CPU_CHAR    *pstr_len;
 282:Libraries/uC-LIB/lib_str.c ****            CPU_SIZE_T   len;
 283:Libraries/uC-LIB/lib_str.c **** 
 284:Libraries/uC-LIB/lib_str.c **** 
 285:Libraries/uC-LIB/lib_str.c ****     pstr_len = pstr;
 124              		.loc 1 285 0
 125 002a 7B68     		ldr	r3, [r7, #4]
 126 002c FB60     		str	r3, [r7, #12]
 286:Libraries/uC-LIB/lib_str.c ****     len      = 0u;
 127              		.loc 1 286 0
 128 002e 4FF00003 		mov	r3, #0
 129 0032 BB60     		str	r3, [r7, #8]
 287:Libraries/uC-LIB/lib_str.c ****     while (( pstr_len != (const CPU_CHAR *)  0 ) &&             /* Calc str len until NULL ptr (see
 130              		.loc 1 287 0
 131 0034 07E0     		b	.L3
 132              	.L5:
 288:Libraries/uC-LIB/lib_str.c ****            (*pstr_len != (      CPU_CHAR  )'\0') &&             /* ... or NULL char found      (see
 289:Libraries/uC-LIB/lib_str.c ****            ( len      <  (      CPU_SIZE_T)len_max)) {          /* ... or max nbr chars srch'd (see
 290:Libraries/uC-LIB/lib_str.c ****         pstr_len++;
 133              		.loc 1 290 0
 134 0036 FB68     		ldr	r3, [r7, #12]
 135 0038 03F10103 		add	r3, r3, #1
 136 003c FB60     		str	r3, [r7, #12]
 291:Libraries/uC-LIB/lib_str.c ****         len++;
 137              		.loc 1 291 0
 138 003e BB68     		ldr	r3, [r7, #8]
 139 0040 03F10103 		add	r3, r3, #1
 140 0044 BB60     		str	r3, [r7, #8]
 141              	.L3:
 287:Libraries/uC-LIB/lib_str.c ****     while (( pstr_len != (const CPU_CHAR *)  0 ) &&             /* Calc str len until NULL ptr (see
 142              		.loc 1 287 0 discriminator 1
 143 0046 FB68     		ldr	r3, [r7, #12]
 144 0048 002B     		cmp	r3, #0
 145 004a 07D0     		beq	.L4
 288:Libraries/uC-LIB/lib_str.c ****            (*pstr_len != (      CPU_CHAR  )'\0') &&             /* ... or NULL char found      (see
 146              		.loc 1 288 0 discriminator 2
 147 004c FB68     		ldr	r3, [r7, #12]
 148 004e 1B78     		ldrb	r3, [r3, #0]	@ zero_extendqisi2
 287:Libraries/uC-LIB/lib_str.c ****     while (( pstr_len != (const CPU_CHAR *)  0 ) &&             /* Calc str len until NULL ptr (see
 149              		.loc 1 287 0 discriminator 2
 150 0050 002B     		cmp	r3, #0
 151 0052 03D0     		beq	.L4
 288:Libraries/uC-LIB/lib_str.c ****            (*pstr_len != (      CPU_CHAR  )'\0') &&             /* ... or NULL char found      (see
 152              		.loc 1 288 0
 153 0054 BA68     		ldr	r2, [r7, #8]
 154 0056 3B68     		ldr	r3, [r7, #0]
 155 0058 9A42     		cmp	r2, r3
 156 005a ECD3     		bcc	.L5
 157              	.L4:
 292:Libraries/uC-LIB/lib_str.c ****     }
 293:Libraries/uC-LIB/lib_str.c **** 
 294:Libraries/uC-LIB/lib_str.c ****     return (len);                                               /* Rtn str len (see Note #3b1).    
 158              		.loc 1 294 0
 159 005c BB68     		ldr	r3, [r7, #8]
 295:Libraries/uC-LIB/lib_str.c **** }
 160              		.loc 1 295 0
 161 005e 1846     		mov	r0, r3
 162 0060 07F11407 		add	r7, r7, #20
 163 0064 BD46     		mov	sp, r7
 164 0066 80BC     		pop	{r7}
 165 0068 7047     		bx	lr
 166              		.cfi_endproc
 167              	.LFE1:
 169 006a 00BF     		.align	2
 170              		.global	Str_Copy
 171              		.thumb
 172              		.thumb_func
 174              	Str_Copy:
 175              	.LFB2:
 296:Libraries/uC-LIB/lib_str.c **** 
 297:Libraries/uC-LIB/lib_str.c **** 
 298:Libraries/uC-LIB/lib_str.c **** /*$PAGE*/
 299:Libraries/uC-LIB/lib_str.c **** /*
 300:Libraries/uC-LIB/lib_str.c **** ***************************************************************************************************
 301:Libraries/uC-LIB/lib_str.c **** *                                             Str_Copy()
 302:Libraries/uC-LIB/lib_str.c **** *
 303:Libraries/uC-LIB/lib_str.c **** * Description : Copy source string to destination string buffer.
 304:Libraries/uC-LIB/lib_str.c **** *
 305:Libraries/uC-LIB/lib_str.c **** * Argument(s) : pstr_dest   Pointer to destination string buffer to receive source string copy   (s
 306:Libraries/uC-LIB/lib_str.c **** *
 307:Libraries/uC-LIB/lib_str.c **** *               pstr_src    Pointer to source      string to copy into destination string buffer (s
 308:Libraries/uC-LIB/lib_str.c **** *
 309:Libraries/uC-LIB/lib_str.c **** * Return(s)   : Pointer to destination string, if NO error(s) [see Note #2b1].
 310:Libraries/uC-LIB/lib_str.c **** *
 311:Libraries/uC-LIB/lib_str.c **** *               Pointer to NULL,               otherwise      (see Note #2b2A).
 312:Libraries/uC-LIB/lib_str.c **** *
 313:Libraries/uC-LIB/lib_str.c **** * Caller(s)   : Application.
 314:Libraries/uC-LIB/lib_str.c **** *
 315:Libraries/uC-LIB/lib_str.c **** * Note(s)     : (1) (a) Destination buffer size NOT validated; buffer overruns MUST be prevented by
 316:Libraries/uC-LIB/lib_str.c **** *
 317:Libraries/uC-LIB/lib_str.c **** *                       (1) Destination buffer size MUST be large enough to accommodate the entire 
 318:Libraries/uC-LIB/lib_str.c **** *                           string size including the terminating NULL character.
 319:Libraries/uC-LIB/lib_str.c **** *
 320:Libraries/uC-LIB/lib_str.c **** *                   (b) Source buffer NOT modified.
 321:Libraries/uC-LIB/lib_str.c **** *
 322:Libraries/uC-LIB/lib_str.c **** *               (2) (a) IEEE Std 1003.1, 2004 Edition, Section 'strcpy() : DESCRIPTION' states that
 323:Libraries/uC-LIB/lib_str.c **** *
 324:Libraries/uC-LIB/lib_str.c **** *                       (1) "The strcpy() function shall copy the string pointed to by 's2' ('pstr_
 325:Libraries/uC-LIB/lib_str.c **** *                            ... into the array pointed to by 's1' ('pstr_dest')" ...
 326:Libraries/uC-LIB/lib_str.c **** *                       (2) "(including the terminating null byte)."
 327:Libraries/uC-LIB/lib_str.c **** *
 328:Libraries/uC-LIB/lib_str.c **** *                   (b) IEEE Std 1003.1, 2004 Edition, Section 'strcpy() : RETURN VALUE' states tha
 329:Libraries/uC-LIB/lib_str.c **** *
 330:Libraries/uC-LIB/lib_str.c **** *                       (1) "The strcpy() function shall return 's1' ('pstr_dest');" ...
 331:Libraries/uC-LIB/lib_str.c **** *                       (2) "no return value is reserved to indicate an error."
 332:Libraries/uC-LIB/lib_str.c **** *                           (A) #### This requirement is intentionally NOT implemented in order to 
 333:Libraries/uC-LIB/lib_str.c **** *                               NULL for any error(s).
 334:Libraries/uC-LIB/lib_str.c **** *
 335:Libraries/uC-LIB/lib_str.c **** *                   (c) IEEE Std 1003.1, 2004 Edition, Section 'strcpy() : DESCRIPTION' states that
 336:Libraries/uC-LIB/lib_str.c **** *                       copying takes place between objects that overlap, the behavior is undefined
 337:Libraries/uC-LIB/lib_str.c **** *
 338:Libraries/uC-LIB/lib_str.c **** *               (3) String copy terminates when :
 339:Libraries/uC-LIB/lib_str.c **** *
 340:Libraries/uC-LIB/lib_str.c **** *                   (a) Destination/Source string pointer(s) are passed NULL pointers.
 341:Libraries/uC-LIB/lib_str.c **** *                       (1) No string copy performed; NULL pointer returned.
 342:Libraries/uC-LIB/lib_str.c **** *
 343:Libraries/uC-LIB/lib_str.c **** *                   (b) Destination/Source string pointer(s) point to NULL.
 344:Libraries/uC-LIB/lib_str.c **** *                       (1) String buffer(s) overlap with NULL address; NULL pointer returned.
 345:Libraries/uC-LIB/lib_str.c **** *
 346:Libraries/uC-LIB/lib_str.c **** *                   (c) Source string's terminating NULL character found.
 347:Libraries/uC-LIB/lib_str.c **** *                       (1) Entire source string copied into destination string buffer (see Note #2
 348:Libraries/uC-LIB/lib_str.c **** ***************************************************************************************************
 349:Libraries/uC-LIB/lib_str.c **** */
 350:Libraries/uC-LIB/lib_str.c **** 
 351:Libraries/uC-LIB/lib_str.c **** CPU_CHAR  *Str_Copy (       CPU_CHAR  *pstr_dest,
 352:Libraries/uC-LIB/lib_str.c ****                      const  CPU_CHAR  *pstr_src)
 353:Libraries/uC-LIB/lib_str.c **** {
 176              		.loc 1 353 0
 177              		.cfi_startproc
 178              		@ args = 0, pretend = 0, frame = 16
 179              		@ frame_needed = 1, uses_anonymous_args = 0
 180 006c 80B5     		push	{r7, lr}
 181              	.LCFI6:
 182              		.cfi_def_cfa_offset 8
 183              		.cfi_offset 14, -4
 184              		.cfi_offset 7, -8
 185 006e 84B0     		sub	sp, sp, #16
 186              	.LCFI7:
 187              		.cfi_def_cfa_offset 24
 188 0070 00AF     		add	r7, sp, #0
 189              	.LCFI8:
 190              		.cfi_def_cfa_register 7
 191 0072 7860     		str	r0, [r7, #4]
 192 0074 3960     		str	r1, [r7, #0]
 354:Libraries/uC-LIB/lib_str.c ****     CPU_CHAR  *pstr_rtn;
 355:Libraries/uC-LIB/lib_str.c **** 
 356:Libraries/uC-LIB/lib_str.c **** 
 357:Libraries/uC-LIB/lib_str.c ****     pstr_rtn = Str_Copy_N(pstr_dest,
 193              		.loc 1 357 0
 194 0076 7868     		ldr	r0, [r7, #4]
 195 0078 3968     		ldr	r1, [r7, #0]
 196 007a 4FF0FF32 		mov	r2, #-1
 197 007e FFF7FEFF 		bl	Str_Copy_N
 198 0082 F860     		str	r0, [r7, #12]
 358:Libraries/uC-LIB/lib_str.c ****                           pstr_src,
 359:Libraries/uC-LIB/lib_str.c ****                           DEF_INT_CPU_U_MAX_VAL);
 360:Libraries/uC-LIB/lib_str.c **** 
 361:Libraries/uC-LIB/lib_str.c ****     return (pstr_rtn);
 199              		.loc 1 361 0
 200 0084 FB68     		ldr	r3, [r7, #12]
 362:Libraries/uC-LIB/lib_str.c **** }
 201              		.loc 1 362 0
 202 0086 1846     		mov	r0, r3
 203 0088 07F11007 		add	r7, r7, #16
 204 008c BD46     		mov	sp, r7
 205 008e 80BD     		pop	{r7, pc}
 206              		.cfi_endproc
 207              	.LFE2:
 209              		.align	2
 210              		.global	Str_Copy_N
 211              		.thumb
 212              		.thumb_func
 214              	Str_Copy_N:
 215              	.LFB3:
 363:Libraries/uC-LIB/lib_str.c **** 
 364:Libraries/uC-LIB/lib_str.c **** 
 365:Libraries/uC-LIB/lib_str.c **** /*$PAGE*/
 366:Libraries/uC-LIB/lib_str.c **** /*
 367:Libraries/uC-LIB/lib_str.c **** ***************************************************************************************************
 368:Libraries/uC-LIB/lib_str.c **** *                                            Str_Copy_N()
 369:Libraries/uC-LIB/lib_str.c **** *
 370:Libraries/uC-LIB/lib_str.c **** * Description : Copy source string to destination string buffer, up to a maximum number of characte
 371:Libraries/uC-LIB/lib_str.c **** *
 372:Libraries/uC-LIB/lib_str.c **** * Argument(s) : pstr_dest   Pointer to destination string buffer to receive source string copy   (s
 373:Libraries/uC-LIB/lib_str.c **** *
 374:Libraries/uC-LIB/lib_str.c **** *               pstr_src    Pointer to source      string to copy into destination string buffer (s
 375:Libraries/uC-LIB/lib_str.c **** *
 376:Libraries/uC-LIB/lib_str.c **** *               len_max     Maximum number of characters  to copy (see Notes #2a2 & #3d).
 377:Libraries/uC-LIB/lib_str.c **** *
 378:Libraries/uC-LIB/lib_str.c **** * Return(s)   : Pointer to destination string, if NO error(s) [see Note #2b1].
 379:Libraries/uC-LIB/lib_str.c **** *
 380:Libraries/uC-LIB/lib_str.c **** *               Pointer to NULL,               otherwise      (see Note #2b2A).
 381:Libraries/uC-LIB/lib_str.c **** *
 382:Libraries/uC-LIB/lib_str.c **** * Caller(s)   : Application.
 383:Libraries/uC-LIB/lib_str.c **** *
 384:Libraries/uC-LIB/lib_str.c **** * Note(s)     : (1) (a) Destination buffer size NOT validated; buffer overruns MUST be prevented by
 385:Libraries/uC-LIB/lib_str.c **** *
 386:Libraries/uC-LIB/lib_str.c **** *                       (1) Destination buffer size MUST be large enough to accommodate the entire 
 387:Libraries/uC-LIB/lib_str.c **** *                           string size including the terminating NULL character.
 388:Libraries/uC-LIB/lib_str.c **** *
 389:Libraries/uC-LIB/lib_str.c **** *                   (b) Source string buffer NOT modified.
 390:Libraries/uC-LIB/lib_str.c **** *
 391:Libraries/uC-LIB/lib_str.c **** *               (2) (a) (1) IEEE Std 1003.1, 2004 Edition, Section 'strncpy() : DESCRIPTION' states
 392:Libraries/uC-LIB/lib_str.c **** *
 393:Libraries/uC-LIB/lib_str.c **** *                           (A) "The strncpy() function shall copy ... the array pointed to by 's2'
 394:Libraries/uC-LIB/lib_str.c **** *                               ('pstr_src') to the array pointed to by 's1' ('pstr_dest')"; ...
 395:Libraries/uC-LIB/lib_str.c **** *                           (B)  but "not more than 'n' ('len_max') bytes"                   ...
 396:Libraries/uC-LIB/lib_str.c **** *                           (C)  &   "(bytes that follow a null byte are not copied)".
 397:Libraries/uC-LIB/lib_str.c **** *
 398:Libraries/uC-LIB/lib_str.c **** *                       (2) (A) IEEE Std 1003.1, 2004 Edition, Section 'strncpy() : DESCRIPTION' ad
 399:Libraries/uC-LIB/lib_str.c **** *                              "if the array pointed to by 's2' ('pstr_src') is a string that is sh
 400:Libraries/uC-LIB/lib_str.c **** *                               than 'n' ('len_max') bytes, null bytes shall be appended to the cop
 401:Libraries/uC-LIB/lib_str.c **** *                               the array pointed to by 's1' ('pstr_dest'), until 'n' ('len_max') b
 402:Libraries/uC-LIB/lib_str.c **** *                               in all are written."
 403:Libraries/uC-LIB/lib_str.c **** *
 404:Libraries/uC-LIB/lib_str.c **** *                               (1) #### Since Str_Copy() limits the maximum number of characters t
 405:Libraries/uC-LIB/lib_str.c **** *                                   via Str_Copy_N() by the CPU's maximum number of addressable cha
 406:Libraries/uC-LIB/lib_str.c **** *                                   this requirement is intentionally NOT implemented to avoid appe
 407:Libraries/uC-LIB/lib_str.c **** *                                   a potentially large number of unnecessary terminating NULL char
 408:Libraries/uC-LIB/lib_str.c **** *
 409:Libraries/uC-LIB/lib_str.c **** *                           (B) IEEE Std 1003.1, 2004 Edition, Section 'strncpy() : APPLICATION USA
 410:Libraries/uC-LIB/lib_str.c **** *                               states that "if there is no null byte in the first 'n' ('len_max') 
 411:Libraries/uC-LIB/lib_str.c **** *                               the array pointed to by 's2' ('pstr_src'), the result is not null-t
 412:Libraries/uC-LIB/lib_str.c **** *
 413:Libraries/uC-LIB/lib_str.c **** *                   (b) IEEE Std 1003.1, 2004 Edition, Section 'strncpy() : RETURN VALUE' states th
 414:Libraries/uC-LIB/lib_str.c **** *
 415:Libraries/uC-LIB/lib_str.c **** *                       (1) "The strncpy() function shall return 's1' ('pstr_dest');" ...
 416:Libraries/uC-LIB/lib_str.c **** *                       (2) "no return value is reserved to indicate an error."
 417:Libraries/uC-LIB/lib_str.c **** *                           (A) #### This requirement is intentionally ignored in order to return N
 418:Libraries/uC-LIB/lib_str.c **** *                               for any error(s).
 419:Libraries/uC-LIB/lib_str.c **** *
 420:Libraries/uC-LIB/lib_str.c **** *                   (c) IEEE Std 1003.1, 2004 Edition, Section 'strncpy() : DESCRIPTION' states tha
 421:Libraries/uC-LIB/lib_str.c **** *                       copying takes place between objects that overlap, the behavior is undefined
 422:Libraries/uC-LIB/lib_str.c **** *
 423:Libraries/uC-LIB/lib_str.c **** *               (3) String copy terminates when :
 424:Libraries/uC-LIB/lib_str.c **** *
 425:Libraries/uC-LIB/lib_str.c **** *                   (a) Destination/Source string pointer(s) are passed NULL pointers.
 426:Libraries/uC-LIB/lib_str.c **** *                       (1) No string copy performed; NULL pointer returned.
 427:Libraries/uC-LIB/lib_str.c **** *
 428:Libraries/uC-LIB/lib_str.c **** *                   (b) Destination/Source string pointer(s) point to NULL.
 429:Libraries/uC-LIB/lib_str.c **** *                       (1) String buffer(s) overlap with NULL address; NULL pointer returned.
 430:Libraries/uC-LIB/lib_str.c **** *
 431:Libraries/uC-LIB/lib_str.c **** *                   (c) Source string's terminating NULL character found.
 432:Libraries/uC-LIB/lib_str.c **** *                       (1) Entire source string copied into destination string buffer (see Note #2
 433:Libraries/uC-LIB/lib_str.c **** *
 434:Libraries/uC-LIB/lib_str.c **** *                   (d) 'len_max' number of characters copied.
 435:Libraries/uC-LIB/lib_str.c **** *                       (1) 'len_max' number of characters MAY include the terminating NULL charact
 436:Libraries/uC-LIB/lib_str.c **** *                           (see Note #2a1C).
 437:Libraries/uC-LIB/lib_str.c **** *                       (2) Null copies allowed (i.e. zero-length copies).
 438:Libraries/uC-LIB/lib_str.c **** *                           (A) No string copy performed; destination string returned  (see Note #2
 439:Libraries/uC-LIB/lib_str.c **** ***************************************************************************************************
 440:Libraries/uC-LIB/lib_str.c **** */
 441:Libraries/uC-LIB/lib_str.c **** /*$PAGE*/
 442:Libraries/uC-LIB/lib_str.c **** CPU_CHAR  *Str_Copy_N (       CPU_CHAR    *pstr_dest,
 443:Libraries/uC-LIB/lib_str.c ****                        const  CPU_CHAR    *pstr_src,
 444:Libraries/uC-LIB/lib_str.c ****                               CPU_SIZE_T   len_max)
 445:Libraries/uC-LIB/lib_str.c **** {
 216              		.loc 1 445 0
 217              		.cfi_startproc
 218              		@ args = 0, pretend = 0, frame = 32
 219              		@ frame_needed = 1, uses_anonymous_args = 0
 220              		@ link register save eliminated.
 221 0090 80B4     		push	{r7}
 222              	.LCFI9:
 223              		.cfi_def_cfa_offset 4
 224              		.cfi_offset 7, -4
 225 0092 89B0     		sub	sp, sp, #36
 226              	.LCFI10:
 227              		.cfi_def_cfa_offset 40
 228 0094 00AF     		add	r7, sp, #0
 229              	.LCFI11:
 230              		.cfi_def_cfa_register 7
 231 0096 F860     		str	r0, [r7, #12]
 232 0098 B960     		str	r1, [r7, #8]
 233 009a 7A60     		str	r2, [r7, #4]
 446:Libraries/uC-LIB/lib_str.c ****            CPU_CHAR    *pstr_copy_dest;
 447:Libraries/uC-LIB/lib_str.c ****     const  CPU_CHAR    *pstr_copy_src;
 448:Libraries/uC-LIB/lib_str.c ****            CPU_SIZE_T   len_copy;
 449:Libraries/uC-LIB/lib_str.c **** 
 450:Libraries/uC-LIB/lib_str.c ****                                                                 /* Rtn NULL if str ptr(s) NULL (see
 451:Libraries/uC-LIB/lib_str.c ****     if (pstr_dest == (CPU_CHAR *)0) {
 234              		.loc 1 451 0
 235 009c FB68     		ldr	r3, [r7, #12]
 236 009e 002B     		cmp	r3, #0
 237 00a0 02D1     		bne	.L8
 452:Libraries/uC-LIB/lib_str.c ****         return ((CPU_CHAR *)0);
 238              		.loc 1 452 0
 239 00a2 4FF00003 		mov	r3, #0
 240 00a6 3DE0     		b	.L9
 241              	.L8:
 453:Libraries/uC-LIB/lib_str.c ****     }
 454:Libraries/uC-LIB/lib_str.c ****     if (pstr_src  == (const CPU_CHAR *)0) {
 242              		.loc 1 454 0
 243 00a8 BB68     		ldr	r3, [r7, #8]
 244 00aa 002B     		cmp	r3, #0
 245 00ac 02D1     		bne	.L10
 455:Libraries/uC-LIB/lib_str.c ****         return ((CPU_CHAR *)0);
 246              		.loc 1 455 0
 247 00ae 4FF00003 		mov	r3, #0
 248 00b2 37E0     		b	.L9
 249              	.L10:
 456:Libraries/uC-LIB/lib_str.c ****     }
 457:Libraries/uC-LIB/lib_str.c **** 
 458:Libraries/uC-LIB/lib_str.c **** 
 459:Libraries/uC-LIB/lib_str.c ****     pstr_copy_dest = pstr_dest;
 250              		.loc 1 459 0
 251 00b4 FB68     		ldr	r3, [r7, #12]
 252 00b6 FB61     		str	r3, [r7, #28]
 460:Libraries/uC-LIB/lib_str.c ****     pstr_copy_src  = pstr_src;
 253              		.loc 1 460 0
 254 00b8 BB68     		ldr	r3, [r7, #8]
 255 00ba BB61     		str	r3, [r7, #24]
 461:Libraries/uC-LIB/lib_str.c ****     len_copy       = 0u;
 256              		.loc 1 461 0
 257 00bc 4FF00003 		mov	r3, #0
 258 00c0 7B61     		str	r3, [r7, #20]
 462:Libraries/uC-LIB/lib_str.c **** 
 463:Libraries/uC-LIB/lib_str.c ****     while (( pstr_copy_dest != (      CPU_CHAR *)  0 ) &&       /* Copy str until NULL ptr(s)  [see
 259              		.loc 1 463 0
 260 00c2 0FE0     		b	.L11
 261              	.L13:
 464:Libraries/uC-LIB/lib_str.c ****            ( pstr_copy_src  != (const CPU_CHAR *)  0 ) &&
 465:Libraries/uC-LIB/lib_str.c ****            (*pstr_copy_src  != (      CPU_CHAR  )'\0') &&       /* ... or NULL char found      (see
 466:Libraries/uC-LIB/lib_str.c ****            ( len_copy       <  (      CPU_SIZE_T)len_max)) {    /* ... or max nbr chars copied (see
 467:Libraries/uC-LIB/lib_str.c ****        *pstr_copy_dest = *pstr_copy_src;
 262              		.loc 1 467 0
 263 00c4 BB69     		ldr	r3, [r7, #24]
 264 00c6 1A78     		ldrb	r2, [r3, #0]	@ zero_extendqisi2
 265 00c8 FB69     		ldr	r3, [r7, #28]
 266 00ca 1A70     		strb	r2, [r3, #0]
 468:Libraries/uC-LIB/lib_str.c ****         pstr_copy_dest++;
 267              		.loc 1 468 0
 268 00cc FB69     		ldr	r3, [r7, #28]
 269 00ce 03F10103 		add	r3, r3, #1
 270 00d2 FB61     		str	r3, [r7, #28]
 469:Libraries/uC-LIB/lib_str.c ****         pstr_copy_src++;
 271              		.loc 1 469 0
 272 00d4 BB69     		ldr	r3, [r7, #24]
 273 00d6 03F10103 		add	r3, r3, #1
 274 00da BB61     		str	r3, [r7, #24]
 470:Libraries/uC-LIB/lib_str.c ****         len_copy++;
 275              		.loc 1 470 0
 276 00dc 7B69     		ldr	r3, [r7, #20]
 277 00de 03F10103 		add	r3, r3, #1
 278 00e2 7B61     		str	r3, [r7, #20]
 279              	.L11:
 463:Libraries/uC-LIB/lib_str.c ****     while (( pstr_copy_dest != (      CPU_CHAR *)  0 ) &&       /* Copy str until NULL ptr(s)  [see
 280              		.loc 1 463 0 discriminator 1
 281 00e4 FB69     		ldr	r3, [r7, #28]
 282 00e6 002B     		cmp	r3, #0
 283 00e8 0AD0     		beq	.L12
 463:Libraries/uC-LIB/lib_str.c ****     while (( pstr_copy_dest != (      CPU_CHAR *)  0 ) &&       /* Copy str until NULL ptr(s)  [see
 284              		.loc 1 463 0 is_stmt 0 discriminator 2
 285 00ea BB69     		ldr	r3, [r7, #24]
 286 00ec 002B     		cmp	r3, #0
 287 00ee 07D0     		beq	.L12
 465:Libraries/uC-LIB/lib_str.c ****            (*pstr_copy_src  != (      CPU_CHAR  )'\0') &&       /* ... or NULL char found      (see
 288              		.loc 1 465 0 is_stmt 1
 289 00f0 BB69     		ldr	r3, [r7, #24]
 290 00f2 1B78     		ldrb	r3, [r3, #0]	@ zero_extendqisi2
 464:Libraries/uC-LIB/lib_str.c ****            ( pstr_copy_src  != (const CPU_CHAR *)  0 ) &&
 291              		.loc 1 464 0
 292 00f4 002B     		cmp	r3, #0
 293 00f6 03D0     		beq	.L12
 465:Libraries/uC-LIB/lib_str.c ****            (*pstr_copy_src  != (      CPU_CHAR  )'\0') &&       /* ... or NULL char found      (see
 294              		.loc 1 465 0
 295 00f8 7A69     		ldr	r2, [r7, #20]
 296 00fa 7B68     		ldr	r3, [r7, #4]
 297 00fc 9A42     		cmp	r2, r3
 298 00fe E1D3     		bcc	.L13
 299              	.L12:
 471:Libraries/uC-LIB/lib_str.c ****     }
 472:Libraries/uC-LIB/lib_str.c ****                                                                 /* Rtn NULL if NULL ptr(s) found  (
 473:Libraries/uC-LIB/lib_str.c ****     if ((pstr_copy_dest == (      CPU_CHAR *)0) ||
 300              		.loc 1 473 0
 301 0100 FB69     		ldr	r3, [r7, #28]
 302 0102 002B     		cmp	r3, #0
 303 0104 02D0     		beq	.L14
 304              		.loc 1 473 0 is_stmt 0 discriminator 1
 305 0106 BB69     		ldr	r3, [r7, #24]
 306 0108 002B     		cmp	r3, #0
 307 010a 02D1     		bne	.L15
 308              	.L14:
 474:Libraries/uC-LIB/lib_str.c ****         (pstr_copy_src  == (const CPU_CHAR *)0)) {
 475:Libraries/uC-LIB/lib_str.c ****          return ((CPU_CHAR *)0);
 309              		.loc 1 475 0 is_stmt 1
 310 010c 4FF00003 		mov	r3, #0
 311 0110 08E0     		b	.L9
 312              	.L15:
 476:Libraries/uC-LIB/lib_str.c ****     }
 477:Libraries/uC-LIB/lib_str.c **** 
 478:Libraries/uC-LIB/lib_str.c ****     if (len_copy < len_max) {                                   /* If  copy str len < max buf len (
 313              		.loc 1 478 0
 314 0112 7A69     		ldr	r2, [r7, #20]
 315 0114 7B68     		ldr	r3, [r7, #4]
 316 0116 9A42     		cmp	r2, r3
 317 0118 03D2     		bcs	.L16
 479:Libraries/uC-LIB/lib_str.c ****        *pstr_copy_dest = (CPU_CHAR)'\0';                        /* ... copy NULL char  (see Note #3
 318              		.loc 1 479 0
 319 011a FB69     		ldr	r3, [r7, #28]
 320 011c 4FF00002 		mov	r2, #0
 321 0120 1A70     		strb	r2, [r3, #0]
 322              	.L16:
 480:Libraries/uC-LIB/lib_str.c ****     }
 481:Libraries/uC-LIB/lib_str.c **** 
 482:Libraries/uC-LIB/lib_str.c **** 
 483:Libraries/uC-LIB/lib_str.c ****     return (pstr_dest);                                         /* Rtn ptr to dest str (see Note #2
 323              		.loc 1 483 0
 324 0122 FB68     		ldr	r3, [r7, #12]
 325              	.L9:
 484:Libraries/uC-LIB/lib_str.c **** }
 326              		.loc 1 484 0
 327 0124 1846     		mov	r0, r3
 328 0126 07F12407 		add	r7, r7, #36
 329 012a BD46     		mov	sp, r7
 330 012c 80BC     		pop	{r7}
 331 012e 7047     		bx	lr
 332              		.cfi_endproc
 333              	.LFE3:
 335              		.align	2
 336              		.global	Str_Cat
 337              		.thumb
 338              		.thumb_func
 340              	Str_Cat:
 341              	.LFB4:
 485:Libraries/uC-LIB/lib_str.c **** 
 486:Libraries/uC-LIB/lib_str.c **** 
 487:Libraries/uC-LIB/lib_str.c **** /*$PAGE*/
 488:Libraries/uC-LIB/lib_str.c **** /*
 489:Libraries/uC-LIB/lib_str.c **** ***************************************************************************************************
 490:Libraries/uC-LIB/lib_str.c **** *                                              Str_Cat()
 491:Libraries/uC-LIB/lib_str.c **** *
 492:Libraries/uC-LIB/lib_str.c **** * Description : Append concatenation string to destination string.
 493:Libraries/uC-LIB/lib_str.c **** *
 494:Libraries/uC-LIB/lib_str.c **** * Argument(s) : pstr_dest   Pointer to destination   string to append concatenation  string (see No
 495:Libraries/uC-LIB/lib_str.c **** *
 496:Libraries/uC-LIB/lib_str.c **** *               pstr_cat    Pointer to concatenation string to append to destination string (see No
 497:Libraries/uC-LIB/lib_str.c **** *
 498:Libraries/uC-LIB/lib_str.c **** * Return(s)   : Pointer to destination string, if NO error(s) [see Note #2b1].
 499:Libraries/uC-LIB/lib_str.c **** *
 500:Libraries/uC-LIB/lib_str.c **** *               Pointer to NULL,               otherwise      (see Note #2b2A).
 501:Libraries/uC-LIB/lib_str.c **** *
 502:Libraries/uC-LIB/lib_str.c **** * Caller(s)   : Application.
 503:Libraries/uC-LIB/lib_str.c **** *
 504:Libraries/uC-LIB/lib_str.c **** * Note(s)     : (1) (a) Destination buffer size NOT validated; buffer overruns MUST be prevented by
 505:Libraries/uC-LIB/lib_str.c **** *
 506:Libraries/uC-LIB/lib_str.c **** *                       (1) Destination buffer size MUST be large enough to accommodate the entire 
 507:Libraries/uC-LIB/lib_str.c **** *                           concatenated string size including the terminating NULL character.
 508:Libraries/uC-LIB/lib_str.c **** *
 509:Libraries/uC-LIB/lib_str.c **** *                   (b) Concatenation string buffer NOT modified.
 510:Libraries/uC-LIB/lib_str.c **** *
 511:Libraries/uC-LIB/lib_str.c **** *               (2) (a) IEEE Std 1003.1, 2004 Edition, Section 'strcat() : DESCRIPTION' states that
 512:Libraries/uC-LIB/lib_str.c **** *
 513:Libraries/uC-LIB/lib_str.c **** *                       (1) "The strcat() function shall append a copy of the string pointed to by 
 514:Libraries/uC-LIB/lib_str.c **** *                           ('pstr_cat') ... to the end of the string pointed to by 's1' ('pstr_des
 515:Libraries/uC-LIB/lib_str.c **** *
 516:Libraries/uC-LIB/lib_str.c **** *                       (2) (A) "The initial byte of 's2' ('pstr_cat') overwrites the null byte at 
 517:Libraries/uC-LIB/lib_str.c **** *                                end of 's1' ('pstr_dest')."
 518:Libraries/uC-LIB/lib_str.c **** *                           (B)  A "terminating null byte" is appended at the end of the concatenat
 519:Libraries/uC-LIB/lib_str.c **** *                                destination strings.
 520:Libraries/uC-LIB/lib_str.c **** *
 521:Libraries/uC-LIB/lib_str.c **** *                   (b) IEEE Std 1003.1, 2004 Edition, Section 'strcat() : RETURN VALUE' states tha
 522:Libraries/uC-LIB/lib_str.c **** *
 523:Libraries/uC-LIB/lib_str.c **** *                       (1) "The strcat() function shall return 's1' ('pstr_dest');" ...
 524:Libraries/uC-LIB/lib_str.c **** *                       (2) "no return value shall be reserved to indicate an error."
 525:Libraries/uC-LIB/lib_str.c **** *                           (A) #### This requirement is intentionally NOT implemented in order to 
 526:Libraries/uC-LIB/lib_str.c **** *                               NULL for any error(s).
 527:Libraries/uC-LIB/lib_str.c **** *
 528:Libraries/uC-LIB/lib_str.c **** *                   (c) IEEE Std 1003.1, 2004 Edition, Section 'strcat() : DESCRIPTION' states that
 529:Libraries/uC-LIB/lib_str.c **** *                       copying takes place between objects that overlap, the behavior is undefined
 530:Libraries/uC-LIB/lib_str.c **** *
 531:Libraries/uC-LIB/lib_str.c **** *               (3) String concatenation terminates when :
 532:Libraries/uC-LIB/lib_str.c **** *
 533:Libraries/uC-LIB/lib_str.c **** *                   (a) Destination/Concatenation string pointer(s) are passed NULL pointers.
 534:Libraries/uC-LIB/lib_str.c **** *                       (1) No string concatenation performed; NULL pointer returned.
 535:Libraries/uC-LIB/lib_str.c **** *
 536:Libraries/uC-LIB/lib_str.c **** *                   (b) Destination/Concatenation string pointer(s) point to NULL.
 537:Libraries/uC-LIB/lib_str.c **** *                       (1) String buffer(s) overlap with NULL address; NULL pointer returned.
 538:Libraries/uC-LIB/lib_str.c **** *
 539:Libraries/uC-LIB/lib_str.c **** *                   (c) Concatenation string's terminating NULL character found.
 540:Libraries/uC-LIB/lib_str.c **** *                       (1) Entire concatenation string appended to destination string (see Note #2
 541:Libraries/uC-LIB/lib_str.c **** ***************************************************************************************************
 542:Libraries/uC-LIB/lib_str.c **** */
 543:Libraries/uC-LIB/lib_str.c **** 
 544:Libraries/uC-LIB/lib_str.c **** CPU_CHAR  *Str_Cat (       CPU_CHAR  *pstr_dest,
 545:Libraries/uC-LIB/lib_str.c ****                     const  CPU_CHAR  *pstr_cat)
 546:Libraries/uC-LIB/lib_str.c **** {
 342              		.loc 1 546 0
 343              		.cfi_startproc
 344              		@ args = 0, pretend = 0, frame = 16
 345              		@ frame_needed = 1, uses_anonymous_args = 0
 346 0130 80B5     		push	{r7, lr}
 347              	.LCFI12:
 348              		.cfi_def_cfa_offset 8
 349              		.cfi_offset 14, -4
 350              		.cfi_offset 7, -8
 351 0132 84B0     		sub	sp, sp, #16
 352              	.LCFI13:
 353              		.cfi_def_cfa_offset 24
 354 0134 00AF     		add	r7, sp, #0
 355              	.LCFI14:
 356              		.cfi_def_cfa_register 7
 357 0136 7860     		str	r0, [r7, #4]
 358 0138 3960     		str	r1, [r7, #0]
 547:Libraries/uC-LIB/lib_str.c ****     CPU_CHAR  *pstr_rtn;
 548:Libraries/uC-LIB/lib_str.c **** 
 549:Libraries/uC-LIB/lib_str.c ****     
 550:Libraries/uC-LIB/lib_str.c ****     pstr_rtn = Str_Cat_N(pstr_dest,
 359              		.loc 1 550 0
 360 013a 7868     		ldr	r0, [r7, #4]
 361 013c 3968     		ldr	r1, [r7, #0]
 362 013e 4FF0FF32 		mov	r2, #-1
 363 0142 FFF7FEFF 		bl	Str_Cat_N
 364 0146 F860     		str	r0, [r7, #12]
 551:Libraries/uC-LIB/lib_str.c ****                          pstr_cat,
 552:Libraries/uC-LIB/lib_str.c ****                          DEF_INT_CPU_U_MAX_VAL);
 553:Libraries/uC-LIB/lib_str.c **** 
 554:Libraries/uC-LIB/lib_str.c ****     return (pstr_rtn);
 365              		.loc 1 554 0
 366 0148 FB68     		ldr	r3, [r7, #12]
 555:Libraries/uC-LIB/lib_str.c **** }
 367              		.loc 1 555 0
 368 014a 1846     		mov	r0, r3
 369 014c 07F11007 		add	r7, r7, #16
 370 0150 BD46     		mov	sp, r7
 371 0152 80BD     		pop	{r7, pc}
 372              		.cfi_endproc
 373              	.LFE4:
 375              		.align	2
 376              		.global	Str_Cat_N
 377              		.thumb
 378              		.thumb_func
 380              	Str_Cat_N:
 381              	.LFB5:
 556:Libraries/uC-LIB/lib_str.c **** 
 557:Libraries/uC-LIB/lib_str.c **** 
 558:Libraries/uC-LIB/lib_str.c **** /*$PAGE*/
 559:Libraries/uC-LIB/lib_str.c **** /*
 560:Libraries/uC-LIB/lib_str.c **** ***************************************************************************************************
 561:Libraries/uC-LIB/lib_str.c **** *                                             Str_Cat_N()
 562:Libraries/uC-LIB/lib_str.c **** *
 563:Libraries/uC-LIB/lib_str.c **** * Description : Append concatenation string to destination string, up to a maximum number of charac
 564:Libraries/uC-LIB/lib_str.c **** *
 565:Libraries/uC-LIB/lib_str.c **** * Argument(s) : pstr_dest   Pointer to destination   string to append concatenation  string (see No
 566:Libraries/uC-LIB/lib_str.c **** *
 567:Libraries/uC-LIB/lib_str.c **** *               pstr_cat    Pointer to concatenation string to append to destination string (see No
 568:Libraries/uC-LIB/lib_str.c **** *
 569:Libraries/uC-LIB/lib_str.c **** *               len_max     Maximum number of characters to concatenate (see Notes #2a1B & #3d).
 570:Libraries/uC-LIB/lib_str.c **** *
 571:Libraries/uC-LIB/lib_str.c **** * Return(s)   : Pointer to destination string, if NO error(s) [see Note #2b1].
 572:Libraries/uC-LIB/lib_str.c **** *
 573:Libraries/uC-LIB/lib_str.c **** *               Pointer to NULL,               otherwise      (see Note #2b2A).
 574:Libraries/uC-LIB/lib_str.c **** *
 575:Libraries/uC-LIB/lib_str.c **** * Caller(s)   : Application.
 576:Libraries/uC-LIB/lib_str.c **** *
 577:Libraries/uC-LIB/lib_str.c **** * Note(s)     : (1) (a) Destination buffer size NOT validated; buffer overruns MUST be prevented by
 578:Libraries/uC-LIB/lib_str.c **** *
 579:Libraries/uC-LIB/lib_str.c **** *                       (1) Destination buffer size MUST be large enough to accommodate the entire 
 580:Libraries/uC-LIB/lib_str.c **** *                           concatenated string size including the terminating NULL character.
 581:Libraries/uC-LIB/lib_str.c **** *
 582:Libraries/uC-LIB/lib_str.c **** *                   (b) Concatenation string buffer NOT modified.
 583:Libraries/uC-LIB/lib_str.c **** *
 584:Libraries/uC-LIB/lib_str.c **** *               (2) (a) IEEE Std 1003.1, 2004 Edition, Section 'strncat() : DESCRIPTION' states tha
 585:Libraries/uC-LIB/lib_str.c **** *
 586:Libraries/uC-LIB/lib_str.c **** *                       (1) (A) "The strncat() function shall append ... the array pointed to by 's
 587:Libraries/uC-LIB/lib_str.c **** *                               ('pstr_cat') to the end of the string pointed to by 's1' ('pstr_des
 588:Libraries/uC-LIB/lib_str.c **** *                           (B)  but "not more than 'n' ('len_max') bytes".
 589:Libraries/uC-LIB/lib_str.c **** *
 590:Libraries/uC-LIB/lib_str.c **** *                       (2) (A) "The initial byte of 's2' ('pstr_cat') overwrites the null byte at 
 591:Libraries/uC-LIB/lib_str.c **** *                                end of 's1' ('pstr_dest')."
 592:Libraries/uC-LIB/lib_str.c **** *                           (B) "(a null byte and bytes that follow it are not appended)."
 593:Libraries/uC-LIB/lib_str.c **** *                           (C) "A terminating null byte is always appended to the result."
 594:Libraries/uC-LIB/lib_str.c **** *
 595:Libraries/uC-LIB/lib_str.c **** *                   (b) IEEE Std 1003.1, 2004 Edition, Section 'strncat() : RETURN VALUE' states th
 596:Libraries/uC-LIB/lib_str.c **** *
 597:Libraries/uC-LIB/lib_str.c **** *                       (1) "The strncat() function shall return 's1' ('pstr_dest');" ...
 598:Libraries/uC-LIB/lib_str.c **** *                       (2) "no return value shall be reserved to indicate an error."
 599:Libraries/uC-LIB/lib_str.c **** *                           (A) #### This requirement is intentionally NOT implemented in order to 
 600:Libraries/uC-LIB/lib_str.c **** *                               NULL for any error(s).
 601:Libraries/uC-LIB/lib_str.c **** *
 602:Libraries/uC-LIB/lib_str.c **** *                   (c) IEEE Std 1003.1, 2004 Edition, Section 'strncat() : DESCRIPTION' states tha
 603:Libraries/uC-LIB/lib_str.c **** *                       copying takes place between objects that overlap, the behavior is undefined
 604:Libraries/uC-LIB/lib_str.c **** *
 605:Libraries/uC-LIB/lib_str.c **** *               (3) String concatenation terminates when :
 606:Libraries/uC-LIB/lib_str.c **** *
 607:Libraries/uC-LIB/lib_str.c **** *                   (a) Destination/Concatenation string pointer(s) are passed NULL pointers.
 608:Libraries/uC-LIB/lib_str.c **** *                       (1) No string concatenation performed; NULL pointer returned.
 609:Libraries/uC-LIB/lib_str.c **** *
 610:Libraries/uC-LIB/lib_str.c **** *                   (b) Destination/Concatenation string pointer(s) point to NULL.
 611:Libraries/uC-LIB/lib_str.c **** *                       (1) String buffer(s) overlap with NULL address; NULL pointer returned.
 612:Libraries/uC-LIB/lib_str.c **** *
 613:Libraries/uC-LIB/lib_str.c **** *                   (c) Concatenation string's terminating NULL character found.
 614:Libraries/uC-LIB/lib_str.c **** *                       (1) Entire concatenation string appended to destination string (see Note #2
 615:Libraries/uC-LIB/lib_str.c **** *
 616:Libraries/uC-LIB/lib_str.c **** *                   (d) 'len_max' number of characters concatenated.
 617:Libraries/uC-LIB/lib_str.c **** *
 618:Libraries/uC-LIB/lib_str.c **** *                       (1) 'len_max' number of characters does NOT include the terminating NULL ch
 619:Libraries/uC-LIB/lib_str.c **** *                           (see Note #2a2).
 620:Libraries/uC-LIB/lib_str.c **** *
 621:Libraries/uC-LIB/lib_str.c **** *                       (2) Null concatenations allowed (i.e. zero-length concatenations).
 622:Libraries/uC-LIB/lib_str.c **** *                           (A) No string concatenation performed; destination string returned 
 623:Libraries/uC-LIB/lib_str.c **** *                               (see Note #2b1).
 624:Libraries/uC-LIB/lib_str.c **** ***************************************************************************************************
 625:Libraries/uC-LIB/lib_str.c **** */
 626:Libraries/uC-LIB/lib_str.c **** /*$PAGE*/
 627:Libraries/uC-LIB/lib_str.c **** CPU_CHAR  *Str_Cat_N (       CPU_CHAR    *pstr_dest,
 628:Libraries/uC-LIB/lib_str.c ****                       const  CPU_CHAR    *pstr_cat,
 629:Libraries/uC-LIB/lib_str.c ****                              CPU_SIZE_T   len_max)
 630:Libraries/uC-LIB/lib_str.c **** {
 382              		.loc 1 630 0
 383              		.cfi_startproc
 384              		@ args = 0, pretend = 0, frame = 32
 385              		@ frame_needed = 1, uses_anonymous_args = 0
 386              		@ link register save eliminated.
 387 0154 80B4     		push	{r7}
 388              	.LCFI15:
 389              		.cfi_def_cfa_offset 4
 390              		.cfi_offset 7, -4
 391 0156 89B0     		sub	sp, sp, #36
 392              	.LCFI16:
 393              		.cfi_def_cfa_offset 40
 394 0158 00AF     		add	r7, sp, #0
 395              	.LCFI17:
 396              		.cfi_def_cfa_register 7
 397 015a F860     		str	r0, [r7, #12]
 398 015c B960     		str	r1, [r7, #8]
 399 015e 7A60     		str	r2, [r7, #4]
 631:Libraries/uC-LIB/lib_str.c ****            CPU_CHAR    *pstr_cat_dest;
 632:Libraries/uC-LIB/lib_str.c ****     const  CPU_CHAR    *pstr_cat_src;
 633:Libraries/uC-LIB/lib_str.c ****            CPU_SIZE_T   len_cat;
 634:Libraries/uC-LIB/lib_str.c **** 
 635:Libraries/uC-LIB/lib_str.c ****                                                                 /* Rtn NULL if str ptr(s) NULL (see
 636:Libraries/uC-LIB/lib_str.c ****     if (pstr_dest == (CPU_CHAR *)0) {
 400              		.loc 1 636 0
 401 0160 FB68     		ldr	r3, [r7, #12]
 402 0162 002B     		cmp	r3, #0
 403 0164 02D1     		bne	.L19
 637:Libraries/uC-LIB/lib_str.c ****         return ((CPU_CHAR *)0);
 404              		.loc 1 637 0
 405 0166 4FF00003 		mov	r3, #0
 406 016a 50E0     		b	.L20
 407              	.L19:
 638:Libraries/uC-LIB/lib_str.c ****     }
 639:Libraries/uC-LIB/lib_str.c ****     if (pstr_cat  == (const CPU_CHAR *)0) {
 408              		.loc 1 639 0
 409 016c BB68     		ldr	r3, [r7, #8]
 410 016e 002B     		cmp	r3, #0
 411 0170 02D1     		bne	.L21
 640:Libraries/uC-LIB/lib_str.c ****         return ((CPU_CHAR *)0);
 412              		.loc 1 640 0
 413 0172 4FF00003 		mov	r3, #0
 414 0176 4AE0     		b	.L20
 415              	.L21:
 641:Libraries/uC-LIB/lib_str.c ****     }
 642:Libraries/uC-LIB/lib_str.c **** 
 643:Libraries/uC-LIB/lib_str.c ****     if (len_max == 0) {                                         /* Rtn dest str if cat len = 0 (see
 416              		.loc 1 643 0
 417 0178 7B68     		ldr	r3, [r7, #4]
 418 017a 002B     		cmp	r3, #0
 419 017c 01D1     		bne	.L22
 644:Libraries/uC-LIB/lib_str.c ****         return ((CPU_CHAR *)pstr_dest);
 420              		.loc 1 644 0
 421 017e FB68     		ldr	r3, [r7, #12]
 422 0180 45E0     		b	.L20
 423              	.L22:
 645:Libraries/uC-LIB/lib_str.c ****     }
 646:Libraries/uC-LIB/lib_str.c **** 
 647:Libraries/uC-LIB/lib_str.c **** 
 648:Libraries/uC-LIB/lib_str.c ****     pstr_cat_dest = pstr_dest;
 424              		.loc 1 648 0
 425 0182 FB68     		ldr	r3, [r7, #12]
 426 0184 FB61     		str	r3, [r7, #28]
 649:Libraries/uC-LIB/lib_str.c ****     while (( pstr_cat_dest != (CPU_CHAR *)  0 ) &&              /* Adv to end of cur dest str until
 427              		.loc 1 649 0
 428 0186 03E0     		b	.L23
 429              	.L25:
 650:Libraries/uC-LIB/lib_str.c ****            (*pstr_cat_dest != (CPU_CHAR  )'\0')) {              /* ... or NULL char found..        
 651:Libraries/uC-LIB/lib_str.c ****         pstr_cat_dest++;
 430              		.loc 1 651 0
 431 0188 FB69     		ldr	r3, [r7, #28]
 432 018a 03F10103 		add	r3, r3, #1
 433 018e FB61     		str	r3, [r7, #28]
 434              	.L23:
 649:Libraries/uC-LIB/lib_str.c ****     while (( pstr_cat_dest != (CPU_CHAR *)  0 ) &&              /* Adv to end of cur dest str until
 435              		.loc 1 649 0 discriminator 1
 436 0190 FB69     		ldr	r3, [r7, #28]
 437 0192 002B     		cmp	r3, #0
 438 0194 03D0     		beq	.L24
 650:Libraries/uC-LIB/lib_str.c ****            (*pstr_cat_dest != (CPU_CHAR  )'\0')) {              /* ... or NULL char found..        
 439              		.loc 1 650 0 discriminator 2
 440 0196 FB69     		ldr	r3, [r7, #28]
 441 0198 1B78     		ldrb	r3, [r3, #0]	@ zero_extendqisi2
 649:Libraries/uC-LIB/lib_str.c ****     while (( pstr_cat_dest != (CPU_CHAR *)  0 ) &&              /* Adv to end of cur dest str until
 442              		.loc 1 649 0 discriminator 2
 443 019a 002B     		cmp	r3, #0
 444 019c F4D1     		bne	.L25
 445              	.L24:
 652:Libraries/uC-LIB/lib_str.c ****     }
 653:Libraries/uC-LIB/lib_str.c ****     if (pstr_cat_dest == (CPU_CHAR *)0) {                       /* Rtn NULL if NULL ptr found (see 
 446              		.loc 1 653 0
 447 019e FB69     		ldr	r3, [r7, #28]
 448 01a0 002B     		cmp	r3, #0
 449 01a2 02D1     		bne	.L26
 654:Libraries/uC-LIB/lib_str.c ****         return ((CPU_CHAR *)0);
 450              		.loc 1 654 0
 451 01a4 4FF00003 		mov	r3, #0
 452 01a8 31E0     		b	.L20
 453              	.L26:
 655:Libraries/uC-LIB/lib_str.c ****     }
 656:Libraries/uC-LIB/lib_str.c **** 
 657:Libraries/uC-LIB/lib_str.c ****     pstr_cat_src = pstr_cat;
 454              		.loc 1 657 0
 455 01aa BB68     		ldr	r3, [r7, #8]
 456 01ac BB61     		str	r3, [r7, #24]
 658:Libraries/uC-LIB/lib_str.c ****     len_cat      = 0u;
 457              		.loc 1 658 0
 458 01ae 4FF00003 		mov	r3, #0
 459 01b2 7B61     		str	r3, [r7, #20]
 659:Libraries/uC-LIB/lib_str.c **** 
 660:Libraries/uC-LIB/lib_str.c ****     while (( pstr_cat_dest != (      CPU_CHAR *)  0 ) &&        /* Cat str until NULL ptr(s)  [see 
 460              		.loc 1 660 0
 461 01b4 0FE0     		b	.L27
 462              	.L29:
 661:Libraries/uC-LIB/lib_str.c ****            ( pstr_cat_src  != (const CPU_CHAR *)  0 ) &&
 662:Libraries/uC-LIB/lib_str.c ****            (*pstr_cat_src  != (      CPU_CHAR  )'\0') &&        /* ... or NULL char found     (see 
 663:Libraries/uC-LIB/lib_str.c ****            ( len_cat       <  (      CPU_SIZE_T)len_max)) {     /* ... or max nbr chars cat'd (see 
 664:Libraries/uC-LIB/lib_str.c ****        *pstr_cat_dest = *pstr_cat_src;
 463              		.loc 1 664 0
 464 01b6 BB69     		ldr	r3, [r7, #24]
 465 01b8 1A78     		ldrb	r2, [r3, #0]	@ zero_extendqisi2
 466 01ba FB69     		ldr	r3, [r7, #28]
 467 01bc 1A70     		strb	r2, [r3, #0]
 665:Libraries/uC-LIB/lib_str.c ****         pstr_cat_dest++;
 468              		.loc 1 665 0
 469 01be FB69     		ldr	r3, [r7, #28]
 470 01c0 03F10103 		add	r3, r3, #1
 471 01c4 FB61     		str	r3, [r7, #28]
 666:Libraries/uC-LIB/lib_str.c ****         pstr_cat_src++;
 472              		.loc 1 666 0
 473 01c6 BB69     		ldr	r3, [r7, #24]
 474 01c8 03F10103 		add	r3, r3, #1
 475 01cc BB61     		str	r3, [r7, #24]
 667:Libraries/uC-LIB/lib_str.c ****         len_cat++;
 476              		.loc 1 667 0
 477 01ce 7B69     		ldr	r3, [r7, #20]
 478 01d0 03F10103 		add	r3, r3, #1
 479 01d4 7B61     		str	r3, [r7, #20]
 480              	.L27:
 660:Libraries/uC-LIB/lib_str.c ****     while (( pstr_cat_dest != (      CPU_CHAR *)  0 ) &&        /* Cat str until NULL ptr(s)  [see 
 481              		.loc 1 660 0 discriminator 1
 482 01d6 FB69     		ldr	r3, [r7, #28]
 483 01d8 002B     		cmp	r3, #0
 484 01da 0AD0     		beq	.L28
 660:Libraries/uC-LIB/lib_str.c ****     while (( pstr_cat_dest != (      CPU_CHAR *)  0 ) &&        /* Cat str until NULL ptr(s)  [see 
 485              		.loc 1 660 0 is_stmt 0 discriminator 2
 486 01dc BB69     		ldr	r3, [r7, #24]
 487 01de 002B     		cmp	r3, #0
 488 01e0 07D0     		beq	.L28
 662:Libraries/uC-LIB/lib_str.c ****            (*pstr_cat_src  != (      CPU_CHAR  )'\0') &&        /* ... or NULL char found     (see 
 489              		.loc 1 662 0 is_stmt 1
 490 01e2 BB69     		ldr	r3, [r7, #24]
 491 01e4 1B78     		ldrb	r3, [r3, #0]	@ zero_extendqisi2
 661:Libraries/uC-LIB/lib_str.c ****            ( pstr_cat_src  != (const CPU_CHAR *)  0 ) &&
 492              		.loc 1 661 0
 493 01e6 002B     		cmp	r3, #0
 494 01e8 03D0     		beq	.L28
 662:Libraries/uC-LIB/lib_str.c ****            (*pstr_cat_src  != (      CPU_CHAR  )'\0') &&        /* ... or NULL char found     (see 
 495              		.loc 1 662 0
 496 01ea 7A69     		ldr	r2, [r7, #20]
 497 01ec 7B68     		ldr	r3, [r7, #4]
 498 01ee 9A42     		cmp	r2, r3
 499 01f0 E1D3     		bcc	.L29
 500              	.L28:
 668:Libraries/uC-LIB/lib_str.c ****     }
 669:Libraries/uC-LIB/lib_str.c ****                                                                 /* Rtn NULL if NULL ptr(s) found (s
 670:Libraries/uC-LIB/lib_str.c ****     if ((pstr_cat_dest == (      CPU_CHAR *)0) ||
 501              		.loc 1 670 0
 502 01f2 FB69     		ldr	r3, [r7, #28]
 503 01f4 002B     		cmp	r3, #0
 504 01f6 02D0     		beq	.L30
 505              		.loc 1 670 0 is_stmt 0 discriminator 1
 506 01f8 BB69     		ldr	r3, [r7, #24]
 507 01fa 002B     		cmp	r3, #0
 508 01fc 02D1     		bne	.L31
 509              	.L30:
 671:Libraries/uC-LIB/lib_str.c ****         (pstr_cat_src  == (const CPU_CHAR *)0)) {
 672:Libraries/uC-LIB/lib_str.c ****          return ((CPU_CHAR *)0);
 510              		.loc 1 672 0 is_stmt 1
 511 01fe 4FF00003 		mov	r3, #0
 512 0202 04E0     		b	.L20
 513              	.L31:
 673:Libraries/uC-LIB/lib_str.c ****     }
 674:Libraries/uC-LIB/lib_str.c **** 
 675:Libraries/uC-LIB/lib_str.c ****    *pstr_cat_dest = (CPU_CHAR)'\0';                             /* Append NULL char    (see Note #2
 514              		.loc 1 675 0
 515 0204 FB69     		ldr	r3, [r7, #28]
 516 0206 4FF00002 		mov	r2, #0
 517 020a 1A70     		strb	r2, [r3, #0]
 676:Libraries/uC-LIB/lib_str.c **** 
 677:Libraries/uC-LIB/lib_str.c **** 
 678:Libraries/uC-LIB/lib_str.c ****     return (pstr_dest);                                         /* Rtn ptr to dest str (see Note #2
 518              		.loc 1 678 0
 519 020c FB68     		ldr	r3, [r7, #12]
 520              	.L20:
 679:Libraries/uC-LIB/lib_str.c **** }
 521              		.loc 1 679 0
 522 020e 1846     		mov	r0, r3
 523 0210 07F12407 		add	r7, r7, #36
 524 0214 BD46     		mov	sp, r7
 525 0216 80BC     		pop	{r7}
 526 0218 7047     		bx	lr
 527              		.cfi_endproc
 528              	.LFE5:
 530 021a 00BF     		.align	2
 531              		.global	Str_Cmp
 532              		.thumb
 533              		.thumb_func
 535              	Str_Cmp:
 536              	.LFB6:
 680:Libraries/uC-LIB/lib_str.c **** 
 681:Libraries/uC-LIB/lib_str.c **** 
 682:Libraries/uC-LIB/lib_str.c **** /*$PAGE*/
 683:Libraries/uC-LIB/lib_str.c **** /*
 684:Libraries/uC-LIB/lib_str.c **** ***************************************************************************************************
 685:Libraries/uC-LIB/lib_str.c **** *                                              Str_Cmp()
 686:Libraries/uC-LIB/lib_str.c **** *
 687:Libraries/uC-LIB/lib_str.c **** * Description : Determine if two strings are identical.
 688:Libraries/uC-LIB/lib_str.c **** *
 689:Libraries/uC-LIB/lib_str.c **** * Argument(s) : p1_str      Pointer to first  string (see Note #1).
 690:Libraries/uC-LIB/lib_str.c **** *
 691:Libraries/uC-LIB/lib_str.c **** *               p2_str      Pointer to second string (see Note #1).
 692:Libraries/uC-LIB/lib_str.c **** *
 693:Libraries/uC-LIB/lib_str.c **** * Return(s)   : 0,              if strings are identical             (see Notes #3a1A, #3a2A, & #3b
 694:Libraries/uC-LIB/lib_str.c **** *
 695:Libraries/uC-LIB/lib_str.c **** *               Negative value, if 'p1_str' is less    than 'p2_str' (see Notes #3a1B1, #3a2B1, & #
 696:Libraries/uC-LIB/lib_str.c **** *
 697:Libraries/uC-LIB/lib_str.c **** *               Positive value, if 'p1_str' is greater than 'p2_str' (see Notes #3a1B2, #3a2B2, & #
 698:Libraries/uC-LIB/lib_str.c **** *
 699:Libraries/uC-LIB/lib_str.c **** *               See also Note #2b.
 700:Libraries/uC-LIB/lib_str.c **** *
 701:Libraries/uC-LIB/lib_str.c **** * Caller(s)   : Application.
 702:Libraries/uC-LIB/lib_str.c **** *
 703:Libraries/uC-LIB/lib_str.c **** * Note(s)     : (1) String buffers NOT modified.
 704:Libraries/uC-LIB/lib_str.c **** *
 705:Libraries/uC-LIB/lib_str.c **** *               (2) (a) IEEE Std 1003.1, 2004 Edition, Section 'strcmp() : DESCRIPTION' states that
 706:Libraries/uC-LIB/lib_str.c **** *                       strcmp() function shall compare the string pointed to by 's1' ('p1_str') to
 707:Libraries/uC-LIB/lib_str.c **** *                       string pointed to by 's2' ('p2_str)".
 708:Libraries/uC-LIB/lib_str.c **** *
 709:Libraries/uC-LIB/lib_str.c **** *                   (b) (1) IEEE Std 1003.1, 2004 Edition, Section 'strcmp() : RETURN VALUE' states
 710:Libraries/uC-LIB/lib_str.c **** *                          "upon successful completion, strcmp() shall return an integer greater th
 711:Libraries/uC-LIB/lib_str.c **** *                           equal to, or less than 0".
 712:Libraries/uC-LIB/lib_str.c **** *
 713:Libraries/uC-LIB/lib_str.c **** *                       (2) IEEE Std 1003.1, 2004 Edition, Section 'strcmp() : DESCRIPTION' adds th
 714:Libraries/uC-LIB/lib_str.c **** *                           sign of a non-zero return value shall be determined by the sign of the 
 715:Libraries/uC-LIB/lib_str.c **** *                           between the values of the first pair of bytes ... that differ in the st
 716:Libraries/uC-LIB/lib_str.c **** *                           being compared".
 717:Libraries/uC-LIB/lib_str.c **** *
 718:Libraries/uC-LIB/lib_str.c **** *               (3) String comparison terminates when :
 719:Libraries/uC-LIB/lib_str.c **** *
 720:Libraries/uC-LIB/lib_str.c **** *                   (a) (1) (A) BOTH string pointer(s) are passed NULL pointers.
 721:Libraries/uC-LIB/lib_str.c **** *                               (1) NULL strings identical; 0 returned.
 722:Libraries/uC-LIB/lib_str.c **** *
 723:Libraries/uC-LIB/lib_str.c **** *                           (B) (1) 'p1_str' passed a NULL pointer.
 724:Libraries/uC-LIB/lib_str.c **** *                                   (a) Return negative value of character pointed to by 'p2_str'.
 725:Libraries/uC-LIB/lib_str.c **** *
 726:Libraries/uC-LIB/lib_str.c **** *                               (2) 'p2_str' passed a NULL pointer.
 727:Libraries/uC-LIB/lib_str.c **** *                                   (a) Return positive value of character pointed to by 'p1_str'.
 728:Libraries/uC-LIB/lib_str.c **** *
 729:Libraries/uC-LIB/lib_str.c **** *                       (2) (A) BOTH strings point to NULL.
 730:Libraries/uC-LIB/lib_str.c **** *                               (1) Strings overlap with NULL address.
 731:Libraries/uC-LIB/lib_str.c **** *                               (2) Strings identical up to but NOT beyond or including the NULL ad
 732:Libraries/uC-LIB/lib_str.c **** *                                   0 returned.
 733:Libraries/uC-LIB/lib_str.c **** *
 734:Libraries/uC-LIB/lib_str.c **** *                           (B) (1) 'p1_str_cmp_next' points to NULL.
 735:Libraries/uC-LIB/lib_str.c **** *                                   (a) 'p1_str' overlaps with NULL address.
 736:Libraries/uC-LIB/lib_str.c **** *                                   (b) Strings compared up to but NOT beyond or including the NULL
 737:Libraries/uC-LIB/lib_str.c **** *                                   (c) Return negative value of character pointed to by 'p2_str_cm
 738:Libraries/uC-LIB/lib_str.c **** *
 739:Libraries/uC-LIB/lib_str.c **** *                               (2) 'p2_str_cmp_next' points to NULL.
 740:Libraries/uC-LIB/lib_str.c **** *                                   (a) 'p2_str' overlaps with NULL address.
 741:Libraries/uC-LIB/lib_str.c **** *                                   (b) Strings compared up to but NOT beyond or including the NULL
 742:Libraries/uC-LIB/lib_str.c **** *                                   (c) Return positive value of character pointed to by 'p1_str_cm
 743:Libraries/uC-LIB/lib_str.c **** *
 744:Libraries/uC-LIB/lib_str.c **** *                   (b) Terminating NULL character found in both strings.
 745:Libraries/uC-LIB/lib_str.c **** *                       (1) Strings identical; 0 returned.
 746:Libraries/uC-LIB/lib_str.c **** *                       (2) Only one NULL character test required in conditional since previous con
 747:Libraries/uC-LIB/lib_str.c **** *                           tested character equality.
 748:Libraries/uC-LIB/lib_str.c **** *
 749:Libraries/uC-LIB/lib_str.c **** *                   (c) Non-matching characters found.
 750:Libraries/uC-LIB/lib_str.c **** *                       (1) Return signed-integer difference of the character pointed to by 'p2_str
 751:Libraries/uC-LIB/lib_str.c **** *                           from the character pointed to by 'p1_str'.
 752:Libraries/uC-LIB/lib_str.c **** *
 753:Libraries/uC-LIB/lib_str.c **** *               (4) Since 16-bit signed arithmetic is performed to calculate a non-identical compar
 754:Libraries/uC-LIB/lib_str.c **** *                   return value, 'CPU_CHAR' native data type size MUST be 8-bit.
 755:Libraries/uC-LIB/lib_str.c **** ***************************************************************************************************
 756:Libraries/uC-LIB/lib_str.c **** */
 757:Libraries/uC-LIB/lib_str.c **** 
 758:Libraries/uC-LIB/lib_str.c **** CPU_INT16S  Str_Cmp (const  CPU_CHAR  *p1_str,
 759:Libraries/uC-LIB/lib_str.c ****                      const  CPU_CHAR  *p2_str)
 760:Libraries/uC-LIB/lib_str.c **** {
 537              		.loc 1 760 0
 538              		.cfi_startproc
 539              		@ args = 0, pretend = 0, frame = 16
 540              		@ frame_needed = 1, uses_anonymous_args = 0
 541 021c 80B5     		push	{r7, lr}
 542              	.LCFI18:
 543              		.cfi_def_cfa_offset 8
 544              		.cfi_offset 14, -4
 545              		.cfi_offset 7, -8
 546 021e 84B0     		sub	sp, sp, #16
 547              	.LCFI19:
 548              		.cfi_def_cfa_offset 24
 549 0220 00AF     		add	r7, sp, #0
 550              	.LCFI20:
 551              		.cfi_def_cfa_register 7
 552 0222 7860     		str	r0, [r7, #4]
 553 0224 3960     		str	r1, [r7, #0]
 761:Libraries/uC-LIB/lib_str.c ****     CPU_INT16S  cmp_val;
 762:Libraries/uC-LIB/lib_str.c **** 
 763:Libraries/uC-LIB/lib_str.c **** 
 764:Libraries/uC-LIB/lib_str.c ****     cmp_val = Str_Cmp_N(p1_str,
 554              		.loc 1 764 0
 555 0226 7868     		ldr	r0, [r7, #4]
 556 0228 3968     		ldr	r1, [r7, #0]
 557 022a 4FF0FF32 		mov	r2, #-1
 558 022e FFF7FEFF 		bl	Str_Cmp_N
 559 0232 0346     		mov	r3, r0
 560 0234 FB81     		strh	r3, [r7, #14]	@ movhi
 765:Libraries/uC-LIB/lib_str.c ****                         p2_str,
 766:Libraries/uC-LIB/lib_str.c ****                         DEF_INT_CPU_U_MAX_VAL);
 767:Libraries/uC-LIB/lib_str.c **** 
 768:Libraries/uC-LIB/lib_str.c ****     return (cmp_val);
 561              		.loc 1 768 0
 562 0236 FB89     		ldrh	r3, [r7, #14]
 563 0238 1BB2     		sxth	r3, r3
 769:Libraries/uC-LIB/lib_str.c **** }
 564              		.loc 1 769 0
 565 023a 1846     		mov	r0, r3
 566 023c 07F11007 		add	r7, r7, #16
 567 0240 BD46     		mov	sp, r7
 568 0242 80BD     		pop	{r7, pc}
 569              		.cfi_endproc
 570              	.LFE6:
 572              		.align	2
 573              		.global	Str_Cmp_N
 574              		.thumb
 575              		.thumb_func
 577              	Str_Cmp_N:
 578              	.LFB7:
 770:Libraries/uC-LIB/lib_str.c **** 
 771:Libraries/uC-LIB/lib_str.c **** 
 772:Libraries/uC-LIB/lib_str.c **** /*$PAGE*/
 773:Libraries/uC-LIB/lib_str.c **** /*
 774:Libraries/uC-LIB/lib_str.c **** ***************************************************************************************************
 775:Libraries/uC-LIB/lib_str.c **** *                                             Str_Cmp_N()
 776:Libraries/uC-LIB/lib_str.c **** *
 777:Libraries/uC-LIB/lib_str.c **** * Description : Determine if two strings are identical for up to a maximum number of characters.
 778:Libraries/uC-LIB/lib_str.c **** *
 779:Libraries/uC-LIB/lib_str.c **** * Argument(s) : p1_str      Pointer to first  string (see Note #1).
 780:Libraries/uC-LIB/lib_str.c **** *
 781:Libraries/uC-LIB/lib_str.c **** *               p2_str      Pointer to second string (see Note #1).
 782:Libraries/uC-LIB/lib_str.c **** *
 783:Libraries/uC-LIB/lib_str.c **** *               len_max     Maximum number of characters to compare  (see Note  #3d).
 784:Libraries/uC-LIB/lib_str.c **** *
 785:Libraries/uC-LIB/lib_str.c **** * Return(s)   : 0,              if strings are identical             (see Notes #3a1A, #3a2A, #3b, 
 786:Libraries/uC-LIB/lib_str.c **** *
 787:Libraries/uC-LIB/lib_str.c **** *               Negative value, if 'p1_str' is less    than 'p2_str' (see Notes #3a1B1, #3a2B1, & #
 788:Libraries/uC-LIB/lib_str.c **** *
 789:Libraries/uC-LIB/lib_str.c **** *               Positive value, if 'p1_str' is greater than 'p2_str' (see Notes #3a1B2, #3a2B2, & #
 790:Libraries/uC-LIB/lib_str.c **** *
 791:Libraries/uC-LIB/lib_str.c **** *               See also Note #2b.
 792:Libraries/uC-LIB/lib_str.c **** *
 793:Libraries/uC-LIB/lib_str.c **** * Caller(s)   : Application.
 794:Libraries/uC-LIB/lib_str.c **** *
 795:Libraries/uC-LIB/lib_str.c **** * Note(s)     : (1) String buffers NOT modified.
 796:Libraries/uC-LIB/lib_str.c **** *
 797:Libraries/uC-LIB/lib_str.c **** *               (2) (a) IEEE Std 1003.1, 2004 Edition, Section 'strncmp() : DESCRIPTION' states tha
 798:Libraries/uC-LIB/lib_str.c **** *
 799:Libraries/uC-LIB/lib_str.c **** *                       (1) "The strncmp() function shall compare ... the array pointed to by 's1' 
 800:Libraries/uC-LIB/lib_str.c **** *                            to the array pointed to by 's2' ('p2_str)" ...
 801:Libraries/uC-LIB/lib_str.c **** *                       (2)  but "not more than 'n' ('len_max') bytes" of either array.
 802:Libraries/uC-LIB/lib_str.c **** *
 803:Libraries/uC-LIB/lib_str.c **** *                   (b) (1) IEEE Std 1003.1, 2004 Edition, Section 'strncmp() : RETURN VALUE' state
 804:Libraries/uC-LIB/lib_str.c **** *                          "upon successful completion, strncmp() shall return an integer greater t
 805:Libraries/uC-LIB/lib_str.c **** *                           equal to, or less than 0".
 806:Libraries/uC-LIB/lib_str.c **** *
 807:Libraries/uC-LIB/lib_str.c **** *                       (2) IEEE Std 1003.1, 2004 Edition, Section 'strncmp() : DESCRIPTION' adds t
 808:Libraries/uC-LIB/lib_str.c **** *                          "the sign of a non-zero return value is determined by the sign of the di
 809:Libraries/uC-LIB/lib_str.c **** *                           between the values of the first pair of bytes ... that differ in the st
 810:Libraries/uC-LIB/lib_str.c **** *                           being compared".
 811:Libraries/uC-LIB/lib_str.c **** *
 812:Libraries/uC-LIB/lib_str.c **** *               (3) String comparison terminates when :
 813:Libraries/uC-LIB/lib_str.c **** *
 814:Libraries/uC-LIB/lib_str.c **** *                   (a) (1) (A) BOTH string pointer(s) are passed NULL pointers.
 815:Libraries/uC-LIB/lib_str.c **** *                               (1) NULL strings identical; 0 returned.
 816:Libraries/uC-LIB/lib_str.c **** *
 817:Libraries/uC-LIB/lib_str.c **** *                           (B) (1) 'p1_str' passed a NULL pointer.
 818:Libraries/uC-LIB/lib_str.c **** *                                   (a) Return negative value of character pointed to by 'p2_str'.
 819:Libraries/uC-LIB/lib_str.c **** *
 820:Libraries/uC-LIB/lib_str.c **** *                               (2) 'p2_str' passed a NULL pointer.
 821:Libraries/uC-LIB/lib_str.c **** *                                   (a) Return positive value of character pointed to by 'p1_str'.
 822:Libraries/uC-LIB/lib_str.c **** *
 823:Libraries/uC-LIB/lib_str.c **** *                       (2) (A) BOTH strings point to NULL.
 824:Libraries/uC-LIB/lib_str.c **** *                               (1) Strings overlap with NULL address.
 825:Libraries/uC-LIB/lib_str.c **** *                               (2) Strings identical up to but NOT beyond or including the NULL ad
 826:Libraries/uC-LIB/lib_str.c **** *                                   0 returned.
 827:Libraries/uC-LIB/lib_str.c **** *
 828:Libraries/uC-LIB/lib_str.c **** *                           (B) (1) 'p1_str_cmp_next' points to NULL.
 829:Libraries/uC-LIB/lib_str.c **** *                                   (a) 'p1_str' overlaps with NULL address.
 830:Libraries/uC-LIB/lib_str.c **** *                                   (b) Strings compared up to but NOT beyond or including the NULL
 831:Libraries/uC-LIB/lib_str.c **** *                                   (c) Return negative value of character pointed to by 'p2_str_cm
 832:Libraries/uC-LIB/lib_str.c **** *
 833:Libraries/uC-LIB/lib_str.c **** *                               (2) 'p2_str_cmp_next' points to NULL.
 834:Libraries/uC-LIB/lib_str.c **** *                                   (a) 'p2_str' overlaps with NULL address.
 835:Libraries/uC-LIB/lib_str.c **** *                                   (b) Strings compared up to but NOT beyond or including the NULL
 836:Libraries/uC-LIB/lib_str.c **** *                                   (c) Return positive value of character pointed to by 'p1_str_cm
 837:Libraries/uC-LIB/lib_str.c **** *
 838:Libraries/uC-LIB/lib_str.c **** *                   (b) Terminating NULL character found in both strings.
 839:Libraries/uC-LIB/lib_str.c **** *                       (1) Strings identical; 0 returned.
 840:Libraries/uC-LIB/lib_str.c **** *                       (2) Only one NULL character test required in conditional since previous con
 841:Libraries/uC-LIB/lib_str.c **** *                           tested character equality.
 842:Libraries/uC-LIB/lib_str.c **** *
 843:Libraries/uC-LIB/lib_str.c **** *                   (c) Non-matching characters found.
 844:Libraries/uC-LIB/lib_str.c **** *                       (1) Return signed-integer difference of the character pointed to by 'p2_str
 845:Libraries/uC-LIB/lib_str.c **** *                           from the character pointed to by 'p1_str'.
 846:Libraries/uC-LIB/lib_str.c **** *
 847:Libraries/uC-LIB/lib_str.c **** *                   (d) (1) 'len_max' passed a zero length.
 848:Libraries/uC-LIB/lib_str.c **** *                           (A) Zero-length strings identical; 0 returned.
 849:Libraries/uC-LIB/lib_str.c **** *
 850:Libraries/uC-LIB/lib_str.c **** *                       (2) First 'len_max' number of characters identical.
 851:Libraries/uC-LIB/lib_str.c **** *                           (A) Strings identical; 0 returned.
 852:Libraries/uC-LIB/lib_str.c **** *
 853:Libraries/uC-LIB/lib_str.c **** *                       See also Note #2a2.
 854:Libraries/uC-LIB/lib_str.c **** *
 855:Libraries/uC-LIB/lib_str.c **** *               (4) Since 16-bit signed arithmetic is performed to calculate a non-identical compar
 856:Libraries/uC-LIB/lib_str.c **** *                   return value, 'CPU_CHAR' native data type size MUST be 8-bit.
 857:Libraries/uC-LIB/lib_str.c **** ***************************************************************************************************
 858:Libraries/uC-LIB/lib_str.c **** */
 859:Libraries/uC-LIB/lib_str.c **** /*$PAGE*/
 860:Libraries/uC-LIB/lib_str.c **** CPU_INT16S  Str_Cmp_N (const  CPU_CHAR    *p1_str,
 861:Libraries/uC-LIB/lib_str.c ****                        const  CPU_CHAR    *p2_str,
 862:Libraries/uC-LIB/lib_str.c ****                               CPU_SIZE_T   len_max)
 863:Libraries/uC-LIB/lib_str.c **** {
 579              		.loc 1 863 0
 580              		.cfi_startproc
 581              		@ args = 0, pretend = 0, frame = 40
 582              		@ frame_needed = 1, uses_anonymous_args = 0
 583              		@ link register save eliminated.
 584 0244 80B4     		push	{r7}
 585              	.LCFI21:
 586              		.cfi_def_cfa_offset 4
 587              		.cfi_offset 7, -4
 588 0246 8BB0     		sub	sp, sp, #44
 589              	.LCFI22:
 590              		.cfi_def_cfa_offset 48
 591 0248 00AF     		add	r7, sp, #0
 592              	.LCFI23:
 593              		.cfi_def_cfa_register 7
 594 024a F860     		str	r0, [r7, #12]
 595 024c B960     		str	r1, [r7, #8]
 596 024e 7A60     		str	r2, [r7, #4]
 864:Libraries/uC-LIB/lib_str.c ****     const  CPU_CHAR    *p1_str_cmp;
 865:Libraries/uC-LIB/lib_str.c ****     const  CPU_CHAR    *p2_str_cmp;
 866:Libraries/uC-LIB/lib_str.c ****     const  CPU_CHAR    *p1_str_cmp_next;
 867:Libraries/uC-LIB/lib_str.c ****     const  CPU_CHAR    *p2_str_cmp_next;
 868:Libraries/uC-LIB/lib_str.c ****            CPU_INT16S   cmp_val;
 869:Libraries/uC-LIB/lib_str.c ****            CPU_SIZE_T   cmp_len;
 870:Libraries/uC-LIB/lib_str.c **** 
 871:Libraries/uC-LIB/lib_str.c **** 
 872:Libraries/uC-LIB/lib_str.c ****     if (len_max == 0) {                                         /* If cmp len = 0,        rtn 0    
 597              		.loc 1 872 0
 598 0250 7B68     		ldr	r3, [r7, #4]
 599 0252 002B     		cmp	r3, #0
 600 0254 02D1     		bne	.L34
 873:Libraries/uC-LIB/lib_str.c ****         return (0);
 601              		.loc 1 873 0
 602 0256 4FF00003 		mov	r3, #0
 603 025a 87E0     		b	.L35
 604              	.L34:
 874:Libraries/uC-LIB/lib_str.c ****     }
 875:Libraries/uC-LIB/lib_str.c **** 
 876:Libraries/uC-LIB/lib_str.c ****     if (p1_str == (const CPU_CHAR *)0) {
 605              		.loc 1 876 0
 606 025c FB68     		ldr	r3, [r7, #12]
 607 025e 002B     		cmp	r3, #0
 608 0260 0DD1     		bne	.L36
 877:Libraries/uC-LIB/lib_str.c ****         if (p2_str == (const CPU_CHAR *)0) {
 609              		.loc 1 877 0
 610 0262 BB68     		ldr	r3, [r7, #8]
 611 0264 002B     		cmp	r3, #0
 612 0266 02D1     		bne	.L37
 878:Libraries/uC-LIB/lib_str.c ****             return (0);                                         /* If BOTH str ptrs NULL, rtn 0    
 613              		.loc 1 878 0
 614 0268 4FF00003 		mov	r3, #0
 615 026c 7EE0     		b	.L35
 616              	.L37:
 879:Libraries/uC-LIB/lib_str.c ****         }
 880:Libraries/uC-LIB/lib_str.c ****         cmp_val = (CPU_INT16S)0 - (CPU_INT16S)(*p2_str);
 617              		.loc 1 880 0
 618 026e BB68     		ldr	r3, [r7, #8]
 619 0270 1B78     		ldrb	r3, [r3, #0]	@ zero_extendqisi2
 620 0272 C3F10003 		rsb	r3, r3, #0
 621 0276 9BB2     		uxth	r3, r3
 622 0278 FB82     		strh	r3, [r7, #22]	@ movhi
 881:Libraries/uC-LIB/lib_str.c ****         return (cmp_val);                                       /* If p1_str NULL, rtn neg p2_str v
 623              		.loc 1 881 0
 624 027a FB8A     		ldrh	r3, [r7, #22]
 625 027c 76E0     		b	.L35
 626              	.L36:
 882:Libraries/uC-LIB/lib_str.c ****     }
 883:Libraries/uC-LIB/lib_str.c ****     if (p2_str == (const CPU_CHAR *)0) {
 627              		.loc 1 883 0
 628 027e BB68     		ldr	r3, [r7, #8]
 629 0280 002B     		cmp	r3, #0
 630 0282 04D1     		bne	.L38
 884:Libraries/uC-LIB/lib_str.c ****         cmp_val = (CPU_INT16S)(*p1_str);
 631              		.loc 1 884 0
 632 0284 FB68     		ldr	r3, [r7, #12]
 633 0286 1B78     		ldrb	r3, [r3, #0]	@ zero_extendqisi2
 634 0288 FB82     		strh	r3, [r7, #22]	@ movhi
 885:Libraries/uC-LIB/lib_str.c ****         return (cmp_val);                                       /* If p2_str NULL, rtn pos p1_str v
 635              		.loc 1 885 0
 636 028a FB8A     		ldrh	r3, [r7, #22]
 637 028c 6EE0     		b	.L35
 638              	.L38:
 886:Libraries/uC-LIB/lib_str.c ****     }
 887:Libraries/uC-LIB/lib_str.c **** 
 888:Libraries/uC-LIB/lib_str.c **** 
 889:Libraries/uC-LIB/lib_str.c ****     p1_str_cmp      = p1_str;
 639              		.loc 1 889 0
 640 028e FB68     		ldr	r3, [r7, #12]
 641 0290 7B62     		str	r3, [r7, #36]
 890:Libraries/uC-LIB/lib_str.c ****     p2_str_cmp      = p2_str;
 642              		.loc 1 890 0
 643 0292 BB68     		ldr	r3, [r7, #8]
 644 0294 3B62     		str	r3, [r7, #32]
 891:Libraries/uC-LIB/lib_str.c ****     p1_str_cmp_next = p1_str_cmp;
 645              		.loc 1 891 0
 646 0296 7B6A     		ldr	r3, [r7, #36]
 647 0298 FB61     		str	r3, [r7, #28]
 892:Libraries/uC-LIB/lib_str.c ****     p2_str_cmp_next = p2_str_cmp;
 648              		.loc 1 892 0
 649 029a 3B6A     		ldr	r3, [r7, #32]
 650 029c BB61     		str	r3, [r7, #24]
 893:Libraries/uC-LIB/lib_str.c ****     p1_str_cmp_next++;
 651              		.loc 1 893 0
 652 029e FB69     		ldr	r3, [r7, #28]
 653 02a0 03F10103 		add	r3, r3, #1
 654 02a4 FB61     		str	r3, [r7, #28]
 894:Libraries/uC-LIB/lib_str.c ****     p2_str_cmp_next++;
 655              		.loc 1 894 0
 656 02a6 BB69     		ldr	r3, [r7, #24]
 657 02a8 03F10103 		add	r3, r3, #1
 658 02ac BB61     		str	r3, [r7, #24]
 895:Libraries/uC-LIB/lib_str.c ****     cmp_len         = 0u;
 659              		.loc 1 895 0
 660 02ae 4FF00003 		mov	r3, #0
 661 02b2 3B61     		str	r3, [r7, #16]
 896:Libraries/uC-LIB/lib_str.c **** 
 897:Libraries/uC-LIB/lib_str.c ****     while ((*p1_str_cmp      == *p2_str_cmp)      &&            /* Cmp strs until non-matching char
 662              		.loc 1 897 0
 663 02b4 13E0     		b	.L39
 664              	.L41:
 898:Libraries/uC-LIB/lib_str.c ****            (*p1_str_cmp      != (      CPU_CHAR  )'\0') &&      /* ... or NULL chars               
 899:Libraries/uC-LIB/lib_str.c ****            ( p1_str_cmp_next != (const CPU_CHAR *)  0 ) &&      /* ... or NULL ptr(s) found        
 900:Libraries/uC-LIB/lib_str.c ****            ( p2_str_cmp_next != (const CPU_CHAR *)  0 ) &&
 901:Libraries/uC-LIB/lib_str.c ****            ( cmp_len         <  (      CPU_SIZE_T)len_max)) {   /* ... or max nbr chars cmp'd      
 902:Libraries/uC-LIB/lib_str.c ****         p1_str_cmp++;
 665              		.loc 1 902 0
 666 02b6 7B6A     		ldr	r3, [r7, #36]
 667 02b8 03F10103 		add	r3, r3, #1
 668 02bc 7B62     		str	r3, [r7, #36]
 903:Libraries/uC-LIB/lib_str.c ****         p2_str_cmp++;
 669              		.loc 1 903 0
 670 02be 3B6A     		ldr	r3, [r7, #32]
 671 02c0 03F10103 		add	r3, r3, #1
 672 02c4 3B62     		str	r3, [r7, #32]
 904:Libraries/uC-LIB/lib_str.c ****         p1_str_cmp_next++;
 673              		.loc 1 904 0
 674 02c6 FB69     		ldr	r3, [r7, #28]
 675 02c8 03F10103 		add	r3, r3, #1
 676 02cc FB61     		str	r3, [r7, #28]
 905:Libraries/uC-LIB/lib_str.c ****         p2_str_cmp_next++;
 677              		.loc 1 905 0
 678 02ce BB69     		ldr	r3, [r7, #24]
 679 02d0 03F10103 		add	r3, r3, #1
 680 02d4 BB61     		str	r3, [r7, #24]
 906:Libraries/uC-LIB/lib_str.c ****         cmp_len++;
 681              		.loc 1 906 0
 682 02d6 3B69     		ldr	r3, [r7, #16]
 683 02d8 03F10103 		add	r3, r3, #1
 684 02dc 3B61     		str	r3, [r7, #16]
 685              	.L39:
 897:Libraries/uC-LIB/lib_str.c ****     while ((*p1_str_cmp      == *p2_str_cmp)      &&            /* Cmp strs until non-matching char
 686              		.loc 1 897 0 discriminator 1
 687 02de 7B6A     		ldr	r3, [r7, #36]
 688 02e0 1A78     		ldrb	r2, [r3, #0]	@ zero_extendqisi2
 689 02e2 3B6A     		ldr	r3, [r7, #32]
 690 02e4 1B78     		ldrb	r3, [r3, #0]	@ zero_extendqisi2
 691 02e6 9A42     		cmp	r2, r3
 692 02e8 0DD1     		bne	.L40
 898:Libraries/uC-LIB/lib_str.c ****            (*p1_str_cmp      != (      CPU_CHAR  )'\0') &&      /* ... or NULL chars               
 693              		.loc 1 898 0 discriminator 2
 694 02ea 7B6A     		ldr	r3, [r7, #36]
 695 02ec 1B78     		ldrb	r3, [r3, #0]	@ zero_extendqisi2
 897:Libraries/uC-LIB/lib_str.c ****     while ((*p1_str_cmp      == *p2_str_cmp)      &&            /* Cmp strs until non-matching char
 696              		.loc 1 897 0 discriminator 2
 697 02ee 002B     		cmp	r3, #0
 698 02f0 09D0     		beq	.L40
 898:Libraries/uC-LIB/lib_str.c ****            (*p1_str_cmp      != (      CPU_CHAR  )'\0') &&      /* ... or NULL chars               
 699              		.loc 1 898 0
 700 02f2 FB69     		ldr	r3, [r7, #28]
 701 02f4 002B     		cmp	r3, #0
 702 02f6 06D0     		beq	.L40
 899:Libraries/uC-LIB/lib_str.c ****            ( p1_str_cmp_next != (const CPU_CHAR *)  0 ) &&      /* ... or NULL ptr(s) found        
 703              		.loc 1 899 0
 704 02f8 BB69     		ldr	r3, [r7, #24]
 705 02fa 002B     		cmp	r3, #0
 706 02fc 03D0     		beq	.L40
 900:Libraries/uC-LIB/lib_str.c ****            ( p2_str_cmp_next != (const CPU_CHAR *)  0 ) &&
 707              		.loc 1 900 0
 708 02fe 3A69     		ldr	r2, [r7, #16]
 709 0300 7B68     		ldr	r3, [r7, #4]
 710 0302 9A42     		cmp	r2, r3
 711 0304 D7D3     		bcc	.L41
 712              	.L40:
 907:Libraries/uC-LIB/lib_str.c ****     }
 908:Libraries/uC-LIB/lib_str.c **** 
 909:Libraries/uC-LIB/lib_str.c **** 
 910:Libraries/uC-LIB/lib_str.c ****     if (cmp_len == len_max) {                                   /* If strs     identical for max le
 713              		.loc 1 910 0
 714 0306 3A69     		ldr	r2, [r7, #16]
 715 0308 7B68     		ldr	r3, [r7, #4]
 716 030a 9A42     		cmp	r2, r3
 717 030c 02D1     		bne	.L42
 911:Libraries/uC-LIB/lib_str.c ****         return (0);                                             /* ... rtn 0                 (see N
 718              		.loc 1 911 0
 719 030e 4FF00003 		mov	r3, #0
 720 0312 2BE0     		b	.L35
 721              	.L42:
 912:Libraries/uC-LIB/lib_str.c ****     }
 913:Libraries/uC-LIB/lib_str.c **** 
 914:Libraries/uC-LIB/lib_str.c ****     if (*p1_str_cmp != *p2_str_cmp) {                           /* If strs NOT identical, ...      
 722              		.loc 1 914 0
 723 0314 7B6A     		ldr	r3, [r7, #36]
 724 0316 1A78     		ldrb	r2, [r3, #0]	@ zero_extendqisi2
 725 0318 3B6A     		ldr	r3, [r7, #32]
 726 031a 1B78     		ldrb	r3, [r3, #0]	@ zero_extendqisi2
 727 031c 9A42     		cmp	r2, r3
 728 031e 08D0     		beq	.L43
 915:Libraries/uC-LIB/lib_str.c ****                                                                 /* ... calc & rtn char diff  (see N
 916:Libraries/uC-LIB/lib_str.c ****          cmp_val = (CPU_INT16S)(*p1_str_cmp) - (CPU_INT16S)(*p2_str_cmp);
 729              		.loc 1 916 0
 730 0320 7B6A     		ldr	r3, [r7, #36]
 731 0322 1B78     		ldrb	r3, [r3, #0]	@ zero_extendqisi2
 732 0324 1A46     		mov	r2, r3
 733 0326 3B6A     		ldr	r3, [r7, #32]
 734 0328 1B78     		ldrb	r3, [r3, #0]	@ zero_extendqisi2
 735 032a D31A     		subs	r3, r2, r3
 736 032c 9BB2     		uxth	r3, r3
 737 032e FB82     		strh	r3, [r7, #22]	@ movhi
 738 0330 1BE0     		b	.L44
 739              	.L43:
 917:Libraries/uC-LIB/lib_str.c **** 
 918:Libraries/uC-LIB/lib_str.c ****     } else if (*p1_str_cmp  == (CPU_CHAR)'\0') {                /* If NULL char(s) found, ...      
 740              		.loc 1 918 0
 741 0332 7B6A     		ldr	r3, [r7, #36]
 742 0334 1B78     		ldrb	r3, [r3, #0]	@ zero_extendqisi2
 743 0336 002B     		cmp	r3, #0
 744 0338 03D1     		bne	.L45
 919:Libraries/uC-LIB/lib_str.c ****          cmp_val = (CPU_INT16S)0;                               /* ... strs identical; rtn 0 (see N
 745              		.loc 1 919 0
 746 033a 4FF00003 		mov	r3, #0
 747 033e FB82     		strh	r3, [r7, #22]	@ movhi
 748 0340 13E0     		b	.L44
 749              	.L45:
 920:Libraries/uC-LIB/lib_str.c **** 
 921:Libraries/uC-LIB/lib_str.c ****     } else {
 922:Libraries/uC-LIB/lib_str.c ****         if (p1_str_cmp_next == (const CPU_CHAR *)0) {
 750              		.loc 1 922 0
 751 0342 FB69     		ldr	r3, [r7, #28]
 752 0344 002B     		cmp	r3, #0
 753 0346 0DD1     		bne	.L46
 923:Libraries/uC-LIB/lib_str.c ****             if (p2_str_cmp_next == (const CPU_CHAR *)0) {       /* If BOTH next str ptrs NULL, ... 
 754              		.loc 1 923 0
 755 0348 BB69     		ldr	r3, [r7, #24]
 756 034a 002B     		cmp	r3, #0
 757 034c 03D1     		bne	.L47
 924:Libraries/uC-LIB/lib_str.c ****                 cmp_val = (CPU_INT16S)0;                        /* ... rtn 0                       
 758              		.loc 1 924 0
 759 034e 4FF00003 		mov	r3, #0
 760 0352 FB82     		strh	r3, [r7, #22]	@ movhi
 761 0354 09E0     		b	.L44
 762              	.L47:
 925:Libraries/uC-LIB/lib_str.c ****             } else {                                            /* If p1_str_cmp_next NULL, ...    
 926:Libraries/uC-LIB/lib_str.c ****                                                                 /* ... rtn neg p2_str_cmp_next val 
 927:Libraries/uC-LIB/lib_str.c ****                 cmp_val = (CPU_INT16S)0 - (CPU_INT16S)(*p2_str_cmp_next);
 763              		.loc 1 927 0
 764 0356 BB69     		ldr	r3, [r7, #24]
 765 0358 1B78     		ldrb	r3, [r3, #0]	@ zero_extendqisi2
 766 035a C3F10003 		rsb	r3, r3, #0
 767 035e 9BB2     		uxth	r3, r3
 768 0360 FB82     		strh	r3, [r7, #22]	@ movhi
 769 0362 02E0     		b	.L44
 770              	.L46:
 928:Libraries/uC-LIB/lib_str.c ****             }
 929:Libraries/uC-LIB/lib_str.c ****         } else {                                                /* If p2_str_cmp_next NULL, ...    
 930:Libraries/uC-LIB/lib_str.c ****             cmp_val = (CPU_INT16S)(*p1_str_cmp_next);           /* ... rtn pos p1_str_cmp_next val 
 771              		.loc 1 930 0
 772 0364 FB69     		ldr	r3, [r7, #28]
 773 0366 1B78     		ldrb	r3, [r3, #0]	@ zero_extendqisi2
 774 0368 FB82     		strh	r3, [r7, #22]	@ movhi
 775              	.L44:
 931:Libraries/uC-LIB/lib_str.c ****         }
 932:Libraries/uC-LIB/lib_str.c ****     }
 933:Libraries/uC-LIB/lib_str.c **** 
 934:Libraries/uC-LIB/lib_str.c **** 
 935:Libraries/uC-LIB/lib_str.c ****     return (cmp_val);
 776              		.loc 1 935 0
 777 036a FB8A     		ldrh	r3, [r7, #22]
 778              	.L35:
 779 036c 1BB2     		sxth	r3, r3
 936:Libraries/uC-LIB/lib_str.c **** }
 780              		.loc 1 936 0
 781 036e 1846     		mov	r0, r3
 782 0370 07F12C07 		add	r7, r7, #44
 783 0374 BD46     		mov	sp, r7
 784 0376 80BC     		pop	{r7}
 785 0378 7047     		bx	lr
 786              		.cfi_endproc
 787              	.LFE7:
 789 037a 00BF     		.align	2
 790              		.global	Str_CmpIgnoreCase
 791              		.thumb
 792              		.thumb_func
 794              	Str_CmpIgnoreCase:
 795              	.LFB8:
 937:Libraries/uC-LIB/lib_str.c **** 
 938:Libraries/uC-LIB/lib_str.c **** 
 939:Libraries/uC-LIB/lib_str.c **** /*$PAGE*/
 940:Libraries/uC-LIB/lib_str.c **** /*
 941:Libraries/uC-LIB/lib_str.c **** ***************************************************************************************************
 942:Libraries/uC-LIB/lib_str.c **** *                                         Str_CmpIgnoreCase()
 943:Libraries/uC-LIB/lib_str.c **** *
 944:Libraries/uC-LIB/lib_str.c **** * Description : Determine if two strings are identical, ignoring case.
 945:Libraries/uC-LIB/lib_str.c **** *
 946:Libraries/uC-LIB/lib_str.c **** * Argument(s) : p1_str      Pointer to first  string (see Note #1).
 947:Libraries/uC-LIB/lib_str.c **** *
 948:Libraries/uC-LIB/lib_str.c **** *               p2_str      Pointer to second string (see Note #1).
 949:Libraries/uC-LIB/lib_str.c **** *
 950:Libraries/uC-LIB/lib_str.c **** * Return(s)   : 0,              if strings are identical             (see Notes #3a1A, #3a2A, & #3b
 951:Libraries/uC-LIB/lib_str.c **** *
 952:Libraries/uC-LIB/lib_str.c **** *               Negative value, if 'p1_str' is less    than 'p2_str' (see Notes #3a1B1, #3a2B1, & #
 953:Libraries/uC-LIB/lib_str.c **** *
 954:Libraries/uC-LIB/lib_str.c **** *               Positive value, if 'p1_str' is greater than 'p2_str' (see Notes #3a1B2, #3a2B2, & #
 955:Libraries/uC-LIB/lib_str.c **** *
 956:Libraries/uC-LIB/lib_str.c **** *               See also Note #2b.
 957:Libraries/uC-LIB/lib_str.c **** *
 958:Libraries/uC-LIB/lib_str.c **** * Caller(s)   : Application.
 959:Libraries/uC-LIB/lib_str.c **** *
 960:Libraries/uC-LIB/lib_str.c **** * Note(s)     : (1) String buffers NOT modified.
 961:Libraries/uC-LIB/lib_str.c **** *
 962:Libraries/uC-LIB/lib_str.c **** *               (2) (a) IEEE Std 1003.1, 2004 Edition, Section 'strcasecmp() : DESCRIPTION' states 
 963:Libraries/uC-LIB/lib_str.c **** *
 964:Libraries/uC-LIB/lib_str.c **** *                       (1) (A) "The strcasecmp() function shall compare ... the string pointed to 
 965:Libraries/uC-LIB/lib_str.c **** *                                ('p1_str') to the string pointed to by 's2' ('p2_str')" ...
 966:Libraries/uC-LIB/lib_str.c **** *                           (B) "ignoring differences in case".
 967:Libraries/uC-LIB/lib_str.c **** *
 968:Libraries/uC-LIB/lib_str.c **** *                       (2) "strcasecmp() ... shall behave as if the strings had been converted to 
 969:Libraries/uC-LIB/lib_str.c **** *                            and then a byte comparison performed."
 970:Libraries/uC-LIB/lib_str.c **** *
 971:Libraries/uC-LIB/lib_str.c **** *                   (b) (1) IEEE Std 1003.1, 2004 Edition, Section 'strcasecmp() : RETURN VALUE' st
 972:Libraries/uC-LIB/lib_str.c **** *                          "upon successful completion, strcasecmp() shall return an integer greate
 973:Libraries/uC-LIB/lib_str.c **** *                           equal to, or less than 0".
 974:Libraries/uC-LIB/lib_str.c **** *
 975:Libraries/uC-LIB/lib_str.c **** *                       (2) IEEE Std 1003.1, 2004 Edition, Section 'strcmp() : DESCRIPTION' adds th
 976:Libraries/uC-LIB/lib_str.c **** *                           sign of a non-zero return value shall be determined by the sign of the 
 977:Libraries/uC-LIB/lib_str.c **** *                           between the values of the first pair of bytes ... that differ in the st
 978:Libraries/uC-LIB/lib_str.c **** *                           being compared".
 979:Libraries/uC-LIB/lib_str.c **** *
 980:Libraries/uC-LIB/lib_str.c **** *               (3) String comparison terminates when :
 981:Libraries/uC-LIB/lib_str.c **** *
 982:Libraries/uC-LIB/lib_str.c **** *                   (a) (1) (A) BOTH string pointer(s) are passed NULL pointers.
 983:Libraries/uC-LIB/lib_str.c **** *                               (1) NULL strings identical; 0 returned.
 984:Libraries/uC-LIB/lib_str.c **** *
 985:Libraries/uC-LIB/lib_str.c **** *                           (B) (1) 'p1_str' passed a NULL pointer.
 986:Libraries/uC-LIB/lib_str.c **** *                                   (a) Return negative value of character pointed to by 'p2_str', 
 987:Libraries/uC-LIB/lib_str.c **** *                                       to lower case (see Note #2a2).
 988:Libraries/uC-LIB/lib_str.c **** *
 989:Libraries/uC-LIB/lib_str.c **** *                               (2) 'p2_str' passed a NULL pointer.
 990:Libraries/uC-LIB/lib_str.c **** *                                   (a) Return positive value of character pointed to by 'p1_str', 
 991:Libraries/uC-LIB/lib_str.c **** *                                       to lower case (see Note #2a2).
 992:Libraries/uC-LIB/lib_str.c **** *
 993:Libraries/uC-LIB/lib_str.c **** *                       (2) (A) BOTH strings point to NULL.
 994:Libraries/uC-LIB/lib_str.c **** *                               (1) Strings overlap with NULL address.
 995:Libraries/uC-LIB/lib_str.c **** *                               (2) Strings identical up to but NOT beyond or including the NULL ad
 996:Libraries/uC-LIB/lib_str.c **** *                                   0 returned.
 997:Libraries/uC-LIB/lib_str.c **** *
 998:Libraries/uC-LIB/lib_str.c **** *                           (B) (1) 'p1_str_cmp_next' points to NULL.
 999:Libraries/uC-LIB/lib_str.c **** *                                   (a) 'p1_str' overlaps with NULL address.
1000:Libraries/uC-LIB/lib_str.c **** *                                   (b) Strings compared up to but NOT beyond or including the NULL
1001:Libraries/uC-LIB/lib_str.c **** *                                   (c) Return negative value of character pointed to by 'p2_str_cm
1002:Libraries/uC-LIB/lib_str.c **** *                                       converted to lower case (see Note #2a2).
1003:Libraries/uC-LIB/lib_str.c **** *
1004:Libraries/uC-LIB/lib_str.c **** *                               (2) 'p2_str_cmp_next' points to NULL.
1005:Libraries/uC-LIB/lib_str.c **** *                                   (a) 'p2_str' overlaps with NULL address.
1006:Libraries/uC-LIB/lib_str.c **** *                                   (b) Strings compared up to but NOT beyond or including the NULL
1007:Libraries/uC-LIB/lib_str.c **** *                                   (c) Return positive value of character pointed to by 'p1_str_cm
1008:Libraries/uC-LIB/lib_str.c **** *                                       converted to lower case (see Note #2a2).
1009:Libraries/uC-LIB/lib_str.c **** *
1010:Libraries/uC-LIB/lib_str.c **** *                   (b) Terminating NULL character found in both strings.
1011:Libraries/uC-LIB/lib_str.c **** *                       (1) Strings identical; 0 returned.
1012:Libraries/uC-LIB/lib_str.c **** *                       (2) Only one NULL character test required in conditional since previous con
1013:Libraries/uC-LIB/lib_str.c **** *                           tested character equality.
1014:Libraries/uC-LIB/lib_str.c **** *
1015:Libraries/uC-LIB/lib_str.c **** *                   (c) Non-matching characters found.
1016:Libraries/uC-LIB/lib_str.c **** *                       (1) Return signed-integer difference of the character pointed to by 'p2_str
1017:Libraries/uC-LIB/lib_str.c **** *                           converted to lower case, from the character pointed to by 'p1_str', con
1018:Libraries/uC-LIB/lib_str.c **** *                           to lower case.
1019:Libraries/uC-LIB/lib_str.c **** *
1020:Libraries/uC-LIB/lib_str.c **** *               (4) Since 16-bit signed arithmetic is performed to calculate a non-identical compar
1021:Libraries/uC-LIB/lib_str.c **** *                   return value, 'CPU_CHAR' native data type size MUST be 8-bit.
1022:Libraries/uC-LIB/lib_str.c **** ***************************************************************************************************
1023:Libraries/uC-LIB/lib_str.c **** */
1024:Libraries/uC-LIB/lib_str.c **** /*$PAGE*/
1025:Libraries/uC-LIB/lib_str.c **** CPU_INT16S  Str_CmpIgnoreCase (const  CPU_CHAR  *p1_str,
1026:Libraries/uC-LIB/lib_str.c ****                                const  CPU_CHAR  *p2_str)
1027:Libraries/uC-LIB/lib_str.c **** {
 796              		.loc 1 1027 0
 797              		.cfi_startproc
 798              		@ args = 0, pretend = 0, frame = 16
 799              		@ frame_needed = 1, uses_anonymous_args = 0
 800 037c 80B5     		push	{r7, lr}
 801              	.LCFI24:
 802              		.cfi_def_cfa_offset 8
 803              		.cfi_offset 14, -4
 804              		.cfi_offset 7, -8
 805 037e 84B0     		sub	sp, sp, #16
 806              	.LCFI25:
 807              		.cfi_def_cfa_offset 24
 808 0380 00AF     		add	r7, sp, #0
 809              	.LCFI26:
 810              		.cfi_def_cfa_register 7
 811 0382 7860     		str	r0, [r7, #4]
 812 0384 3960     		str	r1, [r7, #0]
1028:Libraries/uC-LIB/lib_str.c ****     CPU_INT16S  cmp_val;
1029:Libraries/uC-LIB/lib_str.c **** 
1030:Libraries/uC-LIB/lib_str.c **** 
1031:Libraries/uC-LIB/lib_str.c ****     cmp_val = Str_CmpIgnoreCase_N(p1_str,
 813              		.loc 1 1031 0
 814 0386 7868     		ldr	r0, [r7, #4]
 815 0388 3968     		ldr	r1, [r7, #0]
 816 038a 4FF0FF32 		mov	r2, #-1
 817 038e FFF7FEFF 		bl	Str_CmpIgnoreCase_N
 818 0392 0346     		mov	r3, r0
 819 0394 FB81     		strh	r3, [r7, #14]	@ movhi
1032:Libraries/uC-LIB/lib_str.c ****                                   p2_str,
1033:Libraries/uC-LIB/lib_str.c ****                                   DEF_INT_CPU_U_MAX_VAL);
1034:Libraries/uC-LIB/lib_str.c **** 
1035:Libraries/uC-LIB/lib_str.c ****     return (cmp_val);
 820              		.loc 1 1035 0
 821 0396 FB89     		ldrh	r3, [r7, #14]
 822 0398 1BB2     		sxth	r3, r3
1036:Libraries/uC-LIB/lib_str.c **** }
 823              		.loc 1 1036 0
 824 039a 1846     		mov	r0, r3
 825 039c 07F11007 		add	r7, r7, #16
 826 03a0 BD46     		mov	sp, r7
 827 03a2 80BD     		pop	{r7, pc}
 828              		.cfi_endproc
 829              	.LFE8:
 831              		.align	2
 832              		.global	Str_CmpIgnoreCase_N
 833              		.thumb
 834              		.thumb_func
 836              	Str_CmpIgnoreCase_N:
 837              	.LFB9:
1037:Libraries/uC-LIB/lib_str.c **** 
1038:Libraries/uC-LIB/lib_str.c **** 
1039:Libraries/uC-LIB/lib_str.c **** /*$PAGE*/
1040:Libraries/uC-LIB/lib_str.c **** /*
1041:Libraries/uC-LIB/lib_str.c **** ***************************************************************************************************
1042:Libraries/uC-LIB/lib_str.c **** *                                        Str_CmpIgnoreCase_N()
1043:Libraries/uC-LIB/lib_str.c **** *
1044:Libraries/uC-LIB/lib_str.c **** * Description : Determine if two strings are identical for up to a maximum number of characters,
1045:Libraries/uC-LIB/lib_str.c **** *                   ignoring case.
1046:Libraries/uC-LIB/lib_str.c **** *
1047:Libraries/uC-LIB/lib_str.c **** * Argument(s) : p1_str      Pointer to first  string (see Note #1).
1048:Libraries/uC-LIB/lib_str.c **** *
1049:Libraries/uC-LIB/lib_str.c **** *               p2_str      Pointer to second string (see Note #1).
1050:Libraries/uC-LIB/lib_str.c **** *
1051:Libraries/uC-LIB/lib_str.c **** *               len_max     Maximum number of characters to compare  (see Note  #3d).
1052:Libraries/uC-LIB/lib_str.c **** *
1053:Libraries/uC-LIB/lib_str.c **** * Return(s)   : 0,              if strings are identical             (see Notes #3a1A, #3a2A, #3b, 
1054:Libraries/uC-LIB/lib_str.c **** *
1055:Libraries/uC-LIB/lib_str.c **** *               Negative value, if 'p1_str' is less    than 'p2_str' (see Notes #3a1B1, #3a2B1, & #
1056:Libraries/uC-LIB/lib_str.c **** *
1057:Libraries/uC-LIB/lib_str.c **** *               Positive value, if 'p1_str' is greater than 'p2_str' (see Notes #3a1B2, #3a2B2, & #
1058:Libraries/uC-LIB/lib_str.c **** *
1059:Libraries/uC-LIB/lib_str.c **** *               See also Note #2b.
1060:Libraries/uC-LIB/lib_str.c **** *
1061:Libraries/uC-LIB/lib_str.c **** * Caller(s)   : Application.
1062:Libraries/uC-LIB/lib_str.c **** *
1063:Libraries/uC-LIB/lib_str.c **** * Note(s)     : (1) String buffers NOT modified.
1064:Libraries/uC-LIB/lib_str.c **** *
1065:Libraries/uC-LIB/lib_str.c **** *               (2) (a) IEEE Std 1003.1, 2004 Edition, Section 'strncasecmp() : DESCRIPTION' states
1066:Libraries/uC-LIB/lib_str.c **** *
1067:Libraries/uC-LIB/lib_str.c **** *                       (1) (A) "The strncasecmp() function shall compare ... the string pointed to
1068:Libraries/uC-LIB/lib_str.c **** *                                ('p1_str') to the string pointed to by 's2' ('p2_str')" ...
1069:Libraries/uC-LIB/lib_str.c **** *                           (B) "ignoring differences in case"                           ...
1070:Libraries/uC-LIB/lib_str.c **** *                           (C)  but "not more than 'n' ('len_max') bytes" of either string.
1071:Libraries/uC-LIB/lib_str.c **** *
1072:Libraries/uC-LIB/lib_str.c **** *                       (2) "strncasecmp() shall behave as if the strings had been converted to low
1073:Libraries/uC-LIB/lib_str.c **** *                            and then a byte comparison performed."
1074:Libraries/uC-LIB/lib_str.c **** *
1075:Libraries/uC-LIB/lib_str.c **** *                   (b) (1) IEEE Std 1003.1, 2004 Edition, Section 'strncasecmp() : RETURN VALUE' s
1076:Libraries/uC-LIB/lib_str.c **** *                          "upon successful completion, strncasecmp() shall return an integer great
1077:Libraries/uC-LIB/lib_str.c **** *                           equal to, or less than 0".
1078:Libraries/uC-LIB/lib_str.c **** *
1079:Libraries/uC-LIB/lib_str.c **** *                       (2) IEEE Std 1003.1, 2004 Edition, Section 'strcmp() : DESCRIPTION' adds th
1080:Libraries/uC-LIB/lib_str.c **** *                           sign of a non-zero return value shall be determined by the sign of the 
1081:Libraries/uC-LIB/lib_str.c **** *                           between the values of the first pair of bytes ... that differ in the st
1082:Libraries/uC-LIB/lib_str.c **** *                           being compared".
1083:Libraries/uC-LIB/lib_str.c **** *
1084:Libraries/uC-LIB/lib_str.c **** *               (3) String comparison terminates when :
1085:Libraries/uC-LIB/lib_str.c **** *
1086:Libraries/uC-LIB/lib_str.c **** *                   (a) (1) (A) BOTH string pointer(s) are passed NULL pointers.
1087:Libraries/uC-LIB/lib_str.c **** *                               (1) NULL strings identical; 0 returned.
1088:Libraries/uC-LIB/lib_str.c **** *
1089:Libraries/uC-LIB/lib_str.c **** *                           (B) (1) 'p1_str' passed a NULL pointer.
1090:Libraries/uC-LIB/lib_str.c **** *                                   (a) Return negative value of character pointed to by 'p2_str', 
1091:Libraries/uC-LIB/lib_str.c **** *                                       to lower case (see Note #2a2).
1092:Libraries/uC-LIB/lib_str.c **** *
1093:Libraries/uC-LIB/lib_str.c **** *                               (2) 'p2_str' passed a NULL pointer.
1094:Libraries/uC-LIB/lib_str.c **** *                                   (a) Return positive value of character pointed to by 'p1_str', 
1095:Libraries/uC-LIB/lib_str.c **** *                                       to lower case (see Note #2a2).
1096:Libraries/uC-LIB/lib_str.c **** *
1097:Libraries/uC-LIB/lib_str.c **** *                       (2) (A) BOTH strings point to NULL.
1098:Libraries/uC-LIB/lib_str.c **** *                               (1) Strings overlap with NULL address.
1099:Libraries/uC-LIB/lib_str.c **** *                               (2) Strings identical up to but NOT beyond or including the NULL ad
1100:Libraries/uC-LIB/lib_str.c **** *                                   0 returned.
1101:Libraries/uC-LIB/lib_str.c **** *
1102:Libraries/uC-LIB/lib_str.c **** *                           (B) (1) 'p1_str_cmp_next' points to NULL.
1103:Libraries/uC-LIB/lib_str.c **** *                                   (a) 'p1_str' overlaps with NULL address.
1104:Libraries/uC-LIB/lib_str.c **** *                                   (b) Strings compared up to but NOT beyond or including the NULL
1105:Libraries/uC-LIB/lib_str.c **** *                                   (c) Return negative value of character pointed to by 'p2_str_cm
1106:Libraries/uC-LIB/lib_str.c **** *                                       converted to lower case (see Note #2a2).
1107:Libraries/uC-LIB/lib_str.c **** *
1108:Libraries/uC-LIB/lib_str.c **** *                               (2) 'p2_str_cmp_next' points to NULL.
1109:Libraries/uC-LIB/lib_str.c **** *                                   (a) 'p2_str' overlaps with NULL address.
1110:Libraries/uC-LIB/lib_str.c **** *                                   (b) Strings compared up to but NOT beyond or including the NULL
1111:Libraries/uC-LIB/lib_str.c **** *                                   (c) Return positive value of character pointed to by 'p1_str_cm
1112:Libraries/uC-LIB/lib_str.c **** *                                       converted to lower case (see Note #2a2).
1113:Libraries/uC-LIB/lib_str.c **** *
1114:Libraries/uC-LIB/lib_str.c **** *                   (b) Terminating NULL character found in both strings.
1115:Libraries/uC-LIB/lib_str.c **** *                       (1) Strings identical; 0 returned.
1116:Libraries/uC-LIB/lib_str.c **** *                       (2) Only one NULL character test required in conditional since previous con
1117:Libraries/uC-LIB/lib_str.c **** *                           tested character equality.
1118:Libraries/uC-LIB/lib_str.c **** *
1119:Libraries/uC-LIB/lib_str.c **** *                   (c) Non-matching characters found.
1120:Libraries/uC-LIB/lib_str.c **** *                       (1) Return signed-integer difference of the character pointed to by 'p2_str
1121:Libraries/uC-LIB/lib_str.c **** *                           converted to lower case, from the character pointed to by 'p1_str', con
1122:Libraries/uC-LIB/lib_str.c **** *                           to lower case.
1123:Libraries/uC-LIB/lib_str.c **** *
1124:Libraries/uC-LIB/lib_str.c **** *                   (d) (1) 'len_max' passed a zero length.
1125:Libraries/uC-LIB/lib_str.c **** *                           (A) Zero-length strings identical; 0 returned.
1126:Libraries/uC-LIB/lib_str.c **** *
1127:Libraries/uC-LIB/lib_str.c **** *                       (2) First 'len_max' number of characters identical.
1128:Libraries/uC-LIB/lib_str.c **** *                           (A) Strings identical; 0 returned.
1129:Libraries/uC-LIB/lib_str.c **** *
1130:Libraries/uC-LIB/lib_str.c **** *                       See also Note #2a1C.
1131:Libraries/uC-LIB/lib_str.c **** *$PAGE*
1132:Libraries/uC-LIB/lib_str.c **** *               (4) Since 16-bit signed arithmetic is performed to calculate a non-identical compar
1133:Libraries/uC-LIB/lib_str.c **** *                   return value, 'CPU_CHAR' native data type size MUST be 8-bit.
1134:Libraries/uC-LIB/lib_str.c **** ***************************************************************************************************
1135:Libraries/uC-LIB/lib_str.c **** */
1136:Libraries/uC-LIB/lib_str.c **** 
1137:Libraries/uC-LIB/lib_str.c **** CPU_INT16S  Str_CmpIgnoreCase_N (const  CPU_CHAR    *p1_str,
1138:Libraries/uC-LIB/lib_str.c ****                                  const  CPU_CHAR    *p2_str,
1139:Libraries/uC-LIB/lib_str.c ****                                         CPU_SIZE_T   len_max)
1140:Libraries/uC-LIB/lib_str.c **** {
 838              		.loc 1 1140 0
 839              		.cfi_startproc
 840              		@ args = 0, pretend = 0, frame = 40
 841              		@ frame_needed = 1, uses_anonymous_args = 0
 842 03a4 80B5     		push	{r7, lr}
 843              	.LCFI27:
 844              		.cfi_def_cfa_offset 8
 845              		.cfi_offset 14, -4
 846              		.cfi_offset 7, -8
 847 03a6 8AB0     		sub	sp, sp, #40
 848              	.LCFI28:
 849              		.cfi_def_cfa_offset 48
 850 03a8 00AF     		add	r7, sp, #0
 851              	.LCFI29:
 852              		.cfi_def_cfa_register 7
 853 03aa F860     		str	r0, [r7, #12]
 854 03ac B960     		str	r1, [r7, #8]
 855 03ae 7A60     		str	r2, [r7, #4]
1141:Libraries/uC-LIB/lib_str.c ****     const  CPU_CHAR    *p1_str_cmp;
1142:Libraries/uC-LIB/lib_str.c ****     const  CPU_CHAR    *p2_str_cmp;
1143:Libraries/uC-LIB/lib_str.c ****     const  CPU_CHAR    *p1_str_cmp_next;
1144:Libraries/uC-LIB/lib_str.c ****     const  CPU_CHAR    *p2_str_cmp_next;
1145:Libraries/uC-LIB/lib_str.c ****            CPU_CHAR     char_1;
1146:Libraries/uC-LIB/lib_str.c ****            CPU_CHAR     char_2;
1147:Libraries/uC-LIB/lib_str.c ****            CPU_INT16S   cmp_val;
1148:Libraries/uC-LIB/lib_str.c ****            CPU_SIZE_T   cmp_len;
1149:Libraries/uC-LIB/lib_str.c **** 
1150:Libraries/uC-LIB/lib_str.c **** 
1151:Libraries/uC-LIB/lib_str.c ****     if (len_max == 0) {                                         /* If cmp len = 0,        rtn 0    
 856              		.loc 1 1151 0
 857 03b0 7B68     		ldr	r3, [r7, #4]
 858 03b2 002B     		cmp	r3, #0
 859 03b4 02D1     		bne	.L50
1152:Libraries/uC-LIB/lib_str.c ****         return (0);
 860              		.loc 1 1152 0
 861 03b6 4FF00003 		mov	r3, #0
 862 03ba B7E0     		b	.L51
 863              	.L50:
1153:Libraries/uC-LIB/lib_str.c ****     }
1154:Libraries/uC-LIB/lib_str.c **** 
1155:Libraries/uC-LIB/lib_str.c ****     if (p1_str == (const CPU_CHAR *)0) {
 864              		.loc 1 1155 0
 865 03bc FB68     		ldr	r3, [r7, #12]
 866 03be 002B     		cmp	r3, #0
 867 03c0 14D1     		bne	.L52
1156:Libraries/uC-LIB/lib_str.c ****         if (p2_str == (const CPU_CHAR *)0) {
 868              		.loc 1 1156 0
 869 03c2 BB68     		ldr	r3, [r7, #8]
 870 03c4 002B     		cmp	r3, #0
 871 03c6 02D1     		bne	.L53
1157:Libraries/uC-LIB/lib_str.c ****             return (0);                                         /* If BOTH str ptrs NULL, rtn 0    
 872              		.loc 1 1157 0
 873 03c8 4FF00003 		mov	r3, #0
 874 03cc AEE0     		b	.L51
 875              	.L53:
1158:Libraries/uC-LIB/lib_str.c ****         }
1159:Libraries/uC-LIB/lib_str.c ****         char_2  =  ASCII_ToLower(*p2_str);
 876              		.loc 1 1159 0
 877 03ce BB68     		ldr	r3, [r7, #8]
 878 03d0 1B78     		ldrb	r3, [r3, #0]	@ zero_extendqisi2
 879 03d2 1846     		mov	r0, r3
 880 03d4 FFF7FEFF 		bl	ASCII_ToLower
 881 03d8 0346     		mov	r3, r0
 882 03da BB75     		strb	r3, [r7, #22]
1160:Libraries/uC-LIB/lib_str.c ****         cmp_val = (CPU_INT16S)0 - (CPU_INT16S)char_2;
 883              		.loc 1 1160 0
 884 03dc BB7D     		ldrb	r3, [r7, #22]	@ zero_extendqisi2
 885 03de 9BB2     		uxth	r3, r3
 886 03e0 C3F10003 		rsb	r3, r3, #0
 887 03e4 9BB2     		uxth	r3, r3
 888 03e6 BB82     		strh	r3, [r7, #20]	@ movhi
1161:Libraries/uC-LIB/lib_str.c ****         return (cmp_val);                                       /* If p1_str NULL, rtn neg p2_str v
 889              		.loc 1 1161 0
 890 03e8 BB8A     		ldrh	r3, [r7, #20]
 891 03ea 9FE0     		b	.L51
 892              	.L52:
1162:Libraries/uC-LIB/lib_str.c ****     }
1163:Libraries/uC-LIB/lib_str.c ****     if (p2_str == (const CPU_CHAR *)0) {
 893              		.loc 1 1163 0
 894 03ec BB68     		ldr	r3, [r7, #8]
 895 03ee 002B     		cmp	r3, #0
 896 03f0 0AD1     		bne	.L54
1164:Libraries/uC-LIB/lib_str.c ****         char_1  =  ASCII_ToLower(*p1_str);
 897              		.loc 1 1164 0
 898 03f2 FB68     		ldr	r3, [r7, #12]
 899 03f4 1B78     		ldrb	r3, [r3, #0]	@ zero_extendqisi2
 900 03f6 1846     		mov	r0, r3
 901 03f8 FFF7FEFF 		bl	ASCII_ToLower
 902 03fc 0346     		mov	r3, r0
 903 03fe FB75     		strb	r3, [r7, #23]
1165:Libraries/uC-LIB/lib_str.c ****         cmp_val = (CPU_INT16S)char_1;
 904              		.loc 1 1165 0
 905 0400 FB7D     		ldrb	r3, [r7, #23]	@ zero_extendqisi2
 906 0402 BB82     		strh	r3, [r7, #20]	@ movhi
1166:Libraries/uC-LIB/lib_str.c ****         return (cmp_val);                                       /* If p2_str NULL, rtn pos p1_str v
 907              		.loc 1 1166 0
 908 0404 BB8A     		ldrh	r3, [r7, #20]
 909 0406 91E0     		b	.L51
 910              	.L54:
1167:Libraries/uC-LIB/lib_str.c ****     }
1168:Libraries/uC-LIB/lib_str.c **** 
1169:Libraries/uC-LIB/lib_str.c **** 
1170:Libraries/uC-LIB/lib_str.c ****     p1_str_cmp      = p1_str;
 911              		.loc 1 1170 0
 912 0408 FB68     		ldr	r3, [r7, #12]
 913 040a 7B62     		str	r3, [r7, #36]
1171:Libraries/uC-LIB/lib_str.c ****     p2_str_cmp      = p2_str;
 914              		.loc 1 1171 0
 915 040c BB68     		ldr	r3, [r7, #8]
 916 040e 3B62     		str	r3, [r7, #32]
1172:Libraries/uC-LIB/lib_str.c ****     p1_str_cmp_next = p1_str_cmp;
 917              		.loc 1 1172 0
 918 0410 7B6A     		ldr	r3, [r7, #36]
 919 0412 FB61     		str	r3, [r7, #28]
1173:Libraries/uC-LIB/lib_str.c ****     p2_str_cmp_next = p2_str_cmp;
 920              		.loc 1 1173 0
 921 0414 3B6A     		ldr	r3, [r7, #32]
 922 0416 BB61     		str	r3, [r7, #24]
1174:Libraries/uC-LIB/lib_str.c ****     p1_str_cmp_next++;
 923              		.loc 1 1174 0
 924 0418 FB69     		ldr	r3, [r7, #28]
 925 041a 03F10103 		add	r3, r3, #1
 926 041e FB61     		str	r3, [r7, #28]
1175:Libraries/uC-LIB/lib_str.c ****     p2_str_cmp_next++;
 927              		.loc 1 1175 0
 928 0420 BB69     		ldr	r3, [r7, #24]
 929 0422 03F10103 		add	r3, r3, #1
 930 0426 BB61     		str	r3, [r7, #24]
1176:Libraries/uC-LIB/lib_str.c ****     char_1          = ASCII_ToLower(*p1_str_cmp);
 931              		.loc 1 1176 0
 932 0428 7B6A     		ldr	r3, [r7, #36]
 933 042a 1B78     		ldrb	r3, [r3, #0]	@ zero_extendqisi2
 934 042c 1846     		mov	r0, r3
 935 042e FFF7FEFF 		bl	ASCII_ToLower
 936 0432 0346     		mov	r3, r0
 937 0434 FB75     		strb	r3, [r7, #23]
1177:Libraries/uC-LIB/lib_str.c ****     char_2          = ASCII_ToLower(*p2_str_cmp);
 938              		.loc 1 1177 0
 939 0436 3B6A     		ldr	r3, [r7, #32]
 940 0438 1B78     		ldrb	r3, [r3, #0]	@ zero_extendqisi2
 941 043a 1846     		mov	r0, r3
 942 043c FFF7FEFF 		bl	ASCII_ToLower
 943 0440 0346     		mov	r3, r0
 944 0442 BB75     		strb	r3, [r7, #22]
1178:Libraries/uC-LIB/lib_str.c ****     cmp_len         = 0u;
 945              		.loc 1 1178 0
 946 0444 4FF00003 		mov	r3, #0
 947 0448 3B61     		str	r3, [r7, #16]
1179:Libraries/uC-LIB/lib_str.c **** 
1180:Libraries/uC-LIB/lib_str.c ****     while (( char_1          ==  char_2)          &&            /* Cmp strs until non-matching char
 948              		.loc 1 1180 0
 949 044a 21E0     		b	.L55
 950              	.L57:
1181:Libraries/uC-LIB/lib_str.c ****            (*p1_str_cmp      != (      CPU_CHAR  )'\0') &&      /* ... or NULL chars               
1182:Libraries/uC-LIB/lib_str.c ****            ( p1_str_cmp_next != (const CPU_CHAR *)  0 ) &&      /* ... or NULL ptr(s) found        
1183:Libraries/uC-LIB/lib_str.c ****            ( p2_str_cmp_next != (const CPU_CHAR *)  0 ) &&
1184:Libraries/uC-LIB/lib_str.c ****            ( cmp_len         <  (      CPU_SIZE_T)len_max)) {   /* ... or max nbr chars cmp'd      
1185:Libraries/uC-LIB/lib_str.c ****         p1_str_cmp++;
 951              		.loc 1 1185 0
 952 044c 7B6A     		ldr	r3, [r7, #36]
 953 044e 03F10103 		add	r3, r3, #1
 954 0452 7B62     		str	r3, [r7, #36]
1186:Libraries/uC-LIB/lib_str.c ****         p2_str_cmp++;
 955              		.loc 1 1186 0
 956 0454 3B6A     		ldr	r3, [r7, #32]
 957 0456 03F10103 		add	r3, r3, #1
 958 045a 3B62     		str	r3, [r7, #32]
1187:Libraries/uC-LIB/lib_str.c ****         p1_str_cmp_next++;
 959              		.loc 1 1187 0
 960 045c FB69     		ldr	r3, [r7, #28]
 961 045e 03F10103 		add	r3, r3, #1
 962 0462 FB61     		str	r3, [r7, #28]
1188:Libraries/uC-LIB/lib_str.c ****         p2_str_cmp_next++;
 963              		.loc 1 1188 0
 964 0464 BB69     		ldr	r3, [r7, #24]
 965 0466 03F10103 		add	r3, r3, #1
 966 046a BB61     		str	r3, [r7, #24]
1189:Libraries/uC-LIB/lib_str.c ****         cmp_len++;
 967              		.loc 1 1189 0
 968 046c 3B69     		ldr	r3, [r7, #16]
 969 046e 03F10103 		add	r3, r3, #1
 970 0472 3B61     		str	r3, [r7, #16]
1190:Libraries/uC-LIB/lib_str.c ****         char_1 = ASCII_ToLower(*p1_str_cmp);
 971              		.loc 1 1190 0
 972 0474 7B6A     		ldr	r3, [r7, #36]
 973 0476 1B78     		ldrb	r3, [r3, #0]	@ zero_extendqisi2
 974 0478 1846     		mov	r0, r3
 975 047a FFF7FEFF 		bl	ASCII_ToLower
 976 047e 0346     		mov	r3, r0
 977 0480 FB75     		strb	r3, [r7, #23]
1191:Libraries/uC-LIB/lib_str.c ****         char_2 = ASCII_ToLower(*p2_str_cmp);
 978              		.loc 1 1191 0
 979 0482 3B6A     		ldr	r3, [r7, #32]
 980 0484 1B78     		ldrb	r3, [r3, #0]	@ zero_extendqisi2
 981 0486 1846     		mov	r0, r3
 982 0488 FFF7FEFF 		bl	ASCII_ToLower
 983 048c 0346     		mov	r3, r0
 984 048e BB75     		strb	r3, [r7, #22]
 985              	.L55:
1180:Libraries/uC-LIB/lib_str.c ****     while (( char_1          ==  char_2)          &&            /* Cmp strs until non-matching char
 986              		.loc 1 1180 0 discriminator 1
 987 0490 FA7D     		ldrb	r2, [r7, #23]	@ zero_extendqisi2
 988 0492 BB7D     		ldrb	r3, [r7, #22]	@ zero_extendqisi2
 989 0494 9A42     		cmp	r2, r3
 990 0496 0DD1     		bne	.L56
1181:Libraries/uC-LIB/lib_str.c ****            (*p1_str_cmp      != (      CPU_CHAR  )'\0') &&      /* ... or NULL chars               
 991              		.loc 1 1181 0 discriminator 2
 992 0498 7B6A     		ldr	r3, [r7, #36]
 993 049a 1B78     		ldrb	r3, [r3, #0]	@ zero_extendqisi2
1180:Libraries/uC-LIB/lib_str.c ****     while (( char_1          ==  char_2)          &&            /* Cmp strs until non-matching char
 994              		.loc 1 1180 0 discriminator 2
 995 049c 002B     		cmp	r3, #0
 996 049e 09D0     		beq	.L56
1181:Libraries/uC-LIB/lib_str.c ****            (*p1_str_cmp      != (      CPU_CHAR  )'\0') &&      /* ... or NULL chars               
 997              		.loc 1 1181 0
 998 04a0 FB69     		ldr	r3, [r7, #28]
 999 04a2 002B     		cmp	r3, #0
 1000 04a4 06D0     		beq	.L56
1182:Libraries/uC-LIB/lib_str.c ****            ( p1_str_cmp_next != (const CPU_CHAR *)  0 ) &&      /* ... or NULL ptr(s) found        
 1001              		.loc 1 1182 0
 1002 04a6 BB69     		ldr	r3, [r7, #24]
 1003 04a8 002B     		cmp	r3, #0
 1004 04aa 03D0     		beq	.L56
1183:Libraries/uC-LIB/lib_str.c ****            ( p2_str_cmp_next != (const CPU_CHAR *)  0 ) &&
 1005              		.loc 1 1183 0
 1006 04ac 3A69     		ldr	r2, [r7, #16]
 1007 04ae 7B68     		ldr	r3, [r7, #4]
 1008 04b0 9A42     		cmp	r2, r3
 1009 04b2 CBD3     		bcc	.L57
 1010              	.L56:
1192:Libraries/uC-LIB/lib_str.c ****     }
1193:Libraries/uC-LIB/lib_str.c **** 
1194:Libraries/uC-LIB/lib_str.c **** 
1195:Libraries/uC-LIB/lib_str.c ****     if (cmp_len == len_max) {                                   /* If strs     identical for max le
 1011              		.loc 1 1195 0
 1012 04b4 3A69     		ldr	r2, [r7, #16]
 1013 04b6 7B68     		ldr	r3, [r7, #4]
 1014 04b8 9A42     		cmp	r2, r3
 1015 04ba 02D1     		bne	.L58
1196:Libraries/uC-LIB/lib_str.c ****         return (0);                                             /* ... rtn 0                 (see N
 1016              		.loc 1 1196 0
 1017 04bc 4FF00003 		mov	r3, #0
 1018 04c0 34E0     		b	.L51
 1019              	.L58:
1197:Libraries/uC-LIB/lib_str.c ****     }
1198:Libraries/uC-LIB/lib_str.c **** 
1199:Libraries/uC-LIB/lib_str.c ****     if (char_1 != char_2) {                                     /* If strs NOT identical, ...      
 1020              		.loc 1 1199 0
 1021 04c2 FA7D     		ldrb	r2, [r7, #23]	@ zero_extendqisi2
 1022 04c4 BB7D     		ldrb	r3, [r7, #22]	@ zero_extendqisi2
 1023 04c6 9A42     		cmp	r2, r3
 1024 04c8 07D0     		beq	.L59
1200:Libraries/uC-LIB/lib_str.c ****          cmp_val = (CPU_INT16S)char_1 - (CPU_INT16S)char_2;     /* ... calc & rtn char diff  (see N
 1025              		.loc 1 1200 0
 1026 04ca FB7D     		ldrb	r3, [r7, #23]	@ zero_extendqisi2
 1027 04cc 9AB2     		uxth	r2, r3
 1028 04ce BB7D     		ldrb	r3, [r7, #22]	@ zero_extendqisi2
 1029 04d0 9BB2     		uxth	r3, r3
 1030 04d2 D31A     		subs	r3, r2, r3
 1031 04d4 9BB2     		uxth	r3, r3
 1032 04d6 BB82     		strh	r3, [r7, #20]	@ movhi
 1033 04d8 27E0     		b	.L60
 1034              	.L59:
1201:Libraries/uC-LIB/lib_str.c **** 
1202:Libraries/uC-LIB/lib_str.c ****     } else if (char_1 == (CPU_CHAR)'\0') {                      /* If NULL char(s) found, ...      
 1035              		.loc 1 1202 0
 1036 04da FB7D     		ldrb	r3, [r7, #23]	@ zero_extendqisi2
 1037 04dc 002B     		cmp	r3, #0
 1038 04de 03D1     		bne	.L61
1203:Libraries/uC-LIB/lib_str.c ****          cmp_val = (CPU_INT16S)0;                               /* ... strs identical; rtn 0 (see N
 1039              		.loc 1 1203 0
 1040 04e0 4FF00003 		mov	r3, #0
 1041 04e4 BB82     		strh	r3, [r7, #20]	@ movhi
 1042 04e6 20E0     		b	.L60
 1043              	.L61:
1204:Libraries/uC-LIB/lib_str.c **** 
1205:Libraries/uC-LIB/lib_str.c ****     } else {
1206:Libraries/uC-LIB/lib_str.c ****         if (p1_str_cmp_next == (const CPU_CHAR *)0) {
 1044              		.loc 1 1206 0
 1045 04e8 FB69     		ldr	r3, [r7, #28]
 1046 04ea 002B     		cmp	r3, #0
 1047 04ec 14D1     		bne	.L62
1207:Libraries/uC-LIB/lib_str.c ****             if (p2_str_cmp_next == (const CPU_CHAR *)0) {       /* If BOTH next str ptrs NULL, ... 
 1048              		.loc 1 1207 0
 1049 04ee BB69     		ldr	r3, [r7, #24]
 1050 04f0 002B     		cmp	r3, #0
 1051 04f2 03D1     		bne	.L63
1208:Libraries/uC-LIB/lib_str.c ****                 cmp_val = (CPU_INT16S)0;                        /* ... rtn 0                       
 1052              		.loc 1 1208 0
 1053 04f4 4FF00003 		mov	r3, #0
 1054 04f8 BB82     		strh	r3, [r7, #20]	@ movhi
 1055 04fa 16E0     		b	.L60
 1056              	.L63:
1209:Libraries/uC-LIB/lib_str.c ****             } else {                                            /* If p1_str_cmp_next NULL, ...    
1210:Libraries/uC-LIB/lib_str.c ****                 char_2  =  ASCII_ToLower(*p2_str_cmp_next);
 1057              		.loc 1 1210 0
 1058 04fc BB69     		ldr	r3, [r7, #24]
 1059 04fe 1B78     		ldrb	r3, [r3, #0]	@ zero_extendqisi2
 1060 0500 1846     		mov	r0, r3
 1061 0502 FFF7FEFF 		bl	ASCII_ToLower
 1062 0506 0346     		mov	r3, r0
 1063 0508 BB75     		strb	r3, [r7, #22]
1211:Libraries/uC-LIB/lib_str.c ****                 cmp_val = (CPU_INT16S)0 - (CPU_INT16S)char_2;   /* ... rtn neg p2_str_cmp_next val 
 1064              		.loc 1 1211 0
 1065 050a BB7D     		ldrb	r3, [r7, #22]	@ zero_extendqisi2
 1066 050c 9BB2     		uxth	r3, r3
 1067 050e C3F10003 		rsb	r3, r3, #0
 1068 0512 9BB2     		uxth	r3, r3
 1069 0514 BB82     		strh	r3, [r7, #20]	@ movhi
 1070 0516 08E0     		b	.L60
 1071              	.L62:
1212:Libraries/uC-LIB/lib_str.c ****             }
1213:Libraries/uC-LIB/lib_str.c ****         } else {                                                /* If p2_str_cmp_next NULL, ...    
1214:Libraries/uC-LIB/lib_str.c ****             char_1  =  ASCII_ToLower(*p1_str_cmp_next);
 1072              		.loc 1 1214 0
 1073 0518 FB69     		ldr	r3, [r7, #28]
 1074 051a 1B78     		ldrb	r3, [r3, #0]	@ zero_extendqisi2
 1075 051c 1846     		mov	r0, r3
 1076 051e FFF7FEFF 		bl	ASCII_ToLower
 1077 0522 0346     		mov	r3, r0
 1078 0524 FB75     		strb	r3, [r7, #23]
1215:Libraries/uC-LIB/lib_str.c ****             cmp_val = (CPU_INT16S)char_1;                       /* ... rtn pos p1_str_cmp_next val 
 1079              		.loc 1 1215 0
 1080 0526 FB7D     		ldrb	r3, [r7, #23]	@ zero_extendqisi2
 1081 0528 BB82     		strh	r3, [r7, #20]	@ movhi
 1082              	.L60:
1216:Libraries/uC-LIB/lib_str.c ****         }
1217:Libraries/uC-LIB/lib_str.c ****     }
1218:Libraries/uC-LIB/lib_str.c **** 
1219:Libraries/uC-LIB/lib_str.c **** 
1220:Libraries/uC-LIB/lib_str.c ****     return (cmp_val);
 1083              		.loc 1 1220 0
 1084 052a BB8A     		ldrh	r3, [r7, #20]
 1085              	.L51:
 1086 052c 1BB2     		sxth	r3, r3
1221:Libraries/uC-LIB/lib_str.c **** }
 1087              		.loc 1 1221 0
 1088 052e 1846     		mov	r0, r3
 1089 0530 07F12807 		add	r7, r7, #40
 1090 0534 BD46     		mov	sp, r7
 1091 0536 80BD     		pop	{r7, pc}
 1092              		.cfi_endproc
 1093              	.LFE9:
 1095              		.align	2
 1096              		.global	Str_Char
 1097              		.thumb
 1098              		.thumb_func
 1100              	Str_Char:
 1101              	.LFB10:
1222:Libraries/uC-LIB/lib_str.c **** 
1223:Libraries/uC-LIB/lib_str.c **** 
1224:Libraries/uC-LIB/lib_str.c **** /*$PAGE*/
1225:Libraries/uC-LIB/lib_str.c **** /*
1226:Libraries/uC-LIB/lib_str.c **** ***************************************************************************************************
1227:Libraries/uC-LIB/lib_str.c **** *                                             Str_Char()
1228:Libraries/uC-LIB/lib_str.c **** *
1229:Libraries/uC-LIB/lib_str.c **** * Description : Search string for first occurrence of specific character.
1230:Libraries/uC-LIB/lib_str.c **** *
1231:Libraries/uC-LIB/lib_str.c **** * Argument(s) : pstr            Pointer to string (see Note #1).
1232:Libraries/uC-LIB/lib_str.c **** *
1233:Libraries/uC-LIB/lib_str.c **** *               srch_char       Search character.
1234:Libraries/uC-LIB/lib_str.c **** *
1235:Libraries/uC-LIB/lib_str.c **** * Return(s)   : Pointer to first occurrence of search character in string, if any    (see Note #2b1
1236:Libraries/uC-LIB/lib_str.c **** *
1237:Libraries/uC-LIB/lib_str.c **** *               Pointer to NULL,                                           otherwise (see Note #2b2
1238:Libraries/uC-LIB/lib_str.c **** *
1239:Libraries/uC-LIB/lib_str.c **** * Caller(s)   : Application.
1240:Libraries/uC-LIB/lib_str.c **** *
1241:Libraries/uC-LIB/lib_str.c **** * Note(s)     : (1) String buffer NOT modified.
1242:Libraries/uC-LIB/lib_str.c **** *
1243:Libraries/uC-LIB/lib_str.c **** *               (2) (a) IEEE Std 1003.1, 2004 Edition, Section 'strchr() : DESCRIPTION' states that
1244:Libraries/uC-LIB/lib_str.c **** *
1245:Libraries/uC-LIB/lib_str.c **** *                       (1) "The strchr() function shall locate the first occurrence of 'c' ('srch_
1246:Libraries/uC-LIB/lib_str.c **** *                            ... in the string pointed to by 's' ('pstr')."
1247:Libraries/uC-LIB/lib_str.c **** *                       (2) "The terminating null byte is considered to be part of the string."
1248:Libraries/uC-LIB/lib_str.c **** *
1249:Libraries/uC-LIB/lib_str.c **** *                   (b) IEEE Std 1003.1, 2004 Edition, Section 'strchr() : RETURN VALUE' states tha
1250:Libraries/uC-LIB/lib_str.c **** *                       "upon completion, strchr() shall return" :
1251:Libraries/uC-LIB/lib_str.c **** *
1252:Libraries/uC-LIB/lib_str.c **** *                       (1) "a pointer to the byte," ...
1253:Libraries/uC-LIB/lib_str.c **** *                       (2) "or a null pointer if the byte was not found."
1254:Libraries/uC-LIB/lib_str.c **** *                           (A) #### Although NO strchr() specification states to return NULL for 
1255:Libraries/uC-LIB/lib_str.c **** *                               any other reason(s), NULL is also returned for any error(s).
1256:Libraries/uC-LIB/lib_str.c **** *
1257:Libraries/uC-LIB/lib_str.c **** *               (3) String search terminates when :
1258:Libraries/uC-LIB/lib_str.c **** *
1259:Libraries/uC-LIB/lib_str.c **** *                   (a) String pointer passed a NULL pointer.
1260:Libraries/uC-LIB/lib_str.c **** *                       (1) No string search performed; NULL pointer returned.
1261:Libraries/uC-LIB/lib_str.c **** *
1262:Libraries/uC-LIB/lib_str.c **** *                   (b) String pointer points to NULL.
1263:Libraries/uC-LIB/lib_str.c **** *                       (1) String overlaps with NULL address; NULL pointer returned.
1264:Libraries/uC-LIB/lib_str.c **** *
1265:Libraries/uC-LIB/lib_str.c **** *                   (c) String's terminating NULL character found.
1266:Libraries/uC-LIB/lib_str.c **** *                       (1) Search character NOT found in search string; NULL pointer returned 
1267:Libraries/uC-LIB/lib_str.c **** *                           (see Note #2b2).
1268:Libraries/uC-LIB/lib_str.c **** *                       (2) Applicable even if search character is the terminating NULL character 
1269:Libraries/uC-LIB/lib_str.c **** *                           (see Note #2a2).
1270:Libraries/uC-LIB/lib_str.c **** *
1271:Libraries/uC-LIB/lib_str.c **** *                   (d) Search character found.
1272:Libraries/uC-LIB/lib_str.c **** *                       (1) Return pointer to first occurrence of search character in search string
1273:Libraries/uC-LIB/lib_str.c **** *                           (see Note #2a1).
1274:Libraries/uC-LIB/lib_str.c **** ***************************************************************************************************
1275:Libraries/uC-LIB/lib_str.c **** */
1276:Libraries/uC-LIB/lib_str.c **** 
1277:Libraries/uC-LIB/lib_str.c **** CPU_CHAR  *Str_Char (const  CPU_CHAR  *pstr,
1278:Libraries/uC-LIB/lib_str.c ****                             CPU_CHAR   srch_char)
1279:Libraries/uC-LIB/lib_str.c **** {
 1102              		.loc 1 1279 0
 1103              		.cfi_startproc
 1104              		@ args = 0, pretend = 0, frame = 16
 1105              		@ frame_needed = 1, uses_anonymous_args = 0
 1106 0538 80B5     		push	{r7, lr}
 1107              	.LCFI30:
 1108              		.cfi_def_cfa_offset 8
 1109              		.cfi_offset 14, -4
 1110              		.cfi_offset 7, -8
 1111 053a 84B0     		sub	sp, sp, #16
 1112              	.LCFI31:
 1113              		.cfi_def_cfa_offset 24
 1114 053c 00AF     		add	r7, sp, #0
 1115              	.LCFI32:
 1116              		.cfi_def_cfa_register 7
 1117 053e 7860     		str	r0, [r7, #4]
 1118 0540 0B46     		mov	r3, r1
 1119 0542 FB70     		strb	r3, [r7, #3]
1280:Libraries/uC-LIB/lib_str.c ****     CPU_CHAR  *pstr_rtn;
1281:Libraries/uC-LIB/lib_str.c **** 
1282:Libraries/uC-LIB/lib_str.c **** 
1283:Libraries/uC-LIB/lib_str.c ****     pstr_rtn = Str_Char_N(pstr,
 1120              		.loc 1 1283 0
 1121 0544 FB78     		ldrb	r3, [r7, #3]	@ zero_extendqisi2
 1122 0546 7868     		ldr	r0, [r7, #4]
 1123 0548 4FF0FF31 		mov	r1, #-1
 1124 054c 1A46     		mov	r2, r3
 1125 054e FFF7FEFF 		bl	Str_Char_N
 1126 0552 F860     		str	r0, [r7, #12]
1284:Libraries/uC-LIB/lib_str.c ****                           DEF_INT_CPU_U_MAX_VAL,
1285:Libraries/uC-LIB/lib_str.c ****                           srch_char);
1286:Libraries/uC-LIB/lib_str.c **** 
1287:Libraries/uC-LIB/lib_str.c ****     return (pstr_rtn);
 1127              		.loc 1 1287 0
 1128 0554 FB68     		ldr	r3, [r7, #12]
1288:Libraries/uC-LIB/lib_str.c **** }
 1129              		.loc 1 1288 0
 1130 0556 1846     		mov	r0, r3
 1131 0558 07F11007 		add	r7, r7, #16
 1132 055c BD46     		mov	sp, r7
 1133 055e 80BD     		pop	{r7, pc}
 1134              		.cfi_endproc
 1135              	.LFE10:
 1137              		.align	2
 1138              		.global	Str_Char_N
 1139              		.thumb
 1140              		.thumb_func
 1142              	Str_Char_N:
 1143              	.LFB11:
1289:Libraries/uC-LIB/lib_str.c **** 
1290:Libraries/uC-LIB/lib_str.c **** 
1291:Libraries/uC-LIB/lib_str.c **** /*$PAGE*/
1292:Libraries/uC-LIB/lib_str.c **** /*
1293:Libraries/uC-LIB/lib_str.c **** ***************************************************************************************************
1294:Libraries/uC-LIB/lib_str.c **** *                                            Str_Char_N()
1295:Libraries/uC-LIB/lib_str.c **** *
1296:Libraries/uC-LIB/lib_str.c **** * Description : Search string for first occurrence of specific character, up to a maximum number 
1297:Libraries/uC-LIB/lib_str.c **** *                   of characters.
1298:Libraries/uC-LIB/lib_str.c **** *
1299:Libraries/uC-LIB/lib_str.c **** * Argument(s) : pstr            Pointer to string (see Note #1).
1300:Libraries/uC-LIB/lib_str.c **** *
1301:Libraries/uC-LIB/lib_str.c **** *               len_max         Maximum number of characters to search (see Notes #2c & #3e).
1302:Libraries/uC-LIB/lib_str.c **** *
1303:Libraries/uC-LIB/lib_str.c **** *               srch_char       Search character.
1304:Libraries/uC-LIB/lib_str.c **** *
1305:Libraries/uC-LIB/lib_str.c **** * Return(s)   : Pointer to first occurrence of search character in string, if any    (see Note #2b1
1306:Libraries/uC-LIB/lib_str.c **** *
1307:Libraries/uC-LIB/lib_str.c **** *               Pointer to NULL,                                           otherwise (see Note #2b2
1308:Libraries/uC-LIB/lib_str.c **** *
1309:Libraries/uC-LIB/lib_str.c **** * Caller(s)   : Application.
1310:Libraries/uC-LIB/lib_str.c **** *
1311:Libraries/uC-LIB/lib_str.c **** * Note(s)     : (1) String buffer NOT modified.
1312:Libraries/uC-LIB/lib_str.c **** *
1313:Libraries/uC-LIB/lib_str.c **** *               (2) (a) IEEE Std 1003.1, 2004 Edition, Section 'strchr() : DESCRIPTION' states that
1314:Libraries/uC-LIB/lib_str.c **** *
1315:Libraries/uC-LIB/lib_str.c **** *                       (1) "The strchr() function shall locate the first occurrence of 'c' ('srch_
1316:Libraries/uC-LIB/lib_str.c **** *                            ... in the string pointed to by 's' ('pstr')."
1317:Libraries/uC-LIB/lib_str.c **** *                       (2) "The terminating null byte is considered to be part of the string."
1318:Libraries/uC-LIB/lib_str.c **** *
1319:Libraries/uC-LIB/lib_str.c **** *                   (b) IEEE Std 1003.1, 2004 Edition, Section 'strchr() : RETURN VALUE' states tha
1320:Libraries/uC-LIB/lib_str.c **** *                       "upon completion, strchr() shall return" :
1321:Libraries/uC-LIB/lib_str.c **** *
1322:Libraries/uC-LIB/lib_str.c **** *                       (1) "a pointer to the byte," ...
1323:Libraries/uC-LIB/lib_str.c **** *                       (2) "or a null pointer if the byte was not found."
1324:Libraries/uC-LIB/lib_str.c **** *                           (A) #### Although NO strchr() specification states to return NULL for 
1325:Libraries/uC-LIB/lib_str.c **** *                               any other reason(s), NULL is also returned for any error(s).
1326:Libraries/uC-LIB/lib_str.c **** *
1327:Libraries/uC-LIB/lib_str.c **** *                   (c) Ideally, the 'len_max' argument would be the last argument in this function
1328:Libraries/uC-LIB/lib_str.c **** *                       argument list for consistency with all other custom string library function
1329:Libraries/uC-LIB/lib_str.c **** *                       However, the 'len_max' argument is sequentially ordered as the second argum
1330:Libraries/uC-LIB/lib_str.c **** *                       to comply with most standard library's strnchr() argument list.
1331:Libraries/uC-LIB/lib_str.c **** *
1332:Libraries/uC-LIB/lib_str.c **** *               (3) String search terminates when :
1333:Libraries/uC-LIB/lib_str.c **** *
1334:Libraries/uC-LIB/lib_str.c **** *                   (a) String pointer passed a NULL pointer.
1335:Libraries/uC-LIB/lib_str.c **** *                       (1) No string search performed; NULL pointer returned.
1336:Libraries/uC-LIB/lib_str.c **** *
1337:Libraries/uC-LIB/lib_str.c **** *                   (b) String pointer points to NULL.
1338:Libraries/uC-LIB/lib_str.c **** *                       (1) String overlaps with NULL address; NULL pointer returned.
1339:Libraries/uC-LIB/lib_str.c **** *
1340:Libraries/uC-LIB/lib_str.c **** *                   (c) String's terminating NULL character found.
1341:Libraries/uC-LIB/lib_str.c **** *                       (1) Search character NOT found in search string; NULL pointer returned 
1342:Libraries/uC-LIB/lib_str.c **** *                           (see Note #2b2).
1343:Libraries/uC-LIB/lib_str.c **** *                       (2) Applicable even if search character is the terminating NULL character 
1344:Libraries/uC-LIB/lib_str.c **** *                           (see Note #2a2).
1345:Libraries/uC-LIB/lib_str.c **** *
1346:Libraries/uC-LIB/lib_str.c **** *                   (d) Search character found.
1347:Libraries/uC-LIB/lib_str.c **** *                       (1) Return pointer to first occurrence of search character in search string
1348:Libraries/uC-LIB/lib_str.c **** *                           (see Note #2a1).
1349:Libraries/uC-LIB/lib_str.c **** *
1350:Libraries/uC-LIB/lib_str.c **** *                   (e) 'len_max' number of characters searched.
1351:Libraries/uC-LIB/lib_str.c **** *                       (1) Search character NOT found in search string within first 'len_max' numb
1352:Libraries/uC-LIB/lib_str.c **** *                           of characters; NULL pointer returned.
1353:Libraries/uC-LIB/lib_str.c **** *                       (2) 'len_max' number of characters MAY include terminating NULL character 
1354:Libraries/uC-LIB/lib_str.c **** *                           (see Note #2a2).
1355:Libraries/uC-LIB/lib_str.c **** ***************************************************************************************************
1356:Libraries/uC-LIB/lib_str.c **** */
1357:Libraries/uC-LIB/lib_str.c **** /*$PAGE*/
1358:Libraries/uC-LIB/lib_str.c **** CPU_CHAR  *Str_Char_N (const  CPU_CHAR    *pstr,
1359:Libraries/uC-LIB/lib_str.c ****                               CPU_SIZE_T   len_max,
1360:Libraries/uC-LIB/lib_str.c ****                               CPU_CHAR     srch_char)
1361:Libraries/uC-LIB/lib_str.c **** {
 1144              		.loc 1 1361 0
 1145              		.cfi_startproc
 1146              		@ args = 0, pretend = 0, frame = 24
 1147              		@ frame_needed = 1, uses_anonymous_args = 0
 1148              		@ link register save eliminated.
 1149 0560 80B4     		push	{r7}
 1150              	.LCFI33:
 1151              		.cfi_def_cfa_offset 4
 1152              		.cfi_offset 7, -4
 1153 0562 87B0     		sub	sp, sp, #28
 1154              	.LCFI34:
 1155              		.cfi_def_cfa_offset 32
 1156 0564 00AF     		add	r7, sp, #0
 1157              	.LCFI35:
 1158              		.cfi_def_cfa_register 7
 1159 0566 F860     		str	r0, [r7, #12]
 1160 0568 B960     		str	r1, [r7, #8]
 1161 056a 1346     		mov	r3, r2
 1162 056c FB71     		strb	r3, [r7, #7]
1362:Libraries/uC-LIB/lib_str.c ****     const  CPU_CHAR    *pstr_char;
1363:Libraries/uC-LIB/lib_str.c ****            CPU_SIZE_T   len_srch;
1364:Libraries/uC-LIB/lib_str.c **** 
1365:Libraries/uC-LIB/lib_str.c **** 
1366:Libraries/uC-LIB/lib_str.c ****     if (pstr == (const CPU_CHAR *)0) {                          /* Rtn NULL if srch str ptr NULL (s
 1163              		.loc 1 1366 0
 1164 056e FB68     		ldr	r3, [r7, #12]
 1165 0570 002B     		cmp	r3, #0
 1166 0572 02D1     		bne	.L66
1367:Libraries/uC-LIB/lib_str.c ****         return ((CPU_CHAR *)0);
 1167              		.loc 1 1367 0
 1168 0574 4FF00003 		mov	r3, #0
 1169 0578 39E0     		b	.L67
 1170              	.L66:
1368:Libraries/uC-LIB/lib_str.c ****     }
1369:Libraries/uC-LIB/lib_str.c **** 
1370:Libraries/uC-LIB/lib_str.c ****     if (len_max == 0) {                                         /* Rtn NULL if srch len = 0      (s
 1171              		.loc 1 1370 0
 1172 057a BB68     		ldr	r3, [r7, #8]
 1173 057c 002B     		cmp	r3, #0
 1174 057e 02D1     		bne	.L68
1371:Libraries/uC-LIB/lib_str.c ****         return ((CPU_CHAR *)0);
 1175              		.loc 1 1371 0
 1176 0580 4FF00003 		mov	r3, #0
 1177 0584 33E0     		b	.L67
 1178              	.L68:
1372:Libraries/uC-LIB/lib_str.c ****     }
1373:Libraries/uC-LIB/lib_str.c **** 
1374:Libraries/uC-LIB/lib_str.c **** 
1375:Libraries/uC-LIB/lib_str.c ****     pstr_char = pstr;
 1179              		.loc 1 1375 0
 1180 0586 FB68     		ldr	r3, [r7, #12]
 1181 0588 7B61     		str	r3, [r7, #20]
1376:Libraries/uC-LIB/lib_str.c ****     len_srch  = 0u;
 1182              		.loc 1 1376 0
 1183 058a 4FF00003 		mov	r3, #0
 1184 058e 3B61     		str	r3, [r7, #16]
1377:Libraries/uC-LIB/lib_str.c **** 
1378:Libraries/uC-LIB/lib_str.c ****     while (( pstr_char != (const CPU_CHAR *)  0 )      &&       /* Srch str until NULL ptr     [see
 1185              		.loc 1 1378 0
 1186 0590 07E0     		b	.L69
 1187              	.L71:
1379:Libraries/uC-LIB/lib_str.c ****            (*pstr_char != (      CPU_CHAR  )'\0')      &&       /* ... or NULL char            (see
1380:Libraries/uC-LIB/lib_str.c ****            (*pstr_char != (      CPU_CHAR  )srch_char) &&       /* ... or srch char found      (see
1381:Libraries/uC-LIB/lib_str.c ****            ( len_srch  <  (      CPU_SIZE_T)len_max)) {         /* ... or max nbr chars srch'd (see
1382:Libraries/uC-LIB/lib_str.c ****         pstr_char++;
 1188              		.loc 1 1382 0
 1189 0592 7B69     		ldr	r3, [r7, #20]
 1190 0594 03F10103 		add	r3, r3, #1
 1191 0598 7B61     		str	r3, [r7, #20]
1383:Libraries/uC-LIB/lib_str.c ****         len_srch++;
 1192              		.loc 1 1383 0
 1193 059a 3B69     		ldr	r3, [r7, #16]
 1194 059c 03F10103 		add	r3, r3, #1
 1195 05a0 3B61     		str	r3, [r7, #16]
 1196              	.L69:
1378:Libraries/uC-LIB/lib_str.c ****     while (( pstr_char != (const CPU_CHAR *)  0 )      &&       /* Srch str until NULL ptr     [see
 1197              		.loc 1 1378 0 discriminator 1
 1198 05a2 7B69     		ldr	r3, [r7, #20]
 1199 05a4 002B     		cmp	r3, #0
 1200 05a6 0CD0     		beq	.L70
1379:Libraries/uC-LIB/lib_str.c ****            (*pstr_char != (      CPU_CHAR  )'\0')      &&       /* ... or NULL char            (see
 1201              		.loc 1 1379 0 discriminator 2
 1202 05a8 7B69     		ldr	r3, [r7, #20]
 1203 05aa 1B78     		ldrb	r3, [r3, #0]	@ zero_extendqisi2
1378:Libraries/uC-LIB/lib_str.c ****     while (( pstr_char != (const CPU_CHAR *)  0 )      &&       /* Srch str until NULL ptr     [see
 1204              		.loc 1 1378 0 discriminator 2
 1205 05ac 002B     		cmp	r3, #0
 1206 05ae 08D0     		beq	.L70
1380:Libraries/uC-LIB/lib_str.c ****            (*pstr_char != (      CPU_CHAR  )srch_char) &&       /* ... or srch char found      (see
 1207              		.loc 1 1380 0
 1208 05b0 7B69     		ldr	r3, [r7, #20]
 1209 05b2 1B78     		ldrb	r3, [r3, #0]	@ zero_extendqisi2
1379:Libraries/uC-LIB/lib_str.c ****            (*pstr_char != (      CPU_CHAR  )'\0')      &&       /* ... or NULL char            (see
 1210              		.loc 1 1379 0
 1211 05b4 FA79     		ldrb	r2, [r7, #7]	@ zero_extendqisi2
 1212 05b6 9A42     		cmp	r2, r3
 1213 05b8 03D0     		beq	.L70
1380:Libraries/uC-LIB/lib_str.c ****            (*pstr_char != (      CPU_CHAR  )srch_char) &&       /* ... or srch char found      (see
 1214              		.loc 1 1380 0
 1215 05ba 3A69     		ldr	r2, [r7, #16]
 1216 05bc BB68     		ldr	r3, [r7, #8]
 1217 05be 9A42     		cmp	r2, r3
 1218 05c0 E7D3     		bcc	.L71
 1219              	.L70:
1384:Libraries/uC-LIB/lib_str.c ****     }
1385:Libraries/uC-LIB/lib_str.c **** 
1386:Libraries/uC-LIB/lib_str.c **** 
1387:Libraries/uC-LIB/lib_str.c ****     if (pstr_char == (const CPU_CHAR *)0) {                     /* Rtn NULL if NULL ptr found      
 1220              		.loc 1 1387 0
 1221 05c2 7B69     		ldr	r3, [r7, #20]
 1222 05c4 002B     		cmp	r3, #0
 1223 05c6 02D1     		bne	.L72
1388:Libraries/uC-LIB/lib_str.c ****         return ((CPU_CHAR *)0);
 1224              		.loc 1 1388 0
 1225 05c8 4FF00003 		mov	r3, #0
 1226 05cc 0FE0     		b	.L67
 1227              	.L72:
1389:Libraries/uC-LIB/lib_str.c ****     }
1390:Libraries/uC-LIB/lib_str.c **** 
1391:Libraries/uC-LIB/lib_str.c ****     if (len_srch >= len_max) {                                  /* Rtn NULL if srch char NOT found 
 1228              		.loc 1 1391 0
 1229 05ce 3A69     		ldr	r2, [r7, #16]
 1230 05d0 BB68     		ldr	r3, [r7, #8]
 1231 05d2 9A42     		cmp	r2, r3
 1232 05d4 02D3     		bcc	.L73
1392:Libraries/uC-LIB/lib_str.c ****         return ((CPU_CHAR *)0);                                 /* ... within max nbr of chars     
 1233              		.loc 1 1392 0
 1234 05d6 4FF00003 		mov	r3, #0
 1235 05da 08E0     		b	.L67
 1236              	.L73:
1393:Libraries/uC-LIB/lib_str.c ****     }
1394:Libraries/uC-LIB/lib_str.c **** 
1395:Libraries/uC-LIB/lib_str.c ****     if (*pstr_char != srch_char) {                              /* Rtn NULL if srch char NOT found 
 1237              		.loc 1 1395 0
 1238 05dc 7B69     		ldr	r3, [r7, #20]
 1239 05de 1B78     		ldrb	r3, [r3, #0]	@ zero_extendqisi2
 1240 05e0 FA79     		ldrb	r2, [r7, #7]	@ zero_extendqisi2
 1241 05e2 9A42     		cmp	r2, r3
 1242 05e4 02D0     		beq	.L74
1396:Libraries/uC-LIB/lib_str.c ****          return ((CPU_CHAR *)0);
 1243              		.loc 1 1396 0
 1244 05e6 4FF00003 		mov	r3, #0
 1245 05ea 00E0     		b	.L67
 1246              	.L74:
1397:Libraries/uC-LIB/lib_str.c ****     }
1398:Libraries/uC-LIB/lib_str.c **** 
1399:Libraries/uC-LIB/lib_str.c **** 
1400:Libraries/uC-LIB/lib_str.c ****     return ((CPU_CHAR *)pstr_char);                             /* Else rtn ptr to found srch char 
 1247              		.loc 1 1400 0
 1248 05ec 7B69     		ldr	r3, [r7, #20]
 1249              	.L67:
1401:Libraries/uC-LIB/lib_str.c **** }
 1250              		.loc 1 1401 0
 1251 05ee 1846     		mov	r0, r3
 1252 05f0 07F11C07 		add	r7, r7, #28
 1253 05f4 BD46     		mov	sp, r7
 1254 05f6 80BC     		pop	{r7}
 1255 05f8 7047     		bx	lr
 1256              		.cfi_endproc
 1257              	.LFE11:
 1259 05fa 00BF     		.align	2
 1260              		.global	Str_Char_Last
 1261              		.thumb
 1262              		.thumb_func
 1264              	Str_Char_Last:
 1265              	.LFB12:
1402:Libraries/uC-LIB/lib_str.c **** 
1403:Libraries/uC-LIB/lib_str.c **** 
1404:Libraries/uC-LIB/lib_str.c **** /*$PAGE*/
1405:Libraries/uC-LIB/lib_str.c **** /*
1406:Libraries/uC-LIB/lib_str.c **** ***************************************************************************************************
1407:Libraries/uC-LIB/lib_str.c **** *                                           Str_Char_Last()
1408:Libraries/uC-LIB/lib_str.c **** *
1409:Libraries/uC-LIB/lib_str.c **** * Description : Search string for last occurrence of specific character.
1410:Libraries/uC-LIB/lib_str.c **** *
1411:Libraries/uC-LIB/lib_str.c **** * Argument(s) : pstr            Pointer to string (see Note #1).
1412:Libraries/uC-LIB/lib_str.c **** *
1413:Libraries/uC-LIB/lib_str.c **** *               srch_char       Search character.
1414:Libraries/uC-LIB/lib_str.c **** *
1415:Libraries/uC-LIB/lib_str.c **** * Return(s)   : Pointer to last occurrence of search character in string, if any    (see Note #2b1)
1416:Libraries/uC-LIB/lib_str.c **** *
1417:Libraries/uC-LIB/lib_str.c **** *               Pointer to NULL,                                          otherwise (see Note #2b2)
1418:Libraries/uC-LIB/lib_str.c **** *
1419:Libraries/uC-LIB/lib_str.c **** * Caller(s)   : Application.
1420:Libraries/uC-LIB/lib_str.c **** *
1421:Libraries/uC-LIB/lib_str.c **** * Note(s)     : (1) String buffer NOT modified.
1422:Libraries/uC-LIB/lib_str.c **** *
1423:Libraries/uC-LIB/lib_str.c **** *               (2) (a) IEEE Std 1003.1, 2004 Edition, Section 'strrchr() : DESCRIPTION' states tha
1424:Libraries/uC-LIB/lib_str.c **** *
1425:Libraries/uC-LIB/lib_str.c **** *                       (1) "The strrchr() function shall locate the last occurrence of 'c' ('srch_
1426:Libraries/uC-LIB/lib_str.c **** *                            ... in the string pointed to by 's' ('pstr')."
1427:Libraries/uC-LIB/lib_str.c **** *                       (2) "The terminating null byte is considered to be part of the string."
1428:Libraries/uC-LIB/lib_str.c **** *
1429:Libraries/uC-LIB/lib_str.c **** *                   (b) IEEE Std 1003.1, 2004 Edition, Section 'strrchr() : RETURN VALUE' states th
1430:Libraries/uC-LIB/lib_str.c **** *                       "upon successful completion, strrchr() shall return" :
1431:Libraries/uC-LIB/lib_str.c **** *
1432:Libraries/uC-LIB/lib_str.c **** *                       (1) "a pointer to the byte" ...
1433:Libraries/uC-LIB/lib_str.c **** *                       (2) "or a null pointer if 'c' ('srch_char') does not occur in the string."
1434:Libraries/uC-LIB/lib_str.c **** *                           (A) #### Although NO strrchr() specification states to return NULL for 
1435:Libraries/uC-LIB/lib_str.c **** *                               any other reason(s), NULL is also returned for any error(s).
1436:Libraries/uC-LIB/lib_str.c **** *
1437:Libraries/uC-LIB/lib_str.c **** *               (3) String search terminates when :
1438:Libraries/uC-LIB/lib_str.c **** *
1439:Libraries/uC-LIB/lib_str.c **** *                   (a) String pointer passed a NULL pointer.
1440:Libraries/uC-LIB/lib_str.c **** *                       (1) No string search performed; NULL pointer returned.
1441:Libraries/uC-LIB/lib_str.c **** *
1442:Libraries/uC-LIB/lib_str.c **** *                   (b) String pointer points to NULL.
1443:Libraries/uC-LIB/lib_str.c **** *                       (1) String overlaps with NULL address; NULL pointer returned.
1444:Libraries/uC-LIB/lib_str.c **** *
1445:Libraries/uC-LIB/lib_str.c **** *                   (c) String searched from end to beginning.
1446:Libraries/uC-LIB/lib_str.c **** *                       (1) Search character NOT found in search string; NULL pointer returned.
1447:Libraries/uC-LIB/lib_str.c **** *                       (2) Applicable even if search character is the terminating NULL character 
1448:Libraries/uC-LIB/lib_str.c **** *                           (see Note #2a2).
1449:Libraries/uC-LIB/lib_str.c **** *
1450:Libraries/uC-LIB/lib_str.c **** *                   (d) Search character found.
1451:Libraries/uC-LIB/lib_str.c **** *                       (1) Return pointer to last occurrence of search character in search string 
1452:Libraries/uC-LIB/lib_str.c **** *                           (see Note #2a1).
1453:Libraries/uC-LIB/lib_str.c **** ***************************************************************************************************
1454:Libraries/uC-LIB/lib_str.c **** */
1455:Libraries/uC-LIB/lib_str.c **** 
1456:Libraries/uC-LIB/lib_str.c **** CPU_CHAR  *Str_Char_Last (const  CPU_CHAR  *pstr,
1457:Libraries/uC-LIB/lib_str.c ****                                  CPU_CHAR   srch_char)
1458:Libraries/uC-LIB/lib_str.c **** {
 1266              		.loc 1 1458 0
 1267              		.cfi_startproc
 1268              		@ args = 0, pretend = 0, frame = 16
 1269              		@ frame_needed = 1, uses_anonymous_args = 0
 1270 05fc 80B5     		push	{r7, lr}
 1271              	.LCFI36:
 1272              		.cfi_def_cfa_offset 8
 1273              		.cfi_offset 14, -4
 1274              		.cfi_offset 7, -8
 1275 05fe 84B0     		sub	sp, sp, #16
 1276              	.LCFI37:
 1277              		.cfi_def_cfa_offset 24
 1278 0600 00AF     		add	r7, sp, #0
 1279              	.LCFI38:
 1280              		.cfi_def_cfa_register 7
 1281 0602 7860     		str	r0, [r7, #4]
 1282 0604 0B46     		mov	r3, r1
 1283 0606 FB70     		strb	r3, [r7, #3]
1459:Libraries/uC-LIB/lib_str.c ****     CPU_CHAR  *pstr_rtn;
1460:Libraries/uC-LIB/lib_str.c **** 
1461:Libraries/uC-LIB/lib_str.c **** 
1462:Libraries/uC-LIB/lib_str.c ****     pstr_rtn = Str_Char_Last_N(pstr,
 1284              		.loc 1 1462 0
 1285 0608 FB78     		ldrb	r3, [r7, #3]	@ zero_extendqisi2
 1286 060a 7868     		ldr	r0, [r7, #4]
 1287 060c 4FF0FF31 		mov	r1, #-1
 1288 0610 1A46     		mov	r2, r3
 1289 0612 FFF7FEFF 		bl	Str_Char_Last_N
 1290 0616 F860     		str	r0, [r7, #12]
1463:Libraries/uC-LIB/lib_str.c ****                                DEF_INT_CPU_U_MAX_VAL,
1464:Libraries/uC-LIB/lib_str.c ****                                srch_char);
1465:Libraries/uC-LIB/lib_str.c **** 
1466:Libraries/uC-LIB/lib_str.c ****     return (pstr_rtn);
 1291              		.loc 1 1466 0
 1292 0618 FB68     		ldr	r3, [r7, #12]
1467:Libraries/uC-LIB/lib_str.c **** }
 1293              		.loc 1 1467 0
 1294 061a 1846     		mov	r0, r3
 1295 061c 07F11007 		add	r7, r7, #16
 1296 0620 BD46     		mov	sp, r7
 1297 0622 80BD     		pop	{r7, pc}
 1298              		.cfi_endproc
 1299              	.LFE12:
 1301              		.align	2
 1302              		.global	Str_Char_Last_N
 1303              		.thumb
 1304              		.thumb_func
 1306              	Str_Char_Last_N:
 1307              	.LFB13:
1468:Libraries/uC-LIB/lib_str.c **** 
1469:Libraries/uC-LIB/lib_str.c **** 
1470:Libraries/uC-LIB/lib_str.c **** /*$PAGE*/
1471:Libraries/uC-LIB/lib_str.c **** /*
1472:Libraries/uC-LIB/lib_str.c **** ***************************************************************************************************
1473:Libraries/uC-LIB/lib_str.c **** *                                          Str_Char_Last_N()
1474:Libraries/uC-LIB/lib_str.c **** *
1475:Libraries/uC-LIB/lib_str.c **** * Description : Search string for last occurrence of specific character, up to a maximum number 
1476:Libraries/uC-LIB/lib_str.c **** *                   of characters.
1477:Libraries/uC-LIB/lib_str.c **** *
1478:Libraries/uC-LIB/lib_str.c **** * Argument(s) : pstr            Pointer to string (see Note #1).
1479:Libraries/uC-LIB/lib_str.c **** *
1480:Libraries/uC-LIB/lib_str.c **** *               len_max         Maximum number of characters to search (see Notes #2c & #3e).
1481:Libraries/uC-LIB/lib_str.c **** *
1482:Libraries/uC-LIB/lib_str.c **** *               srch_char       Search character.
1483:Libraries/uC-LIB/lib_str.c **** *
1484:Libraries/uC-LIB/lib_str.c **** * Return(s)   : Pointer to last occurrence of search character in string, if any    (see Note #2b1)
1485:Libraries/uC-LIB/lib_str.c **** *
1486:Libraries/uC-LIB/lib_str.c **** *               Pointer to NULL,                                          otherwise (see Note #2b2)
1487:Libraries/uC-LIB/lib_str.c **** *
1488:Libraries/uC-LIB/lib_str.c **** * Caller(s)   : Application.
1489:Libraries/uC-LIB/lib_str.c **** *
1490:Libraries/uC-LIB/lib_str.c **** * Note(s)     : (1) String buffer NOT modified.
1491:Libraries/uC-LIB/lib_str.c **** *
1492:Libraries/uC-LIB/lib_str.c **** *               (2) (a) IEEE Std 1003.1, 2004 Edition, Section 'strrchr() : DESCRIPTION' states tha
1493:Libraries/uC-LIB/lib_str.c **** *
1494:Libraries/uC-LIB/lib_str.c **** *                       (1) "The strrchr() function shall locate the last occurrence of 'c' ('srch_
1495:Libraries/uC-LIB/lib_str.c **** *                            ... in the string pointed to by 's' ('pstr')."
1496:Libraries/uC-LIB/lib_str.c **** *                       (2) "The terminating null byte is considered to be part of the string."
1497:Libraries/uC-LIB/lib_str.c **** *
1498:Libraries/uC-LIB/lib_str.c **** *                   (b) IEEE Std 1003.1, 2004 Edition, Section 'strrchr() : RETURN VALUE' states th
1499:Libraries/uC-LIB/lib_str.c **** *                       "upon successful completion, strrchr() shall return" :
1500:Libraries/uC-LIB/lib_str.c **** *
1501:Libraries/uC-LIB/lib_str.c **** *                       (1) "a pointer to the byte" ...
1502:Libraries/uC-LIB/lib_str.c **** *                       (2) "or a null pointer if 'c' ('srch_char') does not occur in the string."
1503:Libraries/uC-LIB/lib_str.c **** *                           (A) #### Although NO strrchr() specification states to return NULL for 
1504:Libraries/uC-LIB/lib_str.c **** *                               any other reason(s), NULL is also returned for any error(s).
1505:Libraries/uC-LIB/lib_str.c **** *
1506:Libraries/uC-LIB/lib_str.c **** *                   (c) Ideally, the 'len_max' argument would be the last argument in this function
1507:Libraries/uC-LIB/lib_str.c **** *                       argument list for consistency with all other custom string library function
1508:Libraries/uC-LIB/lib_str.c **** *                       However, the 'len_max' argument is sequentially ordered as the second argum
1509:Libraries/uC-LIB/lib_str.c **** *                       to comply with most standard library's strnrchr() argument list.
1510:Libraries/uC-LIB/lib_str.c **** *
1511:Libraries/uC-LIB/lib_str.c **** *                       See also 'Str_Char_N()  Note #2c'.
1512:Libraries/uC-LIB/lib_str.c **** *
1513:Libraries/uC-LIB/lib_str.c **** *               (3) String search terminates when :
1514:Libraries/uC-LIB/lib_str.c **** *
1515:Libraries/uC-LIB/lib_str.c **** *                   (a) String pointer passed a NULL pointer.
1516:Libraries/uC-LIB/lib_str.c **** *                       (1) No string search performed; NULL pointer returned.
1517:Libraries/uC-LIB/lib_str.c **** *
1518:Libraries/uC-LIB/lib_str.c **** *                   (b) String pointer points to NULL.
1519:Libraries/uC-LIB/lib_str.c **** *                       (1) String overlaps with NULL address; NULL pointer returned.
1520:Libraries/uC-LIB/lib_str.c **** *
1521:Libraries/uC-LIB/lib_str.c **** *                   (c) String searched from end to beginning.
1522:Libraries/uC-LIB/lib_str.c **** *                       (1) Search character NOT found in search string; NULL pointer returned 
1523:Libraries/uC-LIB/lib_str.c **** *                           (see Note #2b2).
1524:Libraries/uC-LIB/lib_str.c **** *                       (2) Applicable even if search character is the terminating NULL character 
1525:Libraries/uC-LIB/lib_str.c **** *                           (see Note #2a2).
1526:Libraries/uC-LIB/lib_str.c **** *
1527:Libraries/uC-LIB/lib_str.c **** *                   (d) Search character found.
1528:Libraries/uC-LIB/lib_str.c **** *                       (1) Return pointer to last occurrence of search character in search string 
1529:Libraries/uC-LIB/lib_str.c **** *                           (see Note #2a1).
1530:Libraries/uC-LIB/lib_str.c **** *
1531:Libraries/uC-LIB/lib_str.c **** *                   (e) 'len_max' number of characters searched.
1532:Libraries/uC-LIB/lib_str.c **** *                       (1) Search character NOT found in search string within last 'len_max' numbe
1533:Libraries/uC-LIB/lib_str.c **** *                           of characters; NULL pointer returned.
1534:Libraries/uC-LIB/lib_str.c **** *                       (2) 'len_max' number of characters MAY include terminating NULL character 
1535:Libraries/uC-LIB/lib_str.c **** *                           (see Note #2a2).
1536:Libraries/uC-LIB/lib_str.c **** ***************************************************************************************************
1537:Libraries/uC-LIB/lib_str.c **** */
1538:Libraries/uC-LIB/lib_str.c **** /*$PAGE*/
1539:Libraries/uC-LIB/lib_str.c **** CPU_CHAR  *Str_Char_Last_N (const  CPU_CHAR    *pstr,
1540:Libraries/uC-LIB/lib_str.c ****                                    CPU_SIZE_T   len_max,
1541:Libraries/uC-LIB/lib_str.c ****                                    CPU_CHAR     srch_char)
1542:Libraries/uC-LIB/lib_str.c **** {
 1308              		.loc 1 1542 0
 1309              		.cfi_startproc
 1310              		@ args = 0, pretend = 0, frame = 32
 1311              		@ frame_needed = 1, uses_anonymous_args = 0
 1312 0624 80B5     		push	{r7, lr}
 1313              	.LCFI39:
 1314              		.cfi_def_cfa_offset 8
 1315              		.cfi_offset 14, -4
 1316              		.cfi_offset 7, -8
 1317 0626 88B0     		sub	sp, sp, #32
 1318              	.LCFI40:
 1319              		.cfi_def_cfa_offset 40
 1320 0628 00AF     		add	r7, sp, #0
 1321              	.LCFI41:
 1322              		.cfi_def_cfa_register 7
 1323 062a F860     		str	r0, [r7, #12]
 1324 062c B960     		str	r1, [r7, #8]
 1325 062e 1346     		mov	r3, r2
 1326 0630 FB71     		strb	r3, [r7, #7]
1543:Libraries/uC-LIB/lib_str.c ****     const  CPU_CHAR    *pstr_char;
1544:Libraries/uC-LIB/lib_str.c ****            CPU_SIZE_T   str_len_max;
1545:Libraries/uC-LIB/lib_str.c ****            CPU_SIZE_T   str_len;
1546:Libraries/uC-LIB/lib_str.c **** 
1547:Libraries/uC-LIB/lib_str.c **** 
1548:Libraries/uC-LIB/lib_str.c ****     if (pstr == (const CPU_CHAR *)0) {                          /* Rtn NULL if srch str ptr NULL (s
 1327              		.loc 1 1548 0
 1328 0632 FB68     		ldr	r3, [r7, #12]
 1329 0634 002B     		cmp	r3, #0
 1330 0636 02D1     		bne	.L77
1549:Libraries/uC-LIB/lib_str.c ****         return ((CPU_CHAR *)0);
 1331              		.loc 1 1549 0
 1332 0638 4FF00003 		mov	r3, #0
 1333 063c 30E0     		b	.L78
 1334              	.L77:
1550:Libraries/uC-LIB/lib_str.c ****     }
1551:Libraries/uC-LIB/lib_str.c **** 
1552:Libraries/uC-LIB/lib_str.c ****     if (len_max == 0) {                                         /* Rtn NULL if srch len = 0      (s
 1335              		.loc 1 1552 0
 1336 063e BB68     		ldr	r3, [r7, #8]
 1337 0640 002B     		cmp	r3, #0
 1338 0642 02D1     		bne	.L79
1553:Libraries/uC-LIB/lib_str.c ****         return ((CPU_CHAR *)0);
 1339              		.loc 1 1553 0
 1340 0644 4FF00003 		mov	r3, #0
 1341 0648 2AE0     		b	.L78
 1342              	.L79:
1554:Libraries/uC-LIB/lib_str.c ****     }
1555:Libraries/uC-LIB/lib_str.c **** 
1556:Libraries/uC-LIB/lib_str.c **** 
1557:Libraries/uC-LIB/lib_str.c ****     pstr_char    = pstr;
 1343              		.loc 1 1557 0
 1344 064a FB68     		ldr	r3, [r7, #12]
 1345 064c FB61     		str	r3, [r7, #28]
1558:Libraries/uC-LIB/lib_str.c ****      str_len_max = len_max - sizeof((CPU_CHAR)'\0');            /* Str len adj'd for NULL char len.
 1346              		.loc 1 1558 0
 1347 064e BB68     		ldr	r3, [r7, #8]
 1348 0650 03F1FF33 		add	r3, r3, #-1
 1349 0654 BB61     		str	r3, [r7, #24]
1559:Libraries/uC-LIB/lib_str.c ****      str_len     = Str_Len_N(pstr_char, str_len_max);
 1350              		.loc 1 1559 0
 1351 0656 F869     		ldr	r0, [r7, #28]
 1352 0658 B969     		ldr	r1, [r7, #24]
 1353 065a FFF7FEFF 		bl	Str_Len_N
 1354 065e 7861     		str	r0, [r7, #20]
1560:Libraries/uC-LIB/lib_str.c ****     pstr_char   += str_len;
 1355              		.loc 1 1560 0
 1356 0660 FA69     		ldr	r2, [r7, #28]
 1357 0662 7B69     		ldr	r3, [r7, #20]
 1358 0664 D318     		adds	r3, r2, r3
 1359 0666 FB61     		str	r3, [r7, #28]
1561:Libraries/uC-LIB/lib_str.c **** 
1562:Libraries/uC-LIB/lib_str.c ****     if (pstr_char == (const CPU_CHAR *)0) {                     /* Rtn NULL if NULL ptr found      
 1360              		.loc 1 1562 0
 1361 0668 FB69     		ldr	r3, [r7, #28]
 1362 066a 002B     		cmp	r3, #0
 1363 066c 06D1     		bne	.L81
1563:Libraries/uC-LIB/lib_str.c ****         return ((CPU_CHAR *)0);
 1364              		.loc 1 1563 0
 1365 066e 4FF00003 		mov	r3, #0
 1366 0672 15E0     		b	.L78
 1367              	.L83:
1564:Libraries/uC-LIB/lib_str.c ****     }
1565:Libraries/uC-LIB/lib_str.c **** 
1566:Libraries/uC-LIB/lib_str.c ****     while (( pstr_char != pstr) &&                              /* Srch str from end until begining
1567:Libraries/uC-LIB/lib_str.c ****            (*pstr_char != srch_char)) {                         /* ... until srch char found       
1568:Libraries/uC-LIB/lib_str.c ****         pstr_char--;
 1368              		.loc 1 1568 0
 1369 0674 FB69     		ldr	r3, [r7, #28]
 1370 0676 03F1FF33 		add	r3, r3, #-1
 1371 067a FB61     		str	r3, [r7, #28]
 1372              	.L81:
1566:Libraries/uC-LIB/lib_str.c ****     while (( pstr_char != pstr) &&                              /* Srch str from end until begining
 1373              		.loc 1 1566 0 discriminator 1
 1374 067c FA69     		ldr	r2, [r7, #28]
 1375 067e FB68     		ldr	r3, [r7, #12]
 1376 0680 9A42     		cmp	r2, r3
 1377 0682 04D0     		beq	.L82
1567:Libraries/uC-LIB/lib_str.c ****            (*pstr_char != srch_char)) {                         /* ... until srch char found       
 1378              		.loc 1 1567 0 discriminator 2
 1379 0684 FB69     		ldr	r3, [r7, #28]
 1380 0686 1B78     		ldrb	r3, [r3, #0]	@ zero_extendqisi2
1566:Libraries/uC-LIB/lib_str.c ****     while (( pstr_char != pstr) &&                              /* Srch str from end until begining
 1381              		.loc 1 1566 0 discriminator 2
 1382 0688 FA79     		ldrb	r2, [r7, #7]	@ zero_extendqisi2
 1383 068a 9A42     		cmp	r2, r3
 1384 068c F2D1     		bne	.L83
 1385              	.L82:
1569:Libraries/uC-LIB/lib_str.c ****     }
1570:Libraries/uC-LIB/lib_str.c **** 
1571:Libraries/uC-LIB/lib_str.c **** 
1572:Libraries/uC-LIB/lib_str.c ****     if (*pstr_char != srch_char) {                              /* Rtn NULL if srch char NOT found 
 1386              		.loc 1 1572 0
 1387 068e FB69     		ldr	r3, [r7, #28]
 1388 0690 1B78     		ldrb	r3, [r3, #0]	@ zero_extendqisi2
 1389 0692 FA79     		ldrb	r2, [r7, #7]	@ zero_extendqisi2
 1390 0694 9A42     		cmp	r2, r3
 1391 0696 02D0     		beq	.L84
1573:Libraries/uC-LIB/lib_str.c ****          return ((CPU_CHAR *)0);
 1392              		.loc 1 1573 0
 1393 0698 4FF00003 		mov	r3, #0
 1394 069c 00E0     		b	.L78
 1395              	.L84:
1574:Libraries/uC-LIB/lib_str.c ****     }
1575:Libraries/uC-LIB/lib_str.c **** 
1576:Libraries/uC-LIB/lib_str.c **** 
1577:Libraries/uC-LIB/lib_str.c ****     return ((CPU_CHAR *)pstr_char);                             /* Else rtn ptr to found srch char 
 1396              		.loc 1 1577 0
 1397 069e FB69     		ldr	r3, [r7, #28]
 1398              	.L78:
1578:Libraries/uC-LIB/lib_str.c **** }
 1399              		.loc 1 1578 0
 1400 06a0 1846     		mov	r0, r3
 1401 06a2 07F12007 		add	r7, r7, #32
 1402 06a6 BD46     		mov	sp, r7
 1403 06a8 80BD     		pop	{r7, pc}
 1404              		.cfi_endproc
 1405              	.LFE13:
 1407 06aa 00BF     		.align	2
 1408              		.global	Str_Str
 1409              		.thumb
 1410              		.thumb_func
 1412              	Str_Str:
 1413              	.LFB14:
1579:Libraries/uC-LIB/lib_str.c **** 
1580:Libraries/uC-LIB/lib_str.c **** 
1581:Libraries/uC-LIB/lib_str.c **** /*$PAGE*/
1582:Libraries/uC-LIB/lib_str.c **** /*
1583:Libraries/uC-LIB/lib_str.c **** ***************************************************************************************************
1584:Libraries/uC-LIB/lib_str.c **** *                                              Str_Str()
1585:Libraries/uC-LIB/lib_str.c **** *
1586:Libraries/uC-LIB/lib_str.c **** * Description : Search string for first occurence of a specific search string.
1587:Libraries/uC-LIB/lib_str.c **** *
1588:Libraries/uC-LIB/lib_str.c **** * Argument(s) : pstr            Pointer to        string (see Note #1).
1589:Libraries/uC-LIB/lib_str.c **** *
1590:Libraries/uC-LIB/lib_str.c **** *               pstr_srch       Pointer to search string (see Note #1).
1591:Libraries/uC-LIB/lib_str.c **** *
1592:Libraries/uC-LIB/lib_str.c **** * Return(s)   : Pointer to first occurrence of search string in string, if any                (see 
1593:Libraries/uC-LIB/lib_str.c **** *
1594:Libraries/uC-LIB/lib_str.c **** *               Pointer to string,                                      if NULL search string (see 
1595:Libraries/uC-LIB/lib_str.c **** *
1596:Libraries/uC-LIB/lib_str.c **** *               Pointer to NULL,                                        otherwise             (see 
1597:Libraries/uC-LIB/lib_str.c **** *
1598:Libraries/uC-LIB/lib_str.c **** * Caller(s)   : Application.
1599:Libraries/uC-LIB/lib_str.c **** *
1600:Libraries/uC-LIB/lib_str.c **** * Note(s)     : (1) String buffers NOT modified.
1601:Libraries/uC-LIB/lib_str.c **** *
1602:Libraries/uC-LIB/lib_str.c **** *               (2) (a) IEEE Std 1003.1, 2004 Edition, Section 'strstr() : DESCRIPTION' states that
1603:Libraries/uC-LIB/lib_str.c **** *
1604:Libraries/uC-LIB/lib_str.c **** *                       (1) "The strstr() function shall locate the first occurrence  in the string
1605:Libraries/uC-LIB/lib_str.c **** *                            pointed to by 's1' ('pstr') of the sequence of bytes ... in the string
1606:Libraries/uC-LIB/lib_str.c **** *                            pointed to by 's2' ('pstr_srch')" ...
1607:Libraries/uC-LIB/lib_str.c **** *                       (2) "(excluding the terminating null byte)."
1608:Libraries/uC-LIB/lib_str.c **** *
1609:Libraries/uC-LIB/lib_str.c **** *                   (b) IEEE Std 1003.1, 2004 Edition, Section 'strstr() : RETURN VALUE' states tha
1610:Libraries/uC-LIB/lib_str.c **** *
1611:Libraries/uC-LIB/lib_str.c **** *                       (1) "Upon successful completion, strstr() shall return" :
1612:Libraries/uC-LIB/lib_str.c **** *                           (A) "a pointer to the located string" ...
1613:Libraries/uC-LIB/lib_str.c **** *                           (B) "or a null pointer if the string is not found."
1614:Libraries/uC-LIB/lib_str.c **** *                               (1) #### Although NO strstr() specification states to return NULL f
1615:Libraries/uC-LIB/lib_str.c **** *                                   any other reason(s), NULL is also returned for any error(s).
1616:Libraries/uC-LIB/lib_str.c **** *
1617:Libraries/uC-LIB/lib_str.c **** *                       (2) "If 's2' ('pstr_srch') points to a string with zero length, the functio
1618:Libraries/uC-LIB/lib_str.c **** *                            shall return 's1' ('pstr')."
1619:Libraries/uC-LIB/lib_str.c **** *
1620:Libraries/uC-LIB/lib_str.c **** *               (3) String search terminates when :
1621:Libraries/uC-LIB/lib_str.c **** *
1622:Libraries/uC-LIB/lib_str.c **** *                   (a) String pointer(s) are passed NULL pointers.
1623:Libraries/uC-LIB/lib_str.c **** *                       (1) No string search performed; NULL pointer returned.
1624:Libraries/uC-LIB/lib_str.c **** *
1625:Libraries/uC-LIB/lib_str.c **** *                   (b) String pointer(s) point to NULL.
1626:Libraries/uC-LIB/lib_str.c **** *                       (1) String buffer(s) overlap with NULL address; NULL pointer returned.
1627:Libraries/uC-LIB/lib_str.c **** *
1628:Libraries/uC-LIB/lib_str.c **** *                   (c) Search string length equal to zero.
1629:Libraries/uC-LIB/lib_str.c **** *                       (1) No string search performed; string pointer returned (see Note #2b2).
1630:Libraries/uC-LIB/lib_str.c **** *
1631:Libraries/uC-LIB/lib_str.c **** *                   (d) Search string length greater than string length.
1632:Libraries/uC-LIB/lib_str.c **** *                       (1) No string search performed; NULL   pointer returned (see Note #2b1B).
1633:Libraries/uC-LIB/lib_str.c **** *
1634:Libraries/uC-LIB/lib_str.c **** *                   (e) Entire string has been searched.
1635:Libraries/uC-LIB/lib_str.c **** *                       (1) Search string not found; NULL pointer returned (see Note #2b1B).
1636:Libraries/uC-LIB/lib_str.c **** *
1637:Libraries/uC-LIB/lib_str.c **** *                   (f) Search string found.
1638:Libraries/uC-LIB/lib_str.c **** *                       (1) Return pointer to first occurrence of search string in string (see Note
1639:Libraries/uC-LIB/lib_str.c **** ***************************************************************************************************
1640:Libraries/uC-LIB/lib_str.c **** */
1641:Libraries/uC-LIB/lib_str.c **** 
1642:Libraries/uC-LIB/lib_str.c **** CPU_CHAR  *Str_Str (const  CPU_CHAR  *pstr,
1643:Libraries/uC-LIB/lib_str.c ****                     const  CPU_CHAR  *pstr_srch)
1644:Libraries/uC-LIB/lib_str.c **** {
 1414              		.loc 1 1644 0
 1415              		.cfi_startproc
 1416              		@ args = 0, pretend = 0, frame = 16
 1417              		@ frame_needed = 1, uses_anonymous_args = 0
 1418 06ac 80B5     		push	{r7, lr}
 1419              	.LCFI42:
 1420              		.cfi_def_cfa_offset 8
 1421              		.cfi_offset 14, -4
 1422              		.cfi_offset 7, -8
 1423 06ae 84B0     		sub	sp, sp, #16
 1424              	.LCFI43:
 1425              		.cfi_def_cfa_offset 24
 1426 06b0 00AF     		add	r7, sp, #0
 1427              	.LCFI44:
 1428              		.cfi_def_cfa_register 7
 1429 06b2 7860     		str	r0, [r7, #4]
 1430 06b4 3960     		str	r1, [r7, #0]
1645:Libraries/uC-LIB/lib_str.c ****     CPU_CHAR  *pstr_rtn;
1646:Libraries/uC-LIB/lib_str.c **** 
1647:Libraries/uC-LIB/lib_str.c **** 
1648:Libraries/uC-LIB/lib_str.c ****     pstr_rtn = Str_Str_N(pstr,
 1431              		.loc 1 1648 0
 1432 06b6 7868     		ldr	r0, [r7, #4]
 1433 06b8 3968     		ldr	r1, [r7, #0]
 1434 06ba 4FF0FF32 		mov	r2, #-1
 1435 06be FFF7FEFF 		bl	Str_Str_N
 1436 06c2 F860     		str	r0, [r7, #12]
1649:Libraries/uC-LIB/lib_str.c ****                          pstr_srch,
1650:Libraries/uC-LIB/lib_str.c ****                          DEF_INT_CPU_U_MAX_VAL);
1651:Libraries/uC-LIB/lib_str.c **** 
1652:Libraries/uC-LIB/lib_str.c ****     return (pstr_rtn);
 1437              		.loc 1 1652 0
 1438 06c4 FB68     		ldr	r3, [r7, #12]
1653:Libraries/uC-LIB/lib_str.c **** }
 1439              		.loc 1 1653 0
 1440 06c6 1846     		mov	r0, r3
 1441 06c8 07F11007 		add	r7, r7, #16
 1442 06cc BD46     		mov	sp, r7
 1443 06ce 80BD     		pop	{r7, pc}
 1444              		.cfi_endproc
 1445              	.LFE14:
 1447              		.align	2
 1448              		.global	Str_Str_N
 1449              		.thumb
 1450              		.thumb_func
 1452              	Str_Str_N:
 1453              	.LFB15:
1654:Libraries/uC-LIB/lib_str.c **** 
1655:Libraries/uC-LIB/lib_str.c **** 
1656:Libraries/uC-LIB/lib_str.c **** /*$PAGE*/
1657:Libraries/uC-LIB/lib_str.c **** /*
1658:Libraries/uC-LIB/lib_str.c **** ***************************************************************************************************
1659:Libraries/uC-LIB/lib_str.c **** *                                             Str_Str_N()
1660:Libraries/uC-LIB/lib_str.c **** *
1661:Libraries/uC-LIB/lib_str.c **** * Description : Search string for first occurence of a specific search string, up to a maximum numb
1662:Libraries/uC-LIB/lib_str.c **** *                   of characters.
1663:Libraries/uC-LIB/lib_str.c **** *
1664:Libraries/uC-LIB/lib_str.c **** * Argument(s) : pstr            Pointer to        string (see Note #1).
1665:Libraries/uC-LIB/lib_str.c **** *
1666:Libraries/uC-LIB/lib_str.c **** *               pstr_srch       Pointer to search string (see Note #1).
1667:Libraries/uC-LIB/lib_str.c **** *
1668:Libraries/uC-LIB/lib_str.c **** *               len_max         Maximum number of characters to search (see Note #3g).
1669:Libraries/uC-LIB/lib_str.c **** *
1670:Libraries/uC-LIB/lib_str.c **** * Return(s)   : Pointer to first occurrence of search string in string, if any                (see 
1671:Libraries/uC-LIB/lib_str.c **** *
1672:Libraries/uC-LIB/lib_str.c **** *               Pointer to string,                                      if NULL search string (see 
1673:Libraries/uC-LIB/lib_str.c **** *
1674:Libraries/uC-LIB/lib_str.c **** *               Pointer to NULL,                                        otherwise             (see 
1675:Libraries/uC-LIB/lib_str.c **** *
1676:Libraries/uC-LIB/lib_str.c **** * Caller(s)   : Application.
1677:Libraries/uC-LIB/lib_str.c **** *
1678:Libraries/uC-LIB/lib_str.c **** * Note(s)     : (1) String buffers NOT modified.
1679:Libraries/uC-LIB/lib_str.c **** *
1680:Libraries/uC-LIB/lib_str.c **** *               (2) (a) IEEE Std 1003.1, 2004 Edition, Section 'strstr() : DESCRIPTION' states that
1681:Libraries/uC-LIB/lib_str.c **** *
1682:Libraries/uC-LIB/lib_str.c **** *                       (1) "The strstr() function shall locate the first occurrence  in the string
1683:Libraries/uC-LIB/lib_str.c **** *                            pointed to by 's1' ('pstr') of the sequence of bytes ... in the string
1684:Libraries/uC-LIB/lib_str.c **** *                            pointed to by 's2' ('pstr_srch')" ...
1685:Libraries/uC-LIB/lib_str.c **** *                       (2) "(excluding the terminating null byte)."
1686:Libraries/uC-LIB/lib_str.c **** *
1687:Libraries/uC-LIB/lib_str.c **** *                   (b) IEEE Std 1003.1, 2004 Edition, Section 'strstr() : RETURN VALUE' states tha
1688:Libraries/uC-LIB/lib_str.c **** *
1689:Libraries/uC-LIB/lib_str.c **** *                       (1) "Upon successful completion, strstr() shall return" :
1690:Libraries/uC-LIB/lib_str.c **** *                           (A) "a pointer to the located string" ...
1691:Libraries/uC-LIB/lib_str.c **** *                           (B) "or a null pointer if the string is not found."
1692:Libraries/uC-LIB/lib_str.c **** *                               (1) #### Although NO strstr() specification states to return NULL f
1693:Libraries/uC-LIB/lib_str.c **** *                                   any other reason(s), NULL is also returned for any error(s).
1694:Libraries/uC-LIB/lib_str.c **** *
1695:Libraries/uC-LIB/lib_str.c **** *                       (2) "If 's2' ('pstr_srch') points to a string with zero length, the functio
1696:Libraries/uC-LIB/lib_str.c **** *                            shall return 's1' ('pstr')."
1697:Libraries/uC-LIB/lib_str.c **** *
1698:Libraries/uC-LIB/lib_str.c **** *               (3) String search terminates when :
1699:Libraries/uC-LIB/lib_str.c **** *
1700:Libraries/uC-LIB/lib_str.c **** *                   (a) String pointer(s) are passed NULL pointers.
1701:Libraries/uC-LIB/lib_str.c **** *                       (1) No string search performed; NULL pointer returned.
1702:Libraries/uC-LIB/lib_str.c **** *
1703:Libraries/uC-LIB/lib_str.c **** *                   (b) String pointer(s) point to NULL.
1704:Libraries/uC-LIB/lib_str.c **** *                       (1) String buffer(s) overlap with NULL address; NULL pointer returned.
1705:Libraries/uC-LIB/lib_str.c **** *
1706:Libraries/uC-LIB/lib_str.c **** *                   (c) Search string length equal to zero.
1707:Libraries/uC-LIB/lib_str.c **** *                       (1) No string search performed; string pointer returned (see Note #2b2).
1708:Libraries/uC-LIB/lib_str.c **** *
1709:Libraries/uC-LIB/lib_str.c **** *                   (d) Search string length greater than string length.
1710:Libraries/uC-LIB/lib_str.c **** *                       (1) No string search performed; NULL   pointer returned (see Note #2b1B).
1711:Libraries/uC-LIB/lib_str.c **** *
1712:Libraries/uC-LIB/lib_str.c **** *                   (e) Entire string has been searched.
1713:Libraries/uC-LIB/lib_str.c **** *                       (1) Search string not found; NULL pointer returned (see Note #2b1B).
1714:Libraries/uC-LIB/lib_str.c **** *                       (2) Maximum size of the search is defined as the subtraction of the
1715:Libraries/uC-LIB/lib_str.c **** *                           search string length from the string length.
1716:Libraries/uC-LIB/lib_str.c **** *
1717:Libraries/uC-LIB/lib_str.c **** *                   (f) Search string found.
1718:Libraries/uC-LIB/lib_str.c **** *                       (1) Return pointer to first occurrence of search string in string (see Note
1719:Libraries/uC-LIB/lib_str.c **** *                       (2) Search string found via Str_Cmp_N().
1720:Libraries/uC-LIB/lib_str.c **** *
1721:Libraries/uC-LIB/lib_str.c **** *                   (g) 'len_max' number of characters searched.
1722:Libraries/uC-LIB/lib_str.c **** *                       (1) 'len_max' number of characters does NOT include terminating NULL charac
1723:Libraries/uC-LIB/lib_str.c **** *                           (see Note #2a2).
1724:Libraries/uC-LIB/lib_str.c **** ***************************************************************************************************
1725:Libraries/uC-LIB/lib_str.c **** */
1726:Libraries/uC-LIB/lib_str.c **** /*$PAGE*/
1727:Libraries/uC-LIB/lib_str.c **** CPU_CHAR  *Str_Str_N (const  CPU_CHAR    *pstr,
1728:Libraries/uC-LIB/lib_str.c ****                       const  CPU_CHAR    *pstr_srch,
1729:Libraries/uC-LIB/lib_str.c ****                              CPU_SIZE_T   len_max)
1730:Libraries/uC-LIB/lib_str.c **** {
 1454              		.loc 1 1730 0
 1455              		.cfi_startproc
 1456              		@ args = 0, pretend = 0, frame = 56
 1457              		@ frame_needed = 1, uses_anonymous_args = 0
 1458 06d0 80B5     		push	{r7, lr}
 1459              	.LCFI45:
 1460              		.cfi_def_cfa_offset 8
 1461              		.cfi_offset 14, -4
 1462              		.cfi_offset 7, -8
 1463 06d2 8EB0     		sub	sp, sp, #56
 1464              	.LCFI46:
 1465              		.cfi_def_cfa_offset 64
 1466 06d4 00AF     		add	r7, sp, #0
 1467              	.LCFI47:
 1468              		.cfi_def_cfa_register 7
 1469 06d6 F860     		str	r0, [r7, #12]
 1470 06d8 B960     		str	r1, [r7, #8]
 1471 06da 7A60     		str	r2, [r7, #4]
1731:Libraries/uC-LIB/lib_str.c ****            CPU_SIZE_T    str_len;
1732:Libraries/uC-LIB/lib_str.c ****            CPU_SIZE_T    str_len_srch;
1733:Libraries/uC-LIB/lib_str.c ****            CPU_SIZE_T    len_max_srch;
1734:Libraries/uC-LIB/lib_str.c ****            CPU_SIZE_T    srch_len;
1735:Libraries/uC-LIB/lib_str.c ****            CPU_SIZE_T    srch_ix;
1736:Libraries/uC-LIB/lib_str.c ****            CPU_BOOLEAN   srch_done;
1737:Libraries/uC-LIB/lib_str.c ****            CPU_INT16S    srch_cmp;
1738:Libraries/uC-LIB/lib_str.c ****     const  CPU_CHAR     *pstr_str;
1739:Libraries/uC-LIB/lib_str.c ****     const  CPU_CHAR     *pstr_srch_ix;
1740:Libraries/uC-LIB/lib_str.c **** 
1741:Libraries/uC-LIB/lib_str.c ****                                                                 /* Rtn NULL if str ptr(s) NULL (see
1742:Libraries/uC-LIB/lib_str.c ****     if (pstr == (const CPU_CHAR *)0) {
 1472              		.loc 1 1742 0
 1473 06dc FB68     		ldr	r3, [r7, #12]
 1474 06de 002B     		cmp	r3, #0
 1475 06e0 02D1     		bne	.L87
1743:Libraries/uC-LIB/lib_str.c ****         return ((CPU_CHAR *)0);
 1476              		.loc 1 1743 0
 1477 06e2 4FF00003 		mov	r3, #0
 1478 06e6 6FE0     		b	.L88
 1479              	.L87:
1744:Libraries/uC-LIB/lib_str.c ****     }
1745:Libraries/uC-LIB/lib_str.c ****     if (pstr_srch == (const CPU_CHAR *)0) {
 1480              		.loc 1 1745 0
 1481 06e8 BB68     		ldr	r3, [r7, #8]
 1482 06ea 002B     		cmp	r3, #0
 1483 06ec 02D1     		bne	.L89
1746:Libraries/uC-LIB/lib_str.c ****         return ((CPU_CHAR *)0);
 1484              		.loc 1 1746 0
 1485 06ee 4FF00003 		mov	r3, #0
 1486 06f2 69E0     		b	.L88
 1487              	.L89:
1747:Libraries/uC-LIB/lib_str.c ****     }
1748:Libraries/uC-LIB/lib_str.c **** 
1749:Libraries/uC-LIB/lib_str.c ****     if (len_max == 0) {                                         /* Rtn NULL if srch len = 0    (see
 1488              		.loc 1 1749 0
 1489 06f4 7B68     		ldr	r3, [r7, #4]
 1490 06f6 002B     		cmp	r3, #0
 1491 06f8 02D1     		bne	.L90
1750:Libraries/uC-LIB/lib_str.c ****         return ((CPU_CHAR *)0);
 1492              		.loc 1 1750 0
 1493 06fa 4FF00003 		mov	r3, #0
 1494 06fe 63E0     		b	.L88
 1495              	.L90:
1751:Libraries/uC-LIB/lib_str.c ****     }
1752:Libraries/uC-LIB/lib_str.c **** 
1753:Libraries/uC-LIB/lib_str.c ****                                                                 /* Lim max srch str len (to chk > s
1754:Libraries/uC-LIB/lib_str.c ****     len_max_srch = (len_max <       DEF_INT_CPU_U_MAX_VAL)
 1496              		.loc 1 1754 0
 1497 0700 7B68     		ldr	r3, [r7, #4]
 1498 0702 B3F1FF3F 		cmp	r3, #-1
 1499 0706 03D0     		beq	.L91
 1500              		.loc 1 1754 0 is_stmt 0 discriminator 1
 1501 0708 7B68     		ldr	r3, [r7, #4]
 1502 070a 03F10103 		add	r3, r3, #1
 1503 070e 01E0     		b	.L92
 1504              	.L91:
 1505              		.loc 1 1754 0 discriminator 2
 1506 0710 4FF0FF33 		mov	r3, #-1
 1507              	.L92:
 1508              		.loc 1 1754 0 discriminator 3
 1509 0714 3B63     		str	r3, [r7, #48]
1755:Libraries/uC-LIB/lib_str.c ****                  ? (len_max + 1u) : DEF_INT_CPU_U_MAX_VAL;
1756:Libraries/uC-LIB/lib_str.c **** 
1757:Libraries/uC-LIB/lib_str.c ****     str_len      = Str_Len_N(pstr,      len_max);
 1510              		.loc 1 1757 0 is_stmt 1 discriminator 3
 1511 0716 F868     		ldr	r0, [r7, #12]
 1512 0718 7968     		ldr	r1, [r7, #4]
 1513 071a FFF7FEFF 		bl	Str_Len_N
 1514 071e F862     		str	r0, [r7, #44]
1758:Libraries/uC-LIB/lib_str.c ****     str_len_srch = Str_Len_N(pstr_srch, len_max_srch);
 1515              		.loc 1 1758 0 discriminator 3
 1516 0720 B868     		ldr	r0, [r7, #8]
 1517 0722 396B     		ldr	r1, [r7, #48]
 1518 0724 FFF7FEFF 		bl	Str_Len_N
 1519 0728 B862     		str	r0, [r7, #40]
1759:Libraries/uC-LIB/lib_str.c ****     if (str_len_srch == 0) {                                    /* Rtn ptr to str if srch str len =
 1520              		.loc 1 1759 0 discriminator 3
 1521 072a BB6A     		ldr	r3, [r7, #40]
 1522 072c 002B     		cmp	r3, #0
 1523 072e 01D1     		bne	.L93
1760:Libraries/uC-LIB/lib_str.c ****         return ((CPU_CHAR *)pstr);
 1524              		.loc 1 1760 0
 1525 0730 FB68     		ldr	r3, [r7, #12]
 1526 0732 49E0     		b	.L88
 1527              	.L93:
1761:Libraries/uC-LIB/lib_str.c ****     }
1762:Libraries/uC-LIB/lib_str.c ****     if (str_len_srch > str_len) {                               /* Rtn NULL if srch str len > str l
 1528              		.loc 1 1762 0
 1529 0734 BA6A     		ldr	r2, [r7, #40]
 1530 0736 FB6A     		ldr	r3, [r7, #44]
 1531 0738 9A42     		cmp	r2, r3
 1532 073a 02D9     		bls	.L94
1763:Libraries/uC-LIB/lib_str.c ****         return ((CPU_CHAR *)0);
 1533              		.loc 1 1763 0
 1534 073c 4FF00003 		mov	r3, #0
 1535 0740 42E0     		b	.L88
 1536              	.L94:
1764:Libraries/uC-LIB/lib_str.c ****     }
1765:Libraries/uC-LIB/lib_str.c ****                                                                 /* Rtn NULL if NULL ptr found      
1766:Libraries/uC-LIB/lib_str.c ****     pstr_str = pstr      + str_len;
 1537              		.loc 1 1766 0
 1538 0742 FA68     		ldr	r2, [r7, #12]
 1539 0744 FB6A     		ldr	r3, [r7, #44]
 1540 0746 D318     		adds	r3, r2, r3
 1541 0748 7B62     		str	r3, [r7, #36]
1767:Libraries/uC-LIB/lib_str.c ****     if (pstr_str == (const CPU_CHAR *)0) {
 1542              		.loc 1 1767 0
 1543 074a 7B6A     		ldr	r3, [r7, #36]
 1544 074c 002B     		cmp	r3, #0
 1545 074e 02D1     		bne	.L95
1768:Libraries/uC-LIB/lib_str.c ****         return ((CPU_CHAR *)0);
 1546              		.loc 1 1768 0
 1547 0750 4FF00003 		mov	r3, #0
 1548 0754 38E0     		b	.L88
 1549              	.L95:
1769:Libraries/uC-LIB/lib_str.c ****     }
1770:Libraries/uC-LIB/lib_str.c ****     pstr_str = pstr_srch + str_len_srch;
 1550              		.loc 1 1770 0
 1551 0756 BA68     		ldr	r2, [r7, #8]
 1552 0758 BB6A     		ldr	r3, [r7, #40]
 1553 075a D318     		adds	r3, r2, r3
 1554 075c 7B62     		str	r3, [r7, #36]
1771:Libraries/uC-LIB/lib_str.c ****     if (pstr_str == (const CPU_CHAR *)0) {
 1555              		.loc 1 1771 0
 1556 075e 7B6A     		ldr	r3, [r7, #36]
 1557 0760 002B     		cmp	r3, #0
 1558 0762 02D1     		bne	.L96
1772:Libraries/uC-LIB/lib_str.c ****         return ((CPU_CHAR *)0);
 1559              		.loc 1 1772 0
 1560 0764 4FF00003 		mov	r3, #0
 1561 0768 2EE0     		b	.L88
 1562              	.L96:
1773:Libraries/uC-LIB/lib_str.c ****     }
1774:Libraries/uC-LIB/lib_str.c **** 
1775:Libraries/uC-LIB/lib_str.c **** 
1776:Libraries/uC-LIB/lib_str.c ****     srch_len  = str_len - str_len_srch;                         /* Calc srch len (see Note #3e2).  
 1563              		.loc 1 1776 0
 1564 076a FA6A     		ldr	r2, [r7, #44]
 1565 076c BB6A     		ldr	r3, [r7, #40]
 1566 076e D31A     		subs	r3, r2, r3
 1567 0770 3B62     		str	r3, [r7, #32]
1777:Libraries/uC-LIB/lib_str.c ****     srch_ix   = 0u;
 1568              		.loc 1 1777 0
 1569 0772 4FF00003 		mov	r3, #0
 1570 0776 7B63     		str	r3, [r7, #52]
1778:Libraries/uC-LIB/lib_str.c ****     srch_done = DEF_NO;
 1571              		.loc 1 1778 0
 1572 0778 4FF00003 		mov	r3, #0
 1573 077c FB77     		strb	r3, [r7, #31]
 1574              	.L98:
1779:Libraries/uC-LIB/lib_str.c **** 
1780:Libraries/uC-LIB/lib_str.c ****     do {
1781:Libraries/uC-LIB/lib_str.c ****         pstr_srch_ix = (const CPU_CHAR *)(pstr + srch_ix);
 1575              		.loc 1 1781 0 discriminator 1
 1576 077e FA68     		ldr	r2, [r7, #12]
 1577 0780 7B6B     		ldr	r3, [r7, #52]
 1578 0782 D318     		adds	r3, r2, r3
 1579 0784 BB61     		str	r3, [r7, #24]
1782:Libraries/uC-LIB/lib_str.c ****         srch_cmp     =  Str_Cmp_N(pstr_srch_ix, pstr_srch, str_len_srch);
 1580              		.loc 1 1782 0 discriminator 1
 1581 0786 B869     		ldr	r0, [r7, #24]
 1582 0788 B968     		ldr	r1, [r7, #8]
 1583 078a BA6A     		ldr	r2, [r7, #40]
 1584 078c FFF7FEFF 		bl	Str_Cmp_N
 1585 0790 0346     		mov	r3, r0
 1586 0792 FB82     		strh	r3, [r7, #22]	@ movhi
1783:Libraries/uC-LIB/lib_str.c ****         srch_done    = (srch_cmp == 0) ? DEF_YES : DEF_NO;
 1587              		.loc 1 1783 0 discriminator 1
 1588 0794 B7F91630 		ldrsh	r3, [r7, #22]
 1589 0798 002B     		cmp	r3, #0
 1590 079a 14BF     		ite	ne
 1591 079c 0023     		movne	r3, #0
 1592 079e 0123     		moveq	r3, #1
 1593 07a0 FB77     		strb	r3, [r7, #31]
1784:Libraries/uC-LIB/lib_str.c ****         srch_ix++;
 1594              		.loc 1 1784 0 discriminator 1
 1595 07a2 7B6B     		ldr	r3, [r7, #52]
 1596 07a4 03F10103 		add	r3, r3, #1
 1597 07a8 7B63     		str	r3, [r7, #52]
1785:Libraries/uC-LIB/lib_str.c ****     } while ((srch_done == DEF_NO) && (srch_ix <= srch_len));
 1598              		.loc 1 1785 0 discriminator 1
 1599 07aa FB7F     		ldrb	r3, [r7, #31]	@ zero_extendqisi2
 1600 07ac 002B     		cmp	r3, #0
 1601 07ae 03D1     		bne	.L97
 1602 07b0 7A6B     		ldr	r2, [r7, #52]
 1603 07b2 3B6A     		ldr	r3, [r7, #32]
 1604 07b4 9A42     		cmp	r2, r3
 1605 07b6 E2D9     		bls	.L98
 1606              	.L97:
1786:Libraries/uC-LIB/lib_str.c **** 
1787:Libraries/uC-LIB/lib_str.c **** 
1788:Libraries/uC-LIB/lib_str.c ****     if (srch_cmp != 0) {                                        /* Rtn NULL if srch str NOT found (
 1607              		.loc 1 1788 0
 1608 07b8 B7F91630 		ldrsh	r3, [r7, #22]
 1609 07bc 002B     		cmp	r3, #0
 1610 07be 02D0     		beq	.L99
1789:Libraries/uC-LIB/lib_str.c ****         return ((CPU_CHAR *)0);
 1611              		.loc 1 1789 0
 1612 07c0 4FF00003 		mov	r3, #0
 1613 07c4 00E0     		b	.L88
 1614              	.L99:
1790:Libraries/uC-LIB/lib_str.c ****     }
1791:Libraries/uC-LIB/lib_str.c **** 
1792:Libraries/uC-LIB/lib_str.c ****     return ((CPU_CHAR *)pstr_srch_ix);                          /* Else rtn ptr to found srch str (
 1615              		.loc 1 1792 0
 1616 07c6 BB69     		ldr	r3, [r7, #24]
 1617              	.L88:
1793:Libraries/uC-LIB/lib_str.c **** }
 1618              		.loc 1 1793 0
 1619 07c8 1846     		mov	r0, r3
 1620 07ca 07F13807 		add	r7, r7, #56
 1621 07ce BD46     		mov	sp, r7
 1622 07d0 80BD     		pop	{r7, pc}
 1623              		.cfi_endproc
 1624              	.LFE15:
 1626 07d2 00BF     		.align	2
 1627              		.global	Str_FmtNbr_Int32U
 1628              		.thumb
 1629              		.thumb_func
 1631              	Str_FmtNbr_Int32U:
 1632              	.LFB16:
1794:Libraries/uC-LIB/lib_str.c **** 
1795:Libraries/uC-LIB/lib_str.c **** 
1796:Libraries/uC-LIB/lib_str.c **** /*$PAGE*/
1797:Libraries/uC-LIB/lib_str.c **** /*
1798:Libraries/uC-LIB/lib_str.c **** ***************************************************************************************************
1799:Libraries/uC-LIB/lib_str.c **** *                                         Str_FmtNbr_Int32U()
1800:Libraries/uC-LIB/lib_str.c **** *
1801:Libraries/uC-LIB/lib_str.c **** * Description : Format 32-bit unsigned integer into a multi-digit character string.
1802:Libraries/uC-LIB/lib_str.c **** *
1803:Libraries/uC-LIB/lib_str.c **** * Argument(s) : nbr             Number           to format.
1804:Libraries/uC-LIB/lib_str.c **** *
1805:Libraries/uC-LIB/lib_str.c **** *               nbr_dig         Number of digits to format (see Note #1).
1806:Libraries/uC-LIB/lib_str.c **** *
1807:Libraries/uC-LIB/lib_str.c **** *                               The following may be used to specify the number of digits to format
1808:Libraries/uC-LIB/lib_str.c **** *
1809:Libraries/uC-LIB/lib_str.c **** *                                   DEF_INT_32U_NBR_DIG_MIN     Minimum number of 32-bit unsigned d
1810:Libraries/uC-LIB/lib_str.c **** *                                   DEF_INT_32U_NBR_DIG_MAX     Maximum number of 32-bit unsigned d
1811:Libraries/uC-LIB/lib_str.c **** *
1812:Libraries/uC-LIB/lib_str.c **** *               nbr_base        Base   of number to format (see Note #2).
1813:Libraries/uC-LIB/lib_str.c **** *
1814:Libraries/uC-LIB/lib_str.c **** *                               The following may be used to specify the number base :
1815:Libraries/uC-LIB/lib_str.c **** *
1816:Libraries/uC-LIB/lib_str.c **** *                                   DEF_NBR_BASE_BIN            Base  2
1817:Libraries/uC-LIB/lib_str.c **** *                                   DEF_NBR_BASE_OCT            Base  8
1818:Libraries/uC-LIB/lib_str.c **** *                                   DEF_NBR_BASE_DEC            Base 10
1819:Libraries/uC-LIB/lib_str.c **** *                                   DEF_NBR_BASE_HEX            Base 16
1820:Libraries/uC-LIB/lib_str.c **** *
1821:Libraries/uC-LIB/lib_str.c **** *               lead_char       Prepend leading character  (see Note #3) :
1822:Libraries/uC-LIB/lib_str.c **** *
1823:Libraries/uC-LIB/lib_str.c **** *                                   '\0'                    Do NOT prepend leading character to str
1824:Libraries/uC-LIB/lib_str.c **** *                                     Printable character          Prepend leading character to str
1825:Libraries/uC-LIB/lib_str.c **** *                                   Unprintable character   Format invalid string (see Note #6).
1826:Libraries/uC-LIB/lib_str.c **** *
1827:Libraries/uC-LIB/lib_str.c **** *               lower_case      Format alphabetic characters (if any) in lower case :
1828:Libraries/uC-LIB/lib_str.c **** *
1829:Libraries/uC-LIB/lib_str.c **** *                                   DEF_NO          Format alphabetic characters in upper case.
1830:Libraries/uC-LIB/lib_str.c **** *                                   DEF_YES         Format alphabetic characters in lower case.
1831:Libraries/uC-LIB/lib_str.c **** *
1832:Libraries/uC-LIB/lib_str.c **** *               nul             Append terminating NULL-character (see Note #4) :
1833:Libraries/uC-LIB/lib_str.c **** *
1834:Libraries/uC-LIB/lib_str.c **** *                                   DEF_NO          Do NOT append terminating NULL-character to str
1835:Libraries/uC-LIB/lib_str.c **** *                                   DEF_YES                Append terminating NULL-character to str
1836:Libraries/uC-LIB/lib_str.c **** *
1837:Libraries/uC-LIB/lib_str.c **** *               pstr            Pointer to character array to return formatted number string (see N
1838:Libraries/uC-LIB/lib_str.c **** *
1839:Libraries/uC-LIB/lib_str.c **** * Return(s)   : Pointer to formatted string, if NO error(s).
1840:Libraries/uC-LIB/lib_str.c **** *
1841:Libraries/uC-LIB/lib_str.c **** *               Pointer to NULL,             otherwise.
1842:Libraries/uC-LIB/lib_str.c **** *
1843:Libraries/uC-LIB/lib_str.c **** * Caller(s)   : Application.
1844:Libraries/uC-LIB/lib_str.c **** *
1845:Libraries/uC-LIB/lib_str.c **** * Note(s)     : (1) (a) If the number of digits to format ('nbr_dig') is zero; then NO formatting 
1846:Libraries/uC-LIB/lib_str.c **** *                       is performed except possible NULL-termination of the string (see Note #4).
1847:Libraries/uC-LIB/lib_str.c **** *
1848:Libraries/uC-LIB/lib_str.c **** *                           Example :
1849:Libraries/uC-LIB/lib_str.c **** *
1850:Libraries/uC-LIB/lib_str.c **** *                               nbr      = 23456
1851:Libraries/uC-LIB/lib_str.c **** *                               nbr_dig  = 0
1852:Libraries/uC-LIB/lib_str.c **** *                               nbr_base = 10
1853:Libraries/uC-LIB/lib_str.c **** *
1854:Libraries/uC-LIB/lib_str.c **** *                               pstr     = ""                   See Note #6a
1855:Libraries/uC-LIB/lib_str.c **** *
1856:Libraries/uC-LIB/lib_str.c **** *                   (b) If the number of digits to format ('nbr_dig') is less than the number of 
1857:Libraries/uC-LIB/lib_str.c **** *                       significant integer digits of the number to format ('nbr'); then an invalid
1858:Libraries/uC-LIB/lib_str.c **** *                       string is formatted instead of truncating any significant integer digits.
1859:Libraries/uC-LIB/lib_str.c **** *
1860:Libraries/uC-LIB/lib_str.c **** *                           Example :
1861:Libraries/uC-LIB/lib_str.c **** *
1862:Libraries/uC-LIB/lib_str.c **** *                               nbr      = 23456
1863:Libraries/uC-LIB/lib_str.c **** *                               nbr_dig  = 3
1864:Libraries/uC-LIB/lib_str.c **** *                               nbr_base = 10
1865:Libraries/uC-LIB/lib_str.c **** *
1866:Libraries/uC-LIB/lib_str.c **** *                               pstr     = "???"                See Note #6b
1867:Libraries/uC-LIB/lib_str.c **** *
1868:Libraries/uC-LIB/lib_str.c **** *               (2) The number's base MUST be between 2 & 36, inclusive.
1869:Libraries/uC-LIB/lib_str.c **** *$PAGE*
1870:Libraries/uC-LIB/lib_str.c **** *               (3) Leading character option prepends leading characters prior to the first non-zer
1871:Libraries/uC-LIB/lib_str.c **** *
1872:Libraries/uC-LIB/lib_str.c **** *                   (a) (1) Leading character MUST be a printable ASCII character.
1873:Libraries/uC-LIB/lib_str.c **** *
1874:Libraries/uC-LIB/lib_str.c **** *                       (2) (A) Leading character MUST NOT be a number base digit, ...
1875:Libraries/uC-LIB/lib_str.c **** *                           (B) with the exception of '0'.
1876:Libraries/uC-LIB/lib_str.c **** *
1877:Libraries/uC-LIB/lib_str.c **** *                   (b) The number of leading characters is such that the total number of significa
1878:Libraries/uC-LIB/lib_str.c **** *                       integer digits plus the number of leading characters is equal to the reques
1879:Libraries/uC-LIB/lib_str.c **** *                       number of integer digits to format ('nbr_dig').
1880:Libraries/uC-LIB/lib_str.c **** *
1881:Libraries/uC-LIB/lib_str.c **** *                           Example :
1882:Libraries/uC-LIB/lib_str.c **** *
1883:Libraries/uC-LIB/lib_str.c **** *                               nbr       = 23456
1884:Libraries/uC-LIB/lib_str.c **** *                               nbr_dig   = 7
1885:Libraries/uC-LIB/lib_str.c **** *                               nbr_base  = 10
1886:Libraries/uC-LIB/lib_str.c **** *                               lead_char = ' '
1887:Libraries/uC-LIB/lib_str.c **** *
1888:Libraries/uC-LIB/lib_str.c **** *                               pstr      = "  23456"
1889:Libraries/uC-LIB/lib_str.c **** *
1890:Libraries/uC-LIB/lib_str.c **** *                   (c) (1) If the value of the number to format is     zero  ...
1891:Libraries/uC-LIB/lib_str.c **** *                       (2) ... & the number of digits to format is non-zero, ...
1892:Libraries/uC-LIB/lib_str.c **** *                       (3) ... but NO leading character available;           ...
1893:Libraries/uC-LIB/lib_str.c **** *                       (4) ... then one digit of '0' value is formatted.
1894:Libraries/uC-LIB/lib_str.c **** *
1895:Libraries/uC-LIB/lib_str.c **** *                           This is NOT a leading character; but a single integer digit of '0' valu
1896:Libraries/uC-LIB/lib_str.c **** *
1897:Libraries/uC-LIB/lib_str.c **** *               (4) (a) NULL-character terminate option DISABLED prevents overwriting previous char
1898:Libraries/uC-LIB/lib_str.c **** *                       array formatting.
1899:Libraries/uC-LIB/lib_str.c **** *
1900:Libraries/uC-LIB/lib_str.c **** *                   (b) WARNING: Unless 'pstr' character array is pre-/post-terminated, NULL-charac
1901:Libraries/uC-LIB/lib_str.c **** *                       terminate option DISABLED will cause character string run-on.
1902:Libraries/uC-LIB/lib_str.c **** *
1903:Libraries/uC-LIB/lib_str.c **** *               (5) (a) Format buffer size NOT validated; buffer overruns MUST be prevented by call
1904:Libraries/uC-LIB/lib_str.c **** *
1905:Libraries/uC-LIB/lib_str.c **** *                   (b) To prevent character buffer overrun :
1906:Libraries/uC-LIB/lib_str.c **** *
1907:Libraries/uC-LIB/lib_str.c **** *                           Character array size MUST be  >=  ('nbr_dig'          +
1908:Libraries/uC-LIB/lib_str.c **** *                                                               1 'NUL' terminator)  characters
1909:Libraries/uC-LIB/lib_str.c **** *
1910:Libraries/uC-LIB/lib_str.c **** *               (6) For any unsuccessful string format or error(s), an invalid string of question m
1911:Libraries/uC-LIB/lib_str.c **** *                   ('?') will be formatted, where the number of question marks is determined by th
1912:Libraries/uC-LIB/lib_str.c **** *                   number of digits to format ('nbr_dig') :
1913:Libraries/uC-LIB/lib_str.c **** *                   
1914:Libraries/uC-LIB/lib_str.c **** *                      Invalid string's     {  (a)   0 (NULL string)  ,  if 'nbr_dig' = 0
1915:Libraries/uC-LIB/lib_str.c **** *                          number of     =  {
1916:Libraries/uC-LIB/lib_str.c **** *                       question marks      {  (b)  'nbr_dig'         ,  if 'nbr_dig' > 0
1917:Libraries/uC-LIB/lib_str.c **** *
1918:Libraries/uC-LIB/lib_str.c **** ***************************************************************************************************
1919:Libraries/uC-LIB/lib_str.c **** */
1920:Libraries/uC-LIB/lib_str.c **** 
1921:Libraries/uC-LIB/lib_str.c **** CPU_CHAR  *Str_FmtNbr_Int32U (CPU_INT32U    nbr,
1922:Libraries/uC-LIB/lib_str.c ****                               CPU_INT08U    nbr_dig,
1923:Libraries/uC-LIB/lib_str.c ****                               CPU_INT08U    nbr_base,
1924:Libraries/uC-LIB/lib_str.c ****                               CPU_CHAR      lead_char,
1925:Libraries/uC-LIB/lib_str.c ****                               CPU_BOOLEAN   lower_case,
1926:Libraries/uC-LIB/lib_str.c ****                               CPU_BOOLEAN   nul,
1927:Libraries/uC-LIB/lib_str.c ****                               CPU_CHAR     *pstr)
1928:Libraries/uC-LIB/lib_str.c **** {
 1633              		.loc 1 1928 0
 1634              		.cfi_startproc
 1635              		@ args = 12, pretend = 0, frame = 16
 1636              		@ frame_needed = 1, uses_anonymous_args = 0
 1637 07d4 80B5     		push	{r7, lr}
 1638              	.LCFI48:
 1639              		.cfi_def_cfa_offset 8
 1640              		.cfi_offset 14, -4
 1641              		.cfi_offset 7, -8
 1642 07d6 88B0     		sub	sp, sp, #32
 1643              	.LCFI49:
 1644              		.cfi_def_cfa_offset 40
 1645 07d8 04AF     		add	r7, sp, #16
 1646              	.LCFI50:
 1647              		.cfi_def_cfa 7, 24
 1648 07da 7860     		str	r0, [r7, #4]
 1649 07dc F970     		strb	r1, [r7, #3]
 1650 07de BA70     		strb	r2, [r7, #2]
 1651 07e0 7B70     		strb	r3, [r7, #1]
1929:Libraries/uC-LIB/lib_str.c ****     CPU_CHAR  *pstr_fmt;
1930:Libraries/uC-LIB/lib_str.c **** 
1931:Libraries/uC-LIB/lib_str.c **** 
1932:Libraries/uC-LIB/lib_str.c ****     pstr_fmt = Str_FmtNbr_Int32(nbr,                            /* Fmt unsigned int into str.      
 1652              		.loc 1 1932 0
 1653 07e2 FA78     		ldrb	r2, [r7, #3]	@ zero_extendqisi2
 1654 07e4 BB78     		ldrb	r3, [r7, #2]	@ zero_extendqisi2
 1655 07e6 7978     		ldrb	r1, [r7, #1]	@ zero_extendqisi2
 1656 07e8 0091     		str	r1, [sp, #0]
 1657 07ea 397E     		ldrb	r1, [r7, #24]	@ zero_extendqisi2
 1658 07ec 0191     		str	r1, [sp, #4]
 1659 07ee 397F     		ldrb	r1, [r7, #28]	@ zero_extendqisi2
 1660 07f0 0291     		str	r1, [sp, #8]
 1661 07f2 396A     		ldr	r1, [r7, #32]
 1662 07f4 0391     		str	r1, [sp, #12]
 1663 07f6 7868     		ldr	r0, [r7, #4]
 1664 07f8 1146     		mov	r1, r2
 1665 07fa 1A46     		mov	r2, r3
 1666 07fc 4FF00003 		mov	r3, #0
 1667 0800 00F080F8 		bl	Str_FmtNbr_Int32
 1668 0804 F860     		str	r0, [r7, #12]
1933:Libraries/uC-LIB/lib_str.c ****                                 nbr_dig,
1934:Libraries/uC-LIB/lib_str.c ****                                 nbr_base,
1935:Libraries/uC-LIB/lib_str.c ****                                 DEF_NO,
1936:Libraries/uC-LIB/lib_str.c ****                                 lead_char,
1937:Libraries/uC-LIB/lib_str.c ****                                 lower_case,
1938:Libraries/uC-LIB/lib_str.c ****                                 nul,
1939:Libraries/uC-LIB/lib_str.c ****                                 pstr);
1940:Libraries/uC-LIB/lib_str.c **** 
1941:Libraries/uC-LIB/lib_str.c ****     return (pstr_fmt);
 1669              		.loc 1 1941 0
 1670 0806 FB68     		ldr	r3, [r7, #12]
1942:Libraries/uC-LIB/lib_str.c **** }
 1671              		.loc 1 1942 0
 1672 0808 1846     		mov	r0, r3
 1673 080a 07F11007 		add	r7, r7, #16
 1674 080e BD46     		mov	sp, r7
 1675 0810 80BD     		pop	{r7, pc}
 1676              		.cfi_endproc
 1677              	.LFE16:
 1679 0812 00BF     		.align	2
 1680              		.global	Str_FmtNbr_Int32S
 1681              		.thumb
 1682              		.thumb_func
 1684              	Str_FmtNbr_Int32S:
 1685              	.LFB17:
1943:Libraries/uC-LIB/lib_str.c **** 
1944:Libraries/uC-LIB/lib_str.c **** 
1945:Libraries/uC-LIB/lib_str.c **** /*$PAGE*/
1946:Libraries/uC-LIB/lib_str.c **** /*
1947:Libraries/uC-LIB/lib_str.c **** ***************************************************************************************************
1948:Libraries/uC-LIB/lib_str.c **** *                                         Str_FmtNbr_Int32S()
1949:Libraries/uC-LIB/lib_str.c **** *
1950:Libraries/uC-LIB/lib_str.c **** * Description : Format 32-bit signed integer into a multi-digit character string.
1951:Libraries/uC-LIB/lib_str.c **** *
1952:Libraries/uC-LIB/lib_str.c **** * Argument(s) : nbr             Number           to format.
1953:Libraries/uC-LIB/lib_str.c **** *
1954:Libraries/uC-LIB/lib_str.c **** *               nbr_dig         Number of digits to format (see Note #1).
1955:Libraries/uC-LIB/lib_str.c **** *
1956:Libraries/uC-LIB/lib_str.c **** *                               The following may be used to specify the number of digits to format
1957:Libraries/uC-LIB/lib_str.c **** *
1958:Libraries/uC-LIB/lib_str.c **** *                                   DEF_INT_32S_NBR_DIG_MIN + 1     Minimum number of 32-bit signed
1959:Libraries/uC-LIB/lib_str.c **** *                                   DEF_INT_32S_NBR_DIG_MAX + 1     Maximum number of 32-bit signed
1960:Libraries/uC-LIB/lib_str.c **** *                                                                   (plus 1 digit for possible nega
1961:Libraries/uC-LIB/lib_str.c **** *
1962:Libraries/uC-LIB/lib_str.c **** *               nbr_base        Base   of number to format (see Note #2).
1963:Libraries/uC-LIB/lib_str.c **** *
1964:Libraries/uC-LIB/lib_str.c **** *                               The following may be used to specify the number base :
1965:Libraries/uC-LIB/lib_str.c **** *
1966:Libraries/uC-LIB/lib_str.c **** *                                   DEF_NBR_BASE_BIN            Base  2
1967:Libraries/uC-LIB/lib_str.c **** *                                   DEF_NBR_BASE_OCT            Base  8
1968:Libraries/uC-LIB/lib_str.c **** *                                   DEF_NBR_BASE_DEC            Base 10
1969:Libraries/uC-LIB/lib_str.c **** *                                   DEF_NBR_BASE_HEX            Base 16
1970:Libraries/uC-LIB/lib_str.c **** *
1971:Libraries/uC-LIB/lib_str.c **** *               lead_char       Prepend leading character  (see Note #3) :
1972:Libraries/uC-LIB/lib_str.c **** *
1973:Libraries/uC-LIB/lib_str.c **** *                                   '\0'                    Do NOT prepend leading character to str
1974:Libraries/uC-LIB/lib_str.c **** *                                     Printable character          Prepend leading character to str
1975:Libraries/uC-LIB/lib_str.c **** *                                   Unprintable character   Format invalid string (see Note #6).
1976:Libraries/uC-LIB/lib_str.c **** *
1977:Libraries/uC-LIB/lib_str.c **** *               lower_case      Format alphabetic characters (if any) in lower case :
1978:Libraries/uC-LIB/lib_str.c **** *
1979:Libraries/uC-LIB/lib_str.c **** *                                   DEF_NO          Format alphabetic characters in upper case.
1980:Libraries/uC-LIB/lib_str.c **** *                                   DEF_YES         Format alphabetic characters in lower case.
1981:Libraries/uC-LIB/lib_str.c **** *
1982:Libraries/uC-LIB/lib_str.c **** *               nul             Append terminating NULL-character (see Note #4) :
1983:Libraries/uC-LIB/lib_str.c **** *
1984:Libraries/uC-LIB/lib_str.c **** *                                   DEF_NO          Do NOT append terminating NULL-character to str
1985:Libraries/uC-LIB/lib_str.c **** *                                   DEF_YES                Append terminating NULL-character to str
1986:Libraries/uC-LIB/lib_str.c **** *
1987:Libraries/uC-LIB/lib_str.c **** *               pstr            Pointer to character array to return formatted number string (see N
1988:Libraries/uC-LIB/lib_str.c **** *
1989:Libraries/uC-LIB/lib_str.c **** * Return(s)   : Pointer to formatted string, if NO error(s).
1990:Libraries/uC-LIB/lib_str.c **** *
1991:Libraries/uC-LIB/lib_str.c **** *               Pointer to NULL,             otherwise.
1992:Libraries/uC-LIB/lib_str.c **** *
1993:Libraries/uC-LIB/lib_str.c **** * Caller(s)   : Application.
1994:Libraries/uC-LIB/lib_str.c **** *
1995:Libraries/uC-LIB/lib_str.c **** * Note(s)     : (1) (a) If the number of digits to format ('nbr_dig') is zero; then NO formatting 
1996:Libraries/uC-LIB/lib_str.c **** *                       is performed except possible NULL-termination of the string (see Note #4).
1997:Libraries/uC-LIB/lib_str.c **** *
1998:Libraries/uC-LIB/lib_str.c **** *                           Example :
1999:Libraries/uC-LIB/lib_str.c **** *
2000:Libraries/uC-LIB/lib_str.c **** *                               nbr      = -23456
2001:Libraries/uC-LIB/lib_str.c **** *                               nbr_dig  =  0
2002:Libraries/uC-LIB/lib_str.c **** *                               nbr_base = 10
2003:Libraries/uC-LIB/lib_str.c **** *
2004:Libraries/uC-LIB/lib_str.c **** *                               pstr     = ""                   See Note #6a
2005:Libraries/uC-LIB/lib_str.c **** *
2006:Libraries/uC-LIB/lib_str.c **** *                   (b) If the number of digits to format ('nbr_dig') is less than the number of 
2007:Libraries/uC-LIB/lib_str.c **** *                       significant integer digits of the number to format ('nbr'); then an invalid
2008:Libraries/uC-LIB/lib_str.c **** *                       string is formatted instead of truncating any significant integer digits.
2009:Libraries/uC-LIB/lib_str.c **** *
2010:Libraries/uC-LIB/lib_str.c **** *                           Example :
2011:Libraries/uC-LIB/lib_str.c **** *
2012:Libraries/uC-LIB/lib_str.c **** *                               nbr      = 23456
2013:Libraries/uC-LIB/lib_str.c **** *                               nbr_dig  = 3
2014:Libraries/uC-LIB/lib_str.c **** *                               nbr_base = 10
2015:Libraries/uC-LIB/lib_str.c **** *
2016:Libraries/uC-LIB/lib_str.c **** *                               pstr     = "???"                See Note #6b
2017:Libraries/uC-LIB/lib_str.c **** *
2018:Libraries/uC-LIB/lib_str.c **** *                   (c) If the number to format ('nbr') is negative but the number of digits to for
2019:Libraries/uC-LIB/lib_str.c **** *                       ('nbr_dig') is equal to the number of significant integer digits of the num
2020:Libraries/uC-LIB/lib_str.c **** *                       to format ('nbr'); then an invalid string is formatted instead of truncatin
2021:Libraries/uC-LIB/lib_str.c **** *                       the negative sign.
2022:Libraries/uC-LIB/lib_str.c **** *
2023:Libraries/uC-LIB/lib_str.c **** *                           Example :
2024:Libraries/uC-LIB/lib_str.c **** *
2025:Libraries/uC-LIB/lib_str.c **** *                               nbr      = -23456
2026:Libraries/uC-LIB/lib_str.c **** *                               nbr_dig  =  5
2027:Libraries/uC-LIB/lib_str.c **** *                               nbr_base = 10
2028:Libraries/uC-LIB/lib_str.c **** *
2029:Libraries/uC-LIB/lib_str.c **** *                               pstr     = "?????"              See Note #6b
2030:Libraries/uC-LIB/lib_str.c **** *
2031:Libraries/uC-LIB/lib_str.c **** *               (2) The number's base MUST be between 2 & 36, inclusive.
2032:Libraries/uC-LIB/lib_str.c **** *$PAGE*
2033:Libraries/uC-LIB/lib_str.c **** *               (3) Leading character option prepends leading characters prior to the first non-zer
2034:Libraries/uC-LIB/lib_str.c **** *
2035:Libraries/uC-LIB/lib_str.c **** *                   (a) (1) Leading character MUST be a printable ASCII character.
2036:Libraries/uC-LIB/lib_str.c **** *
2037:Libraries/uC-LIB/lib_str.c **** *                       (2) (A) Leading character MUST NOT be a number base digit, ...
2038:Libraries/uC-LIB/lib_str.c **** *                           (B) with the exception of '0'.
2039:Libraries/uC-LIB/lib_str.c **** *
2040:Libraries/uC-LIB/lib_str.c **** *                   (b) (1) The number of leading characters is such that the total number of signi
2041:Libraries/uC-LIB/lib_str.c **** *                           integer digits plus the number of leading characters plus possible nega
2042:Libraries/uC-LIB/lib_str.c **** *                           sign character is equal to the requested number of integer digits to fo
2043:Libraries/uC-LIB/lib_str.c **** *                           ('nbr_dig').
2044:Libraries/uC-LIB/lib_str.c **** *
2045:Libraries/uC-LIB/lib_str.c **** *                               Examples :
2046:Libraries/uC-LIB/lib_str.c **** *
2047:Libraries/uC-LIB/lib_str.c **** *                                   nbr       = 23456
2048:Libraries/uC-LIB/lib_str.c **** *                                   nbr_dig   = 7
2049:Libraries/uC-LIB/lib_str.c **** *                                   nbr_base  = 10
2050:Libraries/uC-LIB/lib_str.c **** *                                   lead_char = ' '
2051:Libraries/uC-LIB/lib_str.c **** *
2052:Libraries/uC-LIB/lib_str.c **** *                                   pstr      = "  23456"
2053:Libraries/uC-LIB/lib_str.c **** *
2054:Libraries/uC-LIB/lib_str.c **** *
2055:Libraries/uC-LIB/lib_str.c **** *                                   nbr       = -23456
2056:Libraries/uC-LIB/lib_str.c **** *                                   nbr_dig   =  7
2057:Libraries/uC-LIB/lib_str.c **** *                                   nbr_base  = 10
2058:Libraries/uC-LIB/lib_str.c **** *                                   lead_char = ' '
2059:Libraries/uC-LIB/lib_str.c **** *
2060:Libraries/uC-LIB/lib_str.c **** *                                   pstr      = " -23456"
2061:Libraries/uC-LIB/lib_str.c **** *
2062:Libraries/uC-LIB/lib_str.c **** *                       (2) (A) If the number to format ('nbr') is negative AND the leading charact
2063:Libraries/uC-LIB/lib_str.c **** *                               ('lead_char') is     a '0' digit; then the negative sign character 
2064:Libraries/uC-LIB/lib_str.c **** *                               prefixes all leading characters prior to the formatted number.
2065:Libraries/uC-LIB/lib_str.c **** *
2066:Libraries/uC-LIB/lib_str.c **** *                                   Examples :
2067:Libraries/uC-LIB/lib_str.c **** *
2068:Libraries/uC-LIB/lib_str.c **** *                                       nbr        = -23456
2069:Libraries/uC-LIB/lib_str.c **** *                                       nbr_dig    =  8
2070:Libraries/uC-LIB/lib_str.c **** *                                       nbr_base   = 10
2071:Libraries/uC-LIB/lib_str.c **** *                                       lead_char  = '0'
2072:Libraries/uC-LIB/lib_str.c **** *
2073:Libraries/uC-LIB/lib_str.c **** *                                       pstr       = "-0023456"
2074:Libraries/uC-LIB/lib_str.c **** *
2075:Libraries/uC-LIB/lib_str.c **** *
2076:Libraries/uC-LIB/lib_str.c **** *                                       nbr        = -43981
2077:Libraries/uC-LIB/lib_str.c **** *                                       nbr_dig    =  8
2078:Libraries/uC-LIB/lib_str.c **** *                                       nbr_base   = 16
2079:Libraries/uC-LIB/lib_str.c **** *                                       lead_char  = '0'
2080:Libraries/uC-LIB/lib_str.c **** *                                       lower_case = DEF_NO
2081:Libraries/uC-LIB/lib_str.c **** *
2082:Libraries/uC-LIB/lib_str.c **** *                                       pstr       = "-000ABCD"
2083:Libraries/uC-LIB/lib_str.c **** *
2084:Libraries/uC-LIB/lib_str.c **** *                           (B) If the number to format ('nbr') is negative AND the leading charact
2085:Libraries/uC-LIB/lib_str.c **** *                               ('lead_char') is NOT a '0' digit; then the negative sign character 
2086:Libraries/uC-LIB/lib_str.c **** *                               immediately prefixes the most significant digit of the formatted nu
2087:Libraries/uC-LIB/lib_str.c **** *
2088:Libraries/uC-LIB/lib_str.c **** *                                   Examples :
2089:Libraries/uC-LIB/lib_str.c **** *
2090:Libraries/uC-LIB/lib_str.c **** *                                       nbr        = -23456
2091:Libraries/uC-LIB/lib_str.c **** *                                       nbr_dig    =  8
2092:Libraries/uC-LIB/lib_str.c **** *                                       nbr_base   = 10
2093:Libraries/uC-LIB/lib_str.c **** *                                       lead_char  = '#'
2094:Libraries/uC-LIB/lib_str.c **** *
2095:Libraries/uC-LIB/lib_str.c **** *                                       pstr       = "##-23456"
2096:Libraries/uC-LIB/lib_str.c **** *
2097:Libraries/uC-LIB/lib_str.c **** *
2098:Libraries/uC-LIB/lib_str.c **** *                                       nbr        = -43981
2099:Libraries/uC-LIB/lib_str.c **** *                                       nbr_dig    =  8
2100:Libraries/uC-LIB/lib_str.c **** *                                       nbr_base   = 16
2101:Libraries/uC-LIB/lib_str.c **** *                                       lead_char  = '#'
2102:Libraries/uC-LIB/lib_str.c **** *                                       lower_case = DEF_YES
2103:Libraries/uC-LIB/lib_str.c **** *
2104:Libraries/uC-LIB/lib_str.c **** *                                       pstr       = "###-abcd"
2105:Libraries/uC-LIB/lib_str.c **** *
2106:Libraries/uC-LIB/lib_str.c **** *                   (c) (1) If the value of the number to format is     zero  ...
2107:Libraries/uC-LIB/lib_str.c **** *                       (2) ... & the number of digits to format is non-zero, ...
2108:Libraries/uC-LIB/lib_str.c **** *                       (3) ... but NO leading character available;           ...
2109:Libraries/uC-LIB/lib_str.c **** *                       (4) ... then one digit of '0' value is formatted.
2110:Libraries/uC-LIB/lib_str.c **** *
2111:Libraries/uC-LIB/lib_str.c **** *                           This is NOT a leading character; but a single integer digit of '0' valu
2112:Libraries/uC-LIB/lib_str.c **** *$PAGE*
2113:Libraries/uC-LIB/lib_str.c **** *               (4) (a) NULL-character terminate option DISABLED prevents overwriting previous char
2114:Libraries/uC-LIB/lib_str.c **** *                       array formatting.
2115:Libraries/uC-LIB/lib_str.c **** *
2116:Libraries/uC-LIB/lib_str.c **** *                   (b) WARNING: Unless 'pstr' character array is pre-/post-terminated, NULL-charac
2117:Libraries/uC-LIB/lib_str.c **** *                       terminate option DISABLED will cause character string run-on.
2118:Libraries/uC-LIB/lib_str.c **** *
2119:Libraries/uC-LIB/lib_str.c **** *               (5) (a) Format buffer size NOT validated; buffer overruns MUST be prevented by call
2120:Libraries/uC-LIB/lib_str.c **** *
2121:Libraries/uC-LIB/lib_str.c **** *                   (b) To prevent character buffer overrun :
2122:Libraries/uC-LIB/lib_str.c **** *
2123:Libraries/uC-LIB/lib_str.c **** *                           Character array size MUST be  >=  ('nbr_dig'          +
2124:Libraries/uC-LIB/lib_str.c **** *                                                               1 negative sign   +
2125:Libraries/uC-LIB/lib_str.c **** *                                                               1 'NUL' terminator)  characters
2126:Libraries/uC-LIB/lib_str.c **** *
2127:Libraries/uC-LIB/lib_str.c **** *               (6) For any unsuccessful string format or error(s), an invalid string of question m
2128:Libraries/uC-LIB/lib_str.c **** *                   ('?') will be formatted, where the number of question marks is determined by th
2129:Libraries/uC-LIB/lib_str.c **** *                   number of digits to format ('nbr_dig') :
2130:Libraries/uC-LIB/lib_str.c **** *                   
2131:Libraries/uC-LIB/lib_str.c **** *                      Invalid string's     {  (a)   0 (NULL string)  ,  if 'nbr_dig' = 0
2132:Libraries/uC-LIB/lib_str.c **** *                          number of     =  {
2133:Libraries/uC-LIB/lib_str.c **** *                       question marks      {  (b)  'nbr_dig'         ,  if 'nbr_dig' > 0
2134:Libraries/uC-LIB/lib_str.c **** *
2135:Libraries/uC-LIB/lib_str.c **** ***************************************************************************************************
2136:Libraries/uC-LIB/lib_str.c **** */
2137:Libraries/uC-LIB/lib_str.c **** 
2138:Libraries/uC-LIB/lib_str.c **** CPU_CHAR  *Str_FmtNbr_Int32S (CPU_INT32S    nbr,
2139:Libraries/uC-LIB/lib_str.c ****                               CPU_INT08U    nbr_dig,
2140:Libraries/uC-LIB/lib_str.c ****                               CPU_INT08U    nbr_base,
2141:Libraries/uC-LIB/lib_str.c ****                               CPU_CHAR      lead_char,
2142:Libraries/uC-LIB/lib_str.c ****                               CPU_BOOLEAN   lower_case,
2143:Libraries/uC-LIB/lib_str.c ****                               CPU_BOOLEAN   nul,
2144:Libraries/uC-LIB/lib_str.c ****                               CPU_CHAR     *pstr)
2145:Libraries/uC-LIB/lib_str.c **** {
 1686              		.loc 1 2145 0
 1687              		.cfi_startproc
 1688              		@ args = 12, pretend = 0, frame = 24
 1689              		@ frame_needed = 1, uses_anonymous_args = 0
 1690 0814 90B5     		push	{r4, r7, lr}
 1691              	.LCFI51:
 1692              		.cfi_def_cfa_offset 12
 1693              		.cfi_offset 14, -4
 1694              		.cfi_offset 7, -8
 1695              		.cfi_offset 4, -12
 1696 0816 8BB0     		sub	sp, sp, #44
 1697              	.LCFI52:
 1698              		.cfi_def_cfa_offset 56
 1699 0818 04AF     		add	r7, sp, #16
 1700              	.LCFI53:
 1701              		.cfi_def_cfa 7, 40
 1702 081a 7860     		str	r0, [r7, #4]
 1703 081c F970     		strb	r1, [r7, #3]
 1704 081e BA70     		strb	r2, [r7, #2]
 1705 0820 7B70     		strb	r3, [r7, #1]
2146:Libraries/uC-LIB/lib_str.c ****     CPU_CHAR     *pstr_fmt;
2147:Libraries/uC-LIB/lib_str.c ****     CPU_INT32S    nbr_fmt;
2148:Libraries/uC-LIB/lib_str.c ****     CPU_BOOLEAN   nbr_neg;
2149:Libraries/uC-LIB/lib_str.c **** 
2150:Libraries/uC-LIB/lib_str.c **** 
2151:Libraries/uC-LIB/lib_str.c ****     if (nbr < 0) {                                              /* If nbr neg, ...                 
 1706              		.loc 1 2151 0
 1707 0822 7B68     		ldr	r3, [r7, #4]
 1708 0824 002B     		cmp	r3, #0
 1709 0826 07DA     		bge	.L102
2152:Libraries/uC-LIB/lib_str.c ****         nbr_fmt = -nbr;                                         /* ... negate nbr.                 
 1710              		.loc 1 2152 0
 1711 0828 7B68     		ldr	r3, [r7, #4]
 1712 082a C3F10003 		rsb	r3, r3, #0
 1713 082e 7B61     		str	r3, [r7, #20]
2153:Libraries/uC-LIB/lib_str.c ****         nbr_neg =  DEF_YES;
 1714              		.loc 1 2153 0
 1715 0830 4FF00103 		mov	r3, #1
 1716 0834 FB74     		strb	r3, [r7, #19]
 1717 0836 04E0     		b	.L103
 1718              	.L102:
2154:Libraries/uC-LIB/lib_str.c ****     } else {
2155:Libraries/uC-LIB/lib_str.c ****         nbr_fmt =  nbr;
 1719              		.loc 1 2155 0
 1720 0838 7B68     		ldr	r3, [r7, #4]
 1721 083a 7B61     		str	r3, [r7, #20]
2156:Libraries/uC-LIB/lib_str.c ****         nbr_neg =  DEF_NO;
 1722              		.loc 1 2156 0
 1723 083c 4FF00003 		mov	r3, #0
 1724 0840 FB74     		strb	r3, [r7, #19]
 1725              	.L103:
2157:Libraries/uC-LIB/lib_str.c ****     }
2158:Libraries/uC-LIB/lib_str.c **** 
2159:Libraries/uC-LIB/lib_str.c ****     pstr_fmt = Str_FmtNbr_Int32((CPU_INT32U)nbr_fmt,            /* Fmt signed int into str.        
 1726              		.loc 1 2159 0
 1727 0842 7869     		ldr	r0, [r7, #20]
 1728 0844 F978     		ldrb	r1, [r7, #3]	@ zero_extendqisi2
 1729 0846 BA78     		ldrb	r2, [r7, #2]	@ zero_extendqisi2
 1730 0848 FB7C     		ldrb	r3, [r7, #19]	@ zero_extendqisi2
 1731 084a 7C78     		ldrb	r4, [r7, #1]	@ zero_extendqisi2
 1732 084c 0094     		str	r4, [sp, #0]
 1733 084e 97F82840 		ldrb	r4, [r7, #40]	@ zero_extendqisi2
 1734 0852 0194     		str	r4, [sp, #4]
 1735 0854 97F82C40 		ldrb	r4, [r7, #44]	@ zero_extendqisi2
 1736 0858 0294     		str	r4, [sp, #8]
 1737 085a 3C6B     		ldr	r4, [r7, #48]
 1738 085c 0394     		str	r4, [sp, #12]
 1739 085e 00F051F8 		bl	Str_FmtNbr_Int32
 1740 0862 F860     		str	r0, [r7, #12]
2160:Libraries/uC-LIB/lib_str.c ****                                             nbr_dig,
2161:Libraries/uC-LIB/lib_str.c ****                                             nbr_base,
2162:Libraries/uC-LIB/lib_str.c ****                                             nbr_neg,
2163:Libraries/uC-LIB/lib_str.c ****                                             lead_char,
2164:Libraries/uC-LIB/lib_str.c ****                                             lower_case,
2165:Libraries/uC-LIB/lib_str.c ****                                             nul,
2166:Libraries/uC-LIB/lib_str.c ****                                             pstr);
2167:Libraries/uC-LIB/lib_str.c **** 
2168:Libraries/uC-LIB/lib_str.c ****     return (pstr_fmt);
 1741              		.loc 1 2168 0
 1742 0864 FB68     		ldr	r3, [r7, #12]
2169:Libraries/uC-LIB/lib_str.c **** }
 1743              		.loc 1 2169 0
 1744 0866 1846     		mov	r0, r3
 1745 0868 07F11C07 		add	r7, r7, #28
 1746 086c BD46     		mov	sp, r7
 1747 086e 90BD     		pop	{r4, r7, pc}
 1748              		.cfi_endproc
 1749              	.LFE17:
 1751              		.align	2
 1752              		.global	Str_ParseNbr_Int32U
 1753              		.thumb
 1754              		.thumb_func
 1756              	Str_ParseNbr_Int32U:
 1757              	.LFB18:
2170:Libraries/uC-LIB/lib_str.c **** 
2171:Libraries/uC-LIB/lib_str.c **** 
2172:Libraries/uC-LIB/lib_str.c **** /*$PAGE*/
2173:Libraries/uC-LIB/lib_str.c **** /*
2174:Libraries/uC-LIB/lib_str.c **** ***************************************************************************************************
2175:Libraries/uC-LIB/lib_str.c **** *                                           Str_FmtNbr_32()
2176:Libraries/uC-LIB/lib_str.c **** *
2177:Libraries/uC-LIB/lib_str.c **** * Description : Format number into a multi-digit character string.
2178:Libraries/uC-LIB/lib_str.c **** *
2179:Libraries/uC-LIB/lib_str.c **** * Argument(s) : nbr             Number                         to format (see Note #1).
2180:Libraries/uC-LIB/lib_str.c **** *
2181:Libraries/uC-LIB/lib_str.c **** *               nbr_dig         Number of decimal       digits to format (see Note #2).
