   1              		.syntax unified
   2              		.cpu cortex-m3
   3              		.fpu softvfp
   4              		.eabi_attribute 20, 1
   5              		.eabi_attribute 21, 1
   6              		.eabi_attribute 23, 3
   7              		.eabi_attribute 24, 1
   8              		.eabi_attribute 25, 1
   9              		.eabi_attribute 26, 1
  10              		.eabi_attribute 30, 6
  11              		.eabi_attribute 34, 1
  12              		.eabi_attribute 18, 4
  13              		.thumb
  14              		.file	"lib_ascii.c"
  15              		.text
  16              	.Ltext0:
  17              		.cfi_sections	.debug_frame
  18              		.align	2
  19              		.global	ASCII_IsAlpha
  20              		.thumb
  21              		.thumb_func
  23              	ASCII_IsAlpha:
  24              	.LFB0:
  25              		.file 1 "Libraries/uC-LIB/lib_ascii.c"
   1:Libraries/uC-LIB/lib_ascii.c **** /*
   2:Libraries/uC-LIB/lib_ascii.c **** ***************************************************************************************************
   3:Libraries/uC-LIB/lib_ascii.c **** *                                                uC/LIB
   4:Libraries/uC-LIB/lib_ascii.c **** *                                        CUSTOM LIBRARY MODULES
   5:Libraries/uC-LIB/lib_ascii.c **** *
   6:Libraries/uC-LIB/lib_ascii.c **** *                          (c) Copyright 2004-2011; Micrium, Inc.; Weston, FL
   7:Libraries/uC-LIB/lib_ascii.c **** *
   8:Libraries/uC-LIB/lib_ascii.c **** *               All rights reserved.  Protected by international copyright laws.
   9:Libraries/uC-LIB/lib_ascii.c **** *
  10:Libraries/uC-LIB/lib_ascii.c **** *               uC/LIB is provided in source form to registered licensees ONLY.  It is 
  11:Libraries/uC-LIB/lib_ascii.c **** *               illegal to distribute this source code to any third party unless you receive 
  12:Libraries/uC-LIB/lib_ascii.c **** *               written permission by an authorized Micrium representative.  Knowledge of 
  13:Libraries/uC-LIB/lib_ascii.c **** *               the source code may NOT be used to develop a similar product.
  14:Libraries/uC-LIB/lib_ascii.c **** *
  15:Libraries/uC-LIB/lib_ascii.c **** *               Please help us continue to provide the Embedded community with the finest 
  16:Libraries/uC-LIB/lib_ascii.c **** *               software available.  Your honesty is greatly appreciated.
  17:Libraries/uC-LIB/lib_ascii.c **** *
  18:Libraries/uC-LIB/lib_ascii.c **** *               You can contact us at www.micrium.com.
  19:Libraries/uC-LIB/lib_ascii.c **** ***************************************************************************************************
  20:Libraries/uC-LIB/lib_ascii.c **** */
  21:Libraries/uC-LIB/lib_ascii.c **** 
  22:Libraries/uC-LIB/lib_ascii.c **** /*
  23:Libraries/uC-LIB/lib_ascii.c **** ***************************************************************************************************
  24:Libraries/uC-LIB/lib_ascii.c **** *
  25:Libraries/uC-LIB/lib_ascii.c **** *                                     ASCII CHARACTER OPERATIONS
  26:Libraries/uC-LIB/lib_ascii.c **** *
  27:Libraries/uC-LIB/lib_ascii.c **** * Filename      : lib_ascii.c
  28:Libraries/uC-LIB/lib_ascii.c **** * Version       : V1.35.00
  29:Libraries/uC-LIB/lib_ascii.c **** * Programmer(s) : BAN
  30:Libraries/uC-LIB/lib_ascii.c **** *                 ITJ
  31:Libraries/uC-LIB/lib_ascii.c **** ***************************************************************************************************
  32:Libraries/uC-LIB/lib_ascii.c **** * Note(s)       : (1) NO compiler-supplied standard library functions are used in library or produc
  33:Libraries/uC-LIB/lib_ascii.c **** *
  34:Libraries/uC-LIB/lib_ascii.c **** *                     (a) ALL standard library functions are implemented in the custom library modu
  35:Libraries/uC-LIB/lib_ascii.c **** *
  36:Libraries/uC-LIB/lib_ascii.c **** *                         (1) \<Custom Library Directory>\lib_*.*
  37:Libraries/uC-LIB/lib_ascii.c **** *
  38:Libraries/uC-LIB/lib_ascii.c **** *                         (2) \<Custom Library Directory>\Ports\<cpu>\<compiler>\lib*_a.*
  39:Libraries/uC-LIB/lib_ascii.c **** *
  40:Libraries/uC-LIB/lib_ascii.c **** *                               where
  41:Libraries/uC-LIB/lib_ascii.c **** *                                       <Custom Library Directory>      directory path for custom l
  42:Libraries/uC-LIB/lib_ascii.c **** *                                       <cpu>                           directory name for specific
  43:Libraries/uC-LIB/lib_ascii.c **** *                                       <compiler>                      directory name for specific
  44:Libraries/uC-LIB/lib_ascii.c **** *
  45:Libraries/uC-LIB/lib_ascii.c **** *                     (b) Product-specific library functions are implemented in individual products
  46:Libraries/uC-LIB/lib_ascii.c **** *
  47:Libraries/uC-LIB/lib_ascii.c **** *
  48:Libraries/uC-LIB/lib_ascii.c **** *                 (2) (a) ECMA-6 '7-Bit coded Character Set' (6th edition), which corresponds to th
  49:Libraries/uC-LIB/lib_ascii.c **** *                         3rd edition of ISO 646, specifies several versions of a 7-bit character s
  50:Libraries/uC-LIB/lib_ascii.c **** *
  51:Libraries/uC-LIB/lib_ascii.c **** *                         (1) THE GENERAL VERSION, which allows characters at 0x23 and 0x24 to be g
  52:Libraries/uC-LIB/lib_ascii.c **** *                             set alternate form and allows the characters 0x40, 0x5B, 0x5D, 0x60, 
  53:Libraries/uC-LIB/lib_ascii.c **** *                             0x7D to be assigned a "unique graphic character" or to be declared as
  54:Libraries/uC-LIB/lib_ascii.c **** *                             All other characters are explicitly specified.
  55:Libraries/uC-LIB/lib_ascii.c **** *
  56:Libraries/uC-LIB/lib_ascii.c **** *                         (2) THE INTERNATIONAL REFERENCE VERSION, which explicitly specifies all c
  57:Libraries/uC-LIB/lib_ascii.c **** *                             in the 7-bit character set.
  58:Libraries/uC-LIB/lib_ascii.c **** *
  59:Libraries/uC-LIB/lib_ascii.c **** *                         (3) NATIONAL & APPLICATION-ORIENTED VERSIONS, which may be derived from t
  60:Libraries/uC-LIB/lib_ascii.c **** *                             standard in specified ways.
  61:Libraries/uC-LIB/lib_ascii.c **** *
  62:Libraries/uC-LIB/lib_ascii.c **** *                     (b) The character set represented in this file reproduces the Internation Ref
  63:Libraries/uC-LIB/lib_ascii.c **** *                         Version.  This is identical to the 7-bit character set which occupies Uni
  64:Libraries/uC-LIB/lib_ascii.c **** *                         characters 0x0000 through 0x007F.  The character names are taken from v5.
  65:Libraries/uC-LIB/lib_ascii.c **** *                         Unicode specification, with certain abbreviations so that the resulting #
  66:Libraries/uC-LIB/lib_ascii.c **** *                         names will not violate ANSI C naming restriction :
  67:Libraries/uC-LIB/lib_ascii.c **** *
  68:Libraries/uC-LIB/lib_ascii.c **** *                         (1) For the Latin capital & lowercase letters, the name components 'LETTE
  69:Libraries/uC-LIB/lib_ascii.c **** *                             & 'LETTER_SMALL' are replaced by 'UPPER' & 'LOWER', respectively.
  70:Libraries/uC-LIB/lib_ascii.c **** ***************************************************************************************************
  71:Libraries/uC-LIB/lib_ascii.c **** */
  72:Libraries/uC-LIB/lib_ascii.c **** 
  73:Libraries/uC-LIB/lib_ascii.c **** 
  74:Libraries/uC-LIB/lib_ascii.c **** /*
  75:Libraries/uC-LIB/lib_ascii.c **** ***************************************************************************************************
  76:Libraries/uC-LIB/lib_ascii.c **** *                                            INCLUDE FILES
  77:Libraries/uC-LIB/lib_ascii.c **** ***************************************************************************************************
  78:Libraries/uC-LIB/lib_ascii.c **** */
  79:Libraries/uC-LIB/lib_ascii.c **** 
  80:Libraries/uC-LIB/lib_ascii.c **** #define    LIB_ASCII_MODULE
  81:Libraries/uC-LIB/lib_ascii.c **** #include  <lib_ascii.h>
  82:Libraries/uC-LIB/lib_ascii.c **** 
  83:Libraries/uC-LIB/lib_ascii.c **** 
  84:Libraries/uC-LIB/lib_ascii.c **** /*$PAGE*/
  85:Libraries/uC-LIB/lib_ascii.c **** /*
  86:Libraries/uC-LIB/lib_ascii.c **** ***************************************************************************************************
  87:Libraries/uC-LIB/lib_ascii.c **** *                                            LOCAL DEFINES
  88:Libraries/uC-LIB/lib_ascii.c **** ***************************************************************************************************
  89:Libraries/uC-LIB/lib_ascii.c **** */
  90:Libraries/uC-LIB/lib_ascii.c **** 
  91:Libraries/uC-LIB/lib_ascii.c **** 
  92:Libraries/uC-LIB/lib_ascii.c **** /*
  93:Libraries/uC-LIB/lib_ascii.c **** ***************************************************************************************************
  94:Libraries/uC-LIB/lib_ascii.c **** *                                           LOCAL CONSTANTS
  95:Libraries/uC-LIB/lib_ascii.c **** ***************************************************************************************************
  96:Libraries/uC-LIB/lib_ascii.c **** */
  97:Libraries/uC-LIB/lib_ascii.c **** 
  98:Libraries/uC-LIB/lib_ascii.c **** 
  99:Libraries/uC-LIB/lib_ascii.c **** /*
 100:Libraries/uC-LIB/lib_ascii.c **** ***************************************************************************************************
 101:Libraries/uC-LIB/lib_ascii.c **** *                                          LOCAL DATA TYPES
 102:Libraries/uC-LIB/lib_ascii.c **** ***************************************************************************************************
 103:Libraries/uC-LIB/lib_ascii.c **** */
 104:Libraries/uC-LIB/lib_ascii.c **** 
 105:Libraries/uC-LIB/lib_ascii.c **** 
 106:Libraries/uC-LIB/lib_ascii.c **** /*
 107:Libraries/uC-LIB/lib_ascii.c **** ***************************************************************************************************
 108:Libraries/uC-LIB/lib_ascii.c **** *                                            LOCAL TABLES
 109:Libraries/uC-LIB/lib_ascii.c **** ***************************************************************************************************
 110:Libraries/uC-LIB/lib_ascii.c **** */
 111:Libraries/uC-LIB/lib_ascii.c **** 
 112:Libraries/uC-LIB/lib_ascii.c **** 
 113:Libraries/uC-LIB/lib_ascii.c **** /*
 114:Libraries/uC-LIB/lib_ascii.c **** ***************************************************************************************************
 115:Libraries/uC-LIB/lib_ascii.c **** *                                       LOCAL GLOBAL VARIABLES
 116:Libraries/uC-LIB/lib_ascii.c **** ***************************************************************************************************
 117:Libraries/uC-LIB/lib_ascii.c **** */
 118:Libraries/uC-LIB/lib_ascii.c **** 
 119:Libraries/uC-LIB/lib_ascii.c **** 
 120:Libraries/uC-LIB/lib_ascii.c **** /*
 121:Libraries/uC-LIB/lib_ascii.c **** ***************************************************************************************************
 122:Libraries/uC-LIB/lib_ascii.c **** *                                      LOCAL FUNCTION PROTOTYPES
 123:Libraries/uC-LIB/lib_ascii.c **** ***************************************************************************************************
 124:Libraries/uC-LIB/lib_ascii.c **** */
 125:Libraries/uC-LIB/lib_ascii.c **** 
 126:Libraries/uC-LIB/lib_ascii.c **** 
 127:Libraries/uC-LIB/lib_ascii.c **** /*
 128:Libraries/uC-LIB/lib_ascii.c **** ***************************************************************************************************
 129:Libraries/uC-LIB/lib_ascii.c **** *                                     LOCAL CONFIGURATION ERRORS
 130:Libraries/uC-LIB/lib_ascii.c **** ***************************************************************************************************
 131:Libraries/uC-LIB/lib_ascii.c **** */
 132:Libraries/uC-LIB/lib_ascii.c **** 
 133:Libraries/uC-LIB/lib_ascii.c **** 
 134:Libraries/uC-LIB/lib_ascii.c **** /*$PAGE*/
 135:Libraries/uC-LIB/lib_ascii.c **** /*
 136:Libraries/uC-LIB/lib_ascii.c **** ***************************************************************************************************
 137:Libraries/uC-LIB/lib_ascii.c **** *                                           ASCII_IsAlpha()
 138:Libraries/uC-LIB/lib_ascii.c **** *
 139:Libraries/uC-LIB/lib_ascii.c **** * Description : Determine whether a character is an alphabetic character.
 140:Libraries/uC-LIB/lib_ascii.c **** *
 141:Libraries/uC-LIB/lib_ascii.c **** * Argument(s) : c           Character to examine.
 142:Libraries/uC-LIB/lib_ascii.c **** *
 143:Libraries/uC-LIB/lib_ascii.c **** * Return(s)   : DEF_YES, if character is     an alphabetic character.
 144:Libraries/uC-LIB/lib_ascii.c **** *
 145:Libraries/uC-LIB/lib_ascii.c **** *               DEF_NO,	 if character is NOT an alphabetic character.
 146:Libraries/uC-LIB/lib_ascii.c **** *
 147:Libraries/uC-LIB/lib_ascii.c **** * Caller(s)   : Application.
 148:Libraries/uC-LIB/lib_ascii.c **** *
 149:Libraries/uC-LIB/lib_ascii.c **** * Note(s)     : (1) ISO/IEC 9899:TC2, Section 7.4.1.2.(2) states that "isalpha() returns true only 
 150:Libraries/uC-LIB/lib_ascii.c **** *                   characters for which isupper() or islower() is true".
 151:Libraries/uC-LIB/lib_ascii.c **** ***************************************************************************************************
 152:Libraries/uC-LIB/lib_ascii.c **** */
 153:Libraries/uC-LIB/lib_ascii.c **** 
 154:Libraries/uC-LIB/lib_ascii.c **** CPU_BOOLEAN  ASCII_IsAlpha (CPU_CHAR  c)
 155:Libraries/uC-LIB/lib_ascii.c **** {
  26              		.loc 1 155 0
  27              		.cfi_startproc
  28              		@ args = 0, pretend = 0, frame = 16
  29              		@ frame_needed = 1, uses_anonymous_args = 0
  30              		@ link register save eliminated.
  31 0000 80B4     		push	{r7}
  32              	.LCFI0:
  33              		.cfi_def_cfa_offset 4
  34              		.cfi_offset 7, -4
  35 0002 85B0     		sub	sp, sp, #20
  36              	.LCFI1:
  37              		.cfi_def_cfa_offset 24
  38 0004 00AF     		add	r7, sp, #0
  39              	.LCFI2:
  40              		.cfi_def_cfa_register 7
  41 0006 0346     		mov	r3, r0
  42 0008 FB71     		strb	r3, [r7, #7]
 156:Libraries/uC-LIB/lib_ascii.c ****     CPU_BOOLEAN  alpha;
 157:Libraries/uC-LIB/lib_ascii.c **** 
 158:Libraries/uC-LIB/lib_ascii.c **** 
 159:Libraries/uC-LIB/lib_ascii.c ****     alpha = ASCII_IS_ALPHA(c);
  43              		.loc 1 159 0
  44 000a FB79     		ldrb	r3, [r7, #7]	@ zero_extendqisi2
  45 000c 402B     		cmp	r3, #64
  46 000e 05D9     		bls	.L2
  47              		.loc 1 159 0 is_stmt 0 discriminator 1
  48 0010 FB79     		ldrb	r3, [r7, #7]	@ zero_extendqisi2
  49 0012 5A2B     		cmp	r3, #90
  50 0014 02D8     		bhi	.L2
  51              		.loc 1 159 0 discriminator 3
  52 0016 4FF00103 		mov	r3, #1
  53 001a 01E0     		b	.L3
  54              	.L2:
  55              		.loc 1 159 0 discriminator 2
  56 001c 4FF00003 		mov	r3, #0
  57              	.L3:
  58              		.loc 1 159 0 discriminator 4
  59 0020 012B     		cmp	r3, #1
  60 0022 0CD0     		beq	.L4
  61              		.loc 1 159 0 discriminator 2
  62 0024 FB79     		ldrb	r3, [r7, #7]	@ zero_extendqisi2
  63 0026 602B     		cmp	r3, #96
  64 0028 05D9     		bls	.L5
  65              		.loc 1 159 0 discriminator 5
  66 002a FB79     		ldrb	r3, [r7, #7]	@ zero_extendqisi2
  67 002c 7A2B     		cmp	r3, #122
  68 002e 02D8     		bhi	.L5
  69              		.loc 1 159 0 discriminator 7
  70 0030 4FF00103 		mov	r3, #1
  71 0034 01E0     		b	.L6
  72              	.L5:
  73              		.loc 1 159 0 discriminator 6
  74 0036 4FF00003 		mov	r3, #0
  75              	.L6:
  76              		.loc 1 159 0 discriminator 8
  77 003a 012B     		cmp	r3, #1
  78 003c 02D1     		bne	.L7
  79              	.L4:
  80              		.loc 1 159 0 discriminator 1
  81 003e 4FF00103 		mov	r3, #1
  82 0042 01E0     		b	.L8
  83              	.L7:
  84              		.loc 1 159 0 discriminator 9
  85 0044 4FF00003 		mov	r3, #0
  86              	.L8:
  87              		.loc 1 159 0 discriminator 3
  88 0048 FB73     		strb	r3, [r7, #15]
 160:Libraries/uC-LIB/lib_ascii.c **** 
 161:Libraries/uC-LIB/lib_ascii.c ****     return (alpha);
  89              		.loc 1 161 0 is_stmt 1 discriminator 3
  90 004a FB7B     		ldrb	r3, [r7, #15]	@ zero_extendqisi2
 162:Libraries/uC-LIB/lib_ascii.c **** }
  91              		.loc 1 162 0 discriminator 3
  92 004c 1846     		mov	r0, r3
  93 004e 07F11407 		add	r7, r7, #20
  94 0052 BD46     		mov	sp, r7
  95 0054 80BC     		pop	{r7}
  96 0056 7047     		bx	lr
  97              		.cfi_endproc
  98              	.LFE0:
 100              		.align	2
 101              		.global	ASCII_IsAlphaNum
 102              		.thumb
 103              		.thumb_func
 105              	ASCII_IsAlphaNum:
 106              	.LFB1:
 163:Libraries/uC-LIB/lib_ascii.c **** 
 164:Libraries/uC-LIB/lib_ascii.c **** 
 165:Libraries/uC-LIB/lib_ascii.c **** /*
 166:Libraries/uC-LIB/lib_ascii.c **** ***************************************************************************************************
 167:Libraries/uC-LIB/lib_ascii.c **** *                                         ASCII_IsAlphaNum()
 168:Libraries/uC-LIB/lib_ascii.c **** *
 169:Libraries/uC-LIB/lib_ascii.c **** * Description : Determine whether a character is an alphanumeric character.
 170:Libraries/uC-LIB/lib_ascii.c **** *
 171:Libraries/uC-LIB/lib_ascii.c **** * Argument(s) : c           Character to examine.
 172:Libraries/uC-LIB/lib_ascii.c **** *
 173:Libraries/uC-LIB/lib_ascii.c **** * Return(s)   : DEF_YES, if character is     an alphanumeric character.
 174:Libraries/uC-LIB/lib_ascii.c **** *
 175:Libraries/uC-LIB/lib_ascii.c **** *               DEF_NO,	 if character is NOT an alphanumeric character.
 176:Libraries/uC-LIB/lib_ascii.c **** *
 177:Libraries/uC-LIB/lib_ascii.c **** * Caller(s)   : Application.
 178:Libraries/uC-LIB/lib_ascii.c **** *
 179:Libraries/uC-LIB/lib_ascii.c **** * Note(s)     : (1) ISO/IEC 9899:TC2, Section 7.4.1.1.(2) states that "isalnum() ... tests for any 
 180:Libraries/uC-LIB/lib_ascii.c **** *                   for which isalpha() or isdigit() is true".
 181:Libraries/uC-LIB/lib_ascii.c **** ***************************************************************************************************
 182:Libraries/uC-LIB/lib_ascii.c **** */
 183:Libraries/uC-LIB/lib_ascii.c **** 
 184:Libraries/uC-LIB/lib_ascii.c **** CPU_BOOLEAN  ASCII_IsAlphaNum (CPU_CHAR  c)
 185:Libraries/uC-LIB/lib_ascii.c **** {
 107              		.loc 1 185 0
 108              		.cfi_startproc
 109              		@ args = 0, pretend = 0, frame = 16
 110              		@ frame_needed = 1, uses_anonymous_args = 0
 111              		@ link register save eliminated.
 112 0058 80B4     		push	{r7}
 113              	.LCFI3:
 114              		.cfi_def_cfa_offset 4
 115              		.cfi_offset 7, -4
 116 005a 85B0     		sub	sp, sp, #20
 117              	.LCFI4:
 118              		.cfi_def_cfa_offset 24
 119 005c 00AF     		add	r7, sp, #0
 120              	.LCFI5:
 121              		.cfi_def_cfa_register 7
 122 005e 0346     		mov	r3, r0
 123 0060 FB71     		strb	r3, [r7, #7]
 186:Libraries/uC-LIB/lib_ascii.c ****     CPU_BOOLEAN  alpha_num;
 187:Libraries/uC-LIB/lib_ascii.c **** 
 188:Libraries/uC-LIB/lib_ascii.c **** 
 189:Libraries/uC-LIB/lib_ascii.c ****     alpha_num = ASCII_IS_ALPHA_NUM(c);
 124              		.loc 1 189 0
 125 0062 FB79     		ldrb	r3, [r7, #7]	@ zero_extendqisi2
 126 0064 402B     		cmp	r3, #64
 127 0066 05D9     		bls	.L10
 128              		.loc 1 189 0 is_stmt 0 discriminator 1
 129 0068 FB79     		ldrb	r3, [r7, #7]	@ zero_extendqisi2
 130 006a 5A2B     		cmp	r3, #90
 131 006c 02D8     		bhi	.L10
 132              		.loc 1 189 0 discriminator 3
 133 006e 4FF00103 		mov	r3, #1
 134 0072 01E0     		b	.L11
 135              	.L10:
 136              		.loc 1 189 0 discriminator 2
 137 0074 4FF00003 		mov	r3, #0
 138              	.L11:
 139              		.loc 1 189 0 discriminator 4
 140 0078 012B     		cmp	r3, #1
 141 007a 0CD0     		beq	.L12
 142              		.loc 1 189 0 discriminator 6
 143 007c FB79     		ldrb	r3, [r7, #7]	@ zero_extendqisi2
 144 007e 602B     		cmp	r3, #96
 145 0080 05D9     		bls	.L13
 146              		.loc 1 189 0 discriminator 7
 147 0082 FB79     		ldrb	r3, [r7, #7]	@ zero_extendqisi2
 148 0084 7A2B     		cmp	r3, #122
 149 0086 02D8     		bhi	.L13
 150              		.loc 1 189 0 discriminator 9
 151 0088 4FF00103 		mov	r3, #1
 152 008c 01E0     		b	.L14
 153              	.L13:
 154              		.loc 1 189 0 discriminator 8
 155 008e 4FF00003 		mov	r3, #0
 156              	.L14:
 157              		.loc 1 189 0 discriminator 10
 158 0092 012B     		cmp	r3, #1
 159 0094 02D1     		bne	.L15
 160              	.L12:
 161              		.loc 1 189 0 discriminator 5
 162 0096 4FF00103 		mov	r3, #1
 163 009a 01E0     		b	.L16
 164              	.L15:
 165              		.loc 1 189 0 discriminator 11
 166 009c 4FF00003 		mov	r3, #0
 167              	.L16:
 168              		.loc 1 189 0 discriminator 12
 169 00a0 012B     		cmp	r3, #1
 170 00a2 0CD0     		beq	.L17
 171              		.loc 1 189 0 discriminator 2
 172 00a4 FB79     		ldrb	r3, [r7, #7]	@ zero_extendqisi2
 173 00a6 2F2B     		cmp	r3, #47
 174 00a8 05D9     		bls	.L18
 175              		.loc 1 189 0 discriminator 13
 176 00aa FB79     		ldrb	r3, [r7, #7]	@ zero_extendqisi2
 177 00ac 392B     		cmp	r3, #57
 178 00ae 02D8     		bhi	.L18
 179              		.loc 1 189 0 discriminator 15
 180 00b0 4FF00103 		mov	r3, #1
 181 00b4 01E0     		b	.L19
 182              	.L18:
 183              		.loc 1 189 0 discriminator 14
 184 00b6 4FF00003 		mov	r3, #0
 185              	.L19:
 186              		.loc 1 189 0 discriminator 16
 187 00ba 012B     		cmp	r3, #1
 188 00bc 02D1     		bne	.L20
 189              	.L17:
 190              		.loc 1 189 0 discriminator 1
 191 00be 4FF00103 		mov	r3, #1
 192 00c2 01E0     		b	.L21
 193              	.L20:
 194              		.loc 1 189 0 discriminator 17
 195 00c4 4FF00003 		mov	r3, #0
 196              	.L21:
 197              		.loc 1 189 0 discriminator 3
 198 00c8 FB73     		strb	r3, [r7, #15]
 190:Libraries/uC-LIB/lib_ascii.c **** 
 191:Libraries/uC-LIB/lib_ascii.c ****     return (alpha_num);
 199              		.loc 1 191 0 is_stmt 1 discriminator 3
 200 00ca FB7B     		ldrb	r3, [r7, #15]	@ zero_extendqisi2
 192:Libraries/uC-LIB/lib_ascii.c **** }
 201              		.loc 1 192 0 discriminator 3
 202 00cc 1846     		mov	r0, r3
 203 00ce 07F11407 		add	r7, r7, #20
 204 00d2 BD46     		mov	sp, r7
 205 00d4 80BC     		pop	{r7}
 206 00d6 7047     		bx	lr
 207              		.cfi_endproc
 208              	.LFE1:
 210              		.align	2
 211              		.global	ASCII_IsLower
 212              		.thumb
 213              		.thumb_func
 215              	ASCII_IsLower:
 216              	.LFB2:
 193:Libraries/uC-LIB/lib_ascii.c **** 
 194:Libraries/uC-LIB/lib_ascii.c **** 
 195:Libraries/uC-LIB/lib_ascii.c **** /*$PAGE*/
 196:Libraries/uC-LIB/lib_ascii.c **** /*
 197:Libraries/uC-LIB/lib_ascii.c **** ***************************************************************************************************
 198:Libraries/uC-LIB/lib_ascii.c **** *                                           ASCII_IsLower()
 199:Libraries/uC-LIB/lib_ascii.c **** *
 200:Libraries/uC-LIB/lib_ascii.c **** * Description : Determine whether a character is a lowercase alphabetic character.
 201:Libraries/uC-LIB/lib_ascii.c **** *
 202:Libraries/uC-LIB/lib_ascii.c **** * Argument(s) : c           Character to examine.
 203:Libraries/uC-LIB/lib_ascii.c **** *
 204:Libraries/uC-LIB/lib_ascii.c **** * Return(s)   : DEF_YES, if character is     a lowercase alphabetic character.
 205:Libraries/uC-LIB/lib_ascii.c **** *
 206:Libraries/uC-LIB/lib_ascii.c **** *               DEF_NO,	 if character is NOT a lowercase alphabetic character.
 207:Libraries/uC-LIB/lib_ascii.c **** *
 208:Libraries/uC-LIB/lib_ascii.c **** * Caller(s)   : Application.
 209:Libraries/uC-LIB/lib_ascii.c **** *
 210:Libraries/uC-LIB/lib_ascii.c **** * Note(s)     : (1) ISO/IEC 9899:TC2, Section 7.4.1.7.(2)  states that "islower() returns true only
 211:Libraries/uC-LIB/lib_ascii.c **** *                   the lowercase letters".
 212:Libraries/uC-LIB/lib_ascii.c **** ***************************************************************************************************
 213:Libraries/uC-LIB/lib_ascii.c **** */
 214:Libraries/uC-LIB/lib_ascii.c **** 
 215:Libraries/uC-LIB/lib_ascii.c **** CPU_BOOLEAN  ASCII_IsLower (CPU_CHAR  c)
 216:Libraries/uC-LIB/lib_ascii.c **** {
 217              		.loc 1 216 0
 218              		.cfi_startproc
 219              		@ args = 0, pretend = 0, frame = 16
 220              		@ frame_needed = 1, uses_anonymous_args = 0
 221              		@ link register save eliminated.
 222 00d8 80B4     		push	{r7}
 223              	.LCFI6:
 224              		.cfi_def_cfa_offset 4
 225              		.cfi_offset 7, -4
 226 00da 85B0     		sub	sp, sp, #20
 227              	.LCFI7:
 228              		.cfi_def_cfa_offset 24
 229 00dc 00AF     		add	r7, sp, #0
 230              	.LCFI8:
 231              		.cfi_def_cfa_register 7
 232 00de 0346     		mov	r3, r0
 233 00e0 FB71     		strb	r3, [r7, #7]
 217:Libraries/uC-LIB/lib_ascii.c ****     CPU_BOOLEAN  lower;
 218:Libraries/uC-LIB/lib_ascii.c **** 
 219:Libraries/uC-LIB/lib_ascii.c **** 
 220:Libraries/uC-LIB/lib_ascii.c ****     lower = ASCII_IS_LOWER(c);
 234              		.loc 1 220 0
 235 00e2 FB79     		ldrb	r3, [r7, #7]	@ zero_extendqisi2
 236 00e4 602B     		cmp	r3, #96
 237 00e6 05D9     		bls	.L23
 238              		.loc 1 220 0 is_stmt 0 discriminator 1
 239 00e8 FB79     		ldrb	r3, [r7, #7]	@ zero_extendqisi2
 240 00ea 7A2B     		cmp	r3, #122
 241 00ec 02D8     		bhi	.L23
 242 00ee 4FF00103 		mov	r3, #1
 243 00f2 01E0     		b	.L24
 244              	.L23:
 245              		.loc 1 220 0 discriminator 2
 246 00f4 4FF00003 		mov	r3, #0
 247              	.L24:
 248              		.loc 1 220 0 discriminator 3
 249 00f8 FB73     		strb	r3, [r7, #15]
 221:Libraries/uC-LIB/lib_ascii.c **** 
 222:Libraries/uC-LIB/lib_ascii.c ****     return (lower);
 250              		.loc 1 222 0 is_stmt 1 discriminator 3
 251 00fa FB7B     		ldrb	r3, [r7, #15]	@ zero_extendqisi2
 223:Libraries/uC-LIB/lib_ascii.c **** }
 252              		.loc 1 223 0 discriminator 3
 253 00fc 1846     		mov	r0, r3
 254 00fe 07F11407 		add	r7, r7, #20
 255 0102 BD46     		mov	sp, r7
 256 0104 80BC     		pop	{r7}
 257 0106 7047     		bx	lr
 258              		.cfi_endproc
 259              	.LFE2:
 261              		.align	2
 262              		.global	ASCII_IsUpper
 263              		.thumb
 264              		.thumb_func
 266              	ASCII_IsUpper:
 267              	.LFB3:
 224:Libraries/uC-LIB/lib_ascii.c **** 
 225:Libraries/uC-LIB/lib_ascii.c **** 
 226:Libraries/uC-LIB/lib_ascii.c **** /*
 227:Libraries/uC-LIB/lib_ascii.c **** ***************************************************************************************************
 228:Libraries/uC-LIB/lib_ascii.c **** *                                           ASCII_IsUpper()
 229:Libraries/uC-LIB/lib_ascii.c **** *
 230:Libraries/uC-LIB/lib_ascii.c **** * Description : Determine whether a character is an uppercase alphabetic character.
 231:Libraries/uC-LIB/lib_ascii.c **** *
 232:Libraries/uC-LIB/lib_ascii.c **** * Argument(s) : c           Character to examine.
 233:Libraries/uC-LIB/lib_ascii.c **** *
 234:Libraries/uC-LIB/lib_ascii.c **** * Return(s)   : DEF_YES, if character is     an uppercase alphabetic character.
 235:Libraries/uC-LIB/lib_ascii.c **** *
 236:Libraries/uC-LIB/lib_ascii.c **** *               DEF_NO,	 if character is NOT an uppercase alphabetic character.
 237:Libraries/uC-LIB/lib_ascii.c **** *
 238:Libraries/uC-LIB/lib_ascii.c **** * Caller(s)   : Application.
 239:Libraries/uC-LIB/lib_ascii.c **** *
 240:Libraries/uC-LIB/lib_ascii.c **** * Note(s)     : (1) ISO/IEC 9899:TC2, Section 7.4.1.11.(2) states that "isupper() returns true only
 241:Libraries/uC-LIB/lib_ascii.c **** *                   the uppercase letters".
 242:Libraries/uC-LIB/lib_ascii.c **** ***************************************************************************************************
 243:Libraries/uC-LIB/lib_ascii.c **** */
 244:Libraries/uC-LIB/lib_ascii.c **** 
 245:Libraries/uC-LIB/lib_ascii.c **** CPU_BOOLEAN  ASCII_IsUpper (CPU_CHAR  c)
 246:Libraries/uC-LIB/lib_ascii.c **** {
 268              		.loc 1 246 0
 269              		.cfi_startproc
 270              		@ args = 0, pretend = 0, frame = 16
 271              		@ frame_needed = 1, uses_anonymous_args = 0
 272              		@ link register save eliminated.
 273 0108 80B4     		push	{r7}
 274              	.LCFI9:
 275              		.cfi_def_cfa_offset 4
 276              		.cfi_offset 7, -4
 277 010a 85B0     		sub	sp, sp, #20
 278              	.LCFI10:
 279              		.cfi_def_cfa_offset 24
 280 010c 00AF     		add	r7, sp, #0
 281              	.LCFI11:
 282              		.cfi_def_cfa_register 7
 283 010e 0346     		mov	r3, r0
 284 0110 FB71     		strb	r3, [r7, #7]
 247:Libraries/uC-LIB/lib_ascii.c ****     CPU_BOOLEAN  upper;
 248:Libraries/uC-LIB/lib_ascii.c **** 
 249:Libraries/uC-LIB/lib_ascii.c **** 
 250:Libraries/uC-LIB/lib_ascii.c ****     upper = ASCII_IS_UPPER(c);
 285              		.loc 1 250 0
 286 0112 FB79     		ldrb	r3, [r7, #7]	@ zero_extendqisi2
 287 0114 402B     		cmp	r3, #64
 288 0116 05D9     		bls	.L26
 289              		.loc 1 250 0 is_stmt 0 discriminator 1
 290 0118 FB79     		ldrb	r3, [r7, #7]	@ zero_extendqisi2
 291 011a 5A2B     		cmp	r3, #90
 292 011c 02D8     		bhi	.L26
 293 011e 4FF00103 		mov	r3, #1
 294 0122 01E0     		b	.L27
 295              	.L26:
 296              		.loc 1 250 0 discriminator 2
 297 0124 4FF00003 		mov	r3, #0
 298              	.L27:
 299              		.loc 1 250 0 discriminator 3
 300 0128 FB73     		strb	r3, [r7, #15]
 251:Libraries/uC-LIB/lib_ascii.c **** 
 252:Libraries/uC-LIB/lib_ascii.c ****     return (upper);
 301              		.loc 1 252 0 is_stmt 1 discriminator 3
 302 012a FB7B     		ldrb	r3, [r7, #15]	@ zero_extendqisi2
 253:Libraries/uC-LIB/lib_ascii.c **** }
 303              		.loc 1 253 0 discriminator 3
 304 012c 1846     		mov	r0, r3
 305 012e 07F11407 		add	r7, r7, #20
 306 0132 BD46     		mov	sp, r7
 307 0134 80BC     		pop	{r7}
 308 0136 7047     		bx	lr
 309              		.cfi_endproc
 310              	.LFE3:
 312              		.align	2
 313              		.global	ASCII_IsDig
 314              		.thumb
 315              		.thumb_func
 317              	ASCII_IsDig:
 318              	.LFB4:
 254:Libraries/uC-LIB/lib_ascii.c **** 
 255:Libraries/uC-LIB/lib_ascii.c **** 
 256:Libraries/uC-LIB/lib_ascii.c **** /*$PAGE*/
 257:Libraries/uC-LIB/lib_ascii.c **** /*
 258:Libraries/uC-LIB/lib_ascii.c **** ***************************************************************************************************
 259:Libraries/uC-LIB/lib_ascii.c **** *                                            ASCII_IsDig()
 260:Libraries/uC-LIB/lib_ascii.c **** *
 261:Libraries/uC-LIB/lib_ascii.c **** * Description : Determine whether a character is a decimal-digit character.
 262:Libraries/uC-LIB/lib_ascii.c **** *
 263:Libraries/uC-LIB/lib_ascii.c **** * Argument(s) : c           Character to examine.
 264:Libraries/uC-LIB/lib_ascii.c **** *
 265:Libraries/uC-LIB/lib_ascii.c **** * Return(s)   : DEF_YES, if character is     a decimal-digit character.
 266:Libraries/uC-LIB/lib_ascii.c **** *
 267:Libraries/uC-LIB/lib_ascii.c **** *               DEF_NO,	 if character is NOT a decimal-digit character.
 268:Libraries/uC-LIB/lib_ascii.c **** *
 269:Libraries/uC-LIB/lib_ascii.c **** * Caller(s)   : Application.
 270:Libraries/uC-LIB/lib_ascii.c **** *
 271:Libraries/uC-LIB/lib_ascii.c **** * Note(s)     : (1) ISO/IEC 9899:TC2, Section 7.4.1.5.(2)  states that "isdigit()  ... tests for an
 272:Libraries/uC-LIB/lib_ascii.c **** *                   decimal-digit character".
 273:Libraries/uC-LIB/lib_ascii.c **** ***************************************************************************************************
 274:Libraries/uC-LIB/lib_ascii.c **** */
 275:Libraries/uC-LIB/lib_ascii.c **** 
 276:Libraries/uC-LIB/lib_ascii.c **** CPU_BOOLEAN  ASCII_IsDig (CPU_CHAR  c)
 277:Libraries/uC-LIB/lib_ascii.c **** {
 319              		.loc 1 277 0
 320              		.cfi_startproc
 321              		@ args = 0, pretend = 0, frame = 16
 322              		@ frame_needed = 1, uses_anonymous_args = 0
 323              		@ link register save eliminated.
 324 0138 80B4     		push	{r7}
 325              	.LCFI12:
 326              		.cfi_def_cfa_offset 4
 327              		.cfi_offset 7, -4
 328 013a 85B0     		sub	sp, sp, #20
 329              	.LCFI13:
 330              		.cfi_def_cfa_offset 24
 331 013c 00AF     		add	r7, sp, #0
 332              	.LCFI14:
 333              		.cfi_def_cfa_register 7
 334 013e 0346     		mov	r3, r0
 335 0140 FB71     		strb	r3, [r7, #7]
 278:Libraries/uC-LIB/lib_ascii.c ****     CPU_BOOLEAN  dig;
 279:Libraries/uC-LIB/lib_ascii.c **** 
 280:Libraries/uC-LIB/lib_ascii.c **** 
 281:Libraries/uC-LIB/lib_ascii.c ****     dig = ASCII_IS_DIG(c);
 336              		.loc 1 281 0
 337 0142 FB79     		ldrb	r3, [r7, #7]	@ zero_extendqisi2
 338 0144 2F2B     		cmp	r3, #47
 339 0146 05D9     		bls	.L29
 340              		.loc 1 281 0 is_stmt 0 discriminator 1
 341 0148 FB79     		ldrb	r3, [r7, #7]	@ zero_extendqisi2
 342 014a 392B     		cmp	r3, #57
 343 014c 02D8     		bhi	.L29
 344 014e 4FF00103 		mov	r3, #1
 345 0152 01E0     		b	.L30
 346              	.L29:
 347              		.loc 1 281 0 discriminator 2
 348 0154 4FF00003 		mov	r3, #0
 349              	.L30:
 350              		.loc 1 281 0 discriminator 3
 351 0158 FB73     		strb	r3, [r7, #15]
 282:Libraries/uC-LIB/lib_ascii.c **** 
 283:Libraries/uC-LIB/lib_ascii.c ****     return (dig);
 352              		.loc 1 283 0 is_stmt 1 discriminator 3
 353 015a FB7B     		ldrb	r3, [r7, #15]	@ zero_extendqisi2
 284:Libraries/uC-LIB/lib_ascii.c **** }
 354              		.loc 1 284 0 discriminator 3
 355 015c 1846     		mov	r0, r3
 356 015e 07F11407 		add	r7, r7, #20
 357 0162 BD46     		mov	sp, r7
 358 0164 80BC     		pop	{r7}
 359 0166 7047     		bx	lr
 360              		.cfi_endproc
 361              	.LFE4:
 363              		.align	2
 364              		.global	ASCII_IsDigOct
 365              		.thumb
 366              		.thumb_func
 368              	ASCII_IsDigOct:
 369              	.LFB5:
 285:Libraries/uC-LIB/lib_ascii.c **** 
 286:Libraries/uC-LIB/lib_ascii.c **** 
 287:Libraries/uC-LIB/lib_ascii.c **** /*
 288:Libraries/uC-LIB/lib_ascii.c **** ***************************************************************************************************
 289:Libraries/uC-LIB/lib_ascii.c **** *                                          ASCII_IsDigOct()
 290:Libraries/uC-LIB/lib_ascii.c **** *
 291:Libraries/uC-LIB/lib_ascii.c **** * Description : Determine whether a character is an octal-digit character.
 292:Libraries/uC-LIB/lib_ascii.c **** *
 293:Libraries/uC-LIB/lib_ascii.c **** * Argument(s) : c           Character to examine.
 294:Libraries/uC-LIB/lib_ascii.c **** *
 295:Libraries/uC-LIB/lib_ascii.c **** * Return(s)   : DEF_YES, if character is     an octal-digit character.
 296:Libraries/uC-LIB/lib_ascii.c **** *
 297:Libraries/uC-LIB/lib_ascii.c **** *               DEF_NO,	 if character is NOT an octal-digit character.
 298:Libraries/uC-LIB/lib_ascii.c **** *
 299:Libraries/uC-LIB/lib_ascii.c **** * Caller(s)   : Application.
 300:Libraries/uC-LIB/lib_ascii.c **** *
 301:Libraries/uC-LIB/lib_ascii.c **** * Note(s)     : none.
 302:Libraries/uC-LIB/lib_ascii.c **** ***************************************************************************************************
 303:Libraries/uC-LIB/lib_ascii.c **** */
 304:Libraries/uC-LIB/lib_ascii.c **** 
 305:Libraries/uC-LIB/lib_ascii.c **** CPU_BOOLEAN  ASCII_IsDigOct (CPU_CHAR  c)
 306:Libraries/uC-LIB/lib_ascii.c **** {
 370              		.loc 1 306 0
 371              		.cfi_startproc
 372              		@ args = 0, pretend = 0, frame = 16
 373              		@ frame_needed = 1, uses_anonymous_args = 0
 374              		@ link register save eliminated.
 375 0168 80B4     		push	{r7}
 376              	.LCFI15:
 377              		.cfi_def_cfa_offset 4
 378              		.cfi_offset 7, -4
 379 016a 85B0     		sub	sp, sp, #20
 380              	.LCFI16:
 381              		.cfi_def_cfa_offset 24
 382 016c 00AF     		add	r7, sp, #0
 383              	.LCFI17:
 384              		.cfi_def_cfa_register 7
 385 016e 0346     		mov	r3, r0
 386 0170 FB71     		strb	r3, [r7, #7]
 307:Libraries/uC-LIB/lib_ascii.c ****     CPU_BOOLEAN  dig_oct;
 308:Libraries/uC-LIB/lib_ascii.c **** 
 309:Libraries/uC-LIB/lib_ascii.c **** 
 310:Libraries/uC-LIB/lib_ascii.c ****     dig_oct = ASCII_IS_DIG_OCT(c);
 387              		.loc 1 310 0
 388 0172 FB79     		ldrb	r3, [r7, #7]	@ zero_extendqisi2
 389 0174 2F2B     		cmp	r3, #47
 390 0176 05D9     		bls	.L32
 391              		.loc 1 310 0 is_stmt 0 discriminator 1
 392 0178 FB79     		ldrb	r3, [r7, #7]	@ zero_extendqisi2
 393 017a 372B     		cmp	r3, #55
 394 017c 02D8     		bhi	.L32
 395 017e 4FF00103 		mov	r3, #1
 396 0182 01E0     		b	.L33
 397              	.L32:
 398              		.loc 1 310 0 discriminator 2
 399 0184 4FF00003 		mov	r3, #0
 400              	.L33:
 401              		.loc 1 310 0 discriminator 3
 402 0188 FB73     		strb	r3, [r7, #15]
 311:Libraries/uC-LIB/lib_ascii.c **** 
 312:Libraries/uC-LIB/lib_ascii.c ****     return (dig_oct);
 403              		.loc 1 312 0 is_stmt 1 discriminator 3
 404 018a FB7B     		ldrb	r3, [r7, #15]	@ zero_extendqisi2
 313:Libraries/uC-LIB/lib_ascii.c **** }
 405              		.loc 1 313 0 discriminator 3
 406 018c 1846     		mov	r0, r3
 407 018e 07F11407 		add	r7, r7, #20
 408 0192 BD46     		mov	sp, r7
 409 0194 80BC     		pop	{r7}
 410 0196 7047     		bx	lr
 411              		.cfi_endproc
 412              	.LFE5:
 414              		.align	2
 415              		.global	ASCII_IsDigHex
 416              		.thumb
 417              		.thumb_func
 419              	ASCII_IsDigHex:
 420              	.LFB6:
 314:Libraries/uC-LIB/lib_ascii.c **** 
 315:Libraries/uC-LIB/lib_ascii.c **** 
 316:Libraries/uC-LIB/lib_ascii.c **** /*
 317:Libraries/uC-LIB/lib_ascii.c **** ***************************************************************************************************
 318:Libraries/uC-LIB/lib_ascii.c **** *                                          ASCII_IsDigHex()
 319:Libraries/uC-LIB/lib_ascii.c **** *
 320:Libraries/uC-LIB/lib_ascii.c **** * Description : Determine whether a character is a hexadecimal-digit character.
 321:Libraries/uC-LIB/lib_ascii.c **** *
 322:Libraries/uC-LIB/lib_ascii.c **** * Argument(s) : c           Character to examine.
 323:Libraries/uC-LIB/lib_ascii.c **** *
 324:Libraries/uC-LIB/lib_ascii.c **** * Return(s)   : DEF_YES, if character is     a hexadecimal-digit character.
 325:Libraries/uC-LIB/lib_ascii.c **** *
 326:Libraries/uC-LIB/lib_ascii.c **** *               DEF_NO,	 if character is NOT a hexadecimal-digit character.
 327:Libraries/uC-LIB/lib_ascii.c **** *
 328:Libraries/uC-LIB/lib_ascii.c **** * Caller(s)   : Application.
 329:Libraries/uC-LIB/lib_ascii.c **** *
 330:Libraries/uC-LIB/lib_ascii.c **** * Note(s)     : (1) ISO/IEC 9899:TC2, Section 7.4.1.12.(2) states that "isxdigit() ... tests for an
 331:Libraries/uC-LIB/lib_ascii.c **** *                   hexadecimal-digit character".
 332:Libraries/uC-LIB/lib_ascii.c **** ***************************************************************************************************
 333:Libraries/uC-LIB/lib_ascii.c **** */
 334:Libraries/uC-LIB/lib_ascii.c **** 
 335:Libraries/uC-LIB/lib_ascii.c **** CPU_BOOLEAN  ASCII_IsDigHex (CPU_CHAR  c)
 336:Libraries/uC-LIB/lib_ascii.c **** {
 421              		.loc 1 336 0
 422              		.cfi_startproc
 423              		@ args = 0, pretend = 0, frame = 16
 424              		@ frame_needed = 1, uses_anonymous_args = 0
 425              		@ link register save eliminated.
 426 0198 80B4     		push	{r7}
 427              	.LCFI18:
 428              		.cfi_def_cfa_offset 4
 429              		.cfi_offset 7, -4
 430 019a 85B0     		sub	sp, sp, #20
 431              	.LCFI19:
 432              		.cfi_def_cfa_offset 24
 433 019c 00AF     		add	r7, sp, #0
 434              	.LCFI20:
 435              		.cfi_def_cfa_register 7
 436 019e 0346     		mov	r3, r0
 437 01a0 FB71     		strb	r3, [r7, #7]
 337:Libraries/uC-LIB/lib_ascii.c ****     CPU_BOOLEAN  dig_hex;
 338:Libraries/uC-LIB/lib_ascii.c **** 
 339:Libraries/uC-LIB/lib_ascii.c **** 
 340:Libraries/uC-LIB/lib_ascii.c ****     dig_hex = ASCII_IS_DIG_HEX(c);
 438              		.loc 1 340 0
 439 01a2 FB79     		ldrb	r3, [r7, #7]	@ zero_extendqisi2
 440 01a4 2F2B     		cmp	r3, #47
 441 01a6 02D9     		bls	.L35
 442              		.loc 1 340 0 is_stmt 0 discriminator 1
 443 01a8 FB79     		ldrb	r3, [r7, #7]	@ zero_extendqisi2
 444 01aa 392B     		cmp	r3, #57
 445 01ac 0BD9     		bls	.L36
 446              	.L35:
 447              		.loc 1 340 0 discriminator 2
 448 01ae FB79     		ldrb	r3, [r7, #7]	@ zero_extendqisi2
 449 01b0 402B     		cmp	r3, #64
 450 01b2 02D9     		bls	.L37
 451 01b4 FB79     		ldrb	r3, [r7, #7]	@ zero_extendqisi2
 452 01b6 462B     		cmp	r3, #70
 453 01b8 05D9     		bls	.L36
 454              	.L37:
 455              		.loc 1 340 0 discriminator 3
 456 01ba FB79     		ldrb	r3, [r7, #7]	@ zero_extendqisi2
 457 01bc 602B     		cmp	r3, #96
 458 01be 05D9     		bls	.L38
 459              		.loc 1 340 0 discriminator 4
 460 01c0 FB79     		ldrb	r3, [r7, #7]	@ zero_extendqisi2
 461 01c2 662B     		cmp	r3, #102
 462 01c4 02D8     		bhi	.L38
 463              	.L36:
 464              		.loc 1 340 0 discriminator 1
 465 01c6 4FF00103 		mov	r3, #1
 466 01ca 01E0     		b	.L39
 467              	.L38:
 468              		.loc 1 340 0 discriminator 5
 469 01cc 4FF00003 		mov	r3, #0
 470              	.L39:
 471              		.loc 1 340 0 discriminator 3
 472 01d0 FB73     		strb	r3, [r7, #15]
 341:Libraries/uC-LIB/lib_ascii.c **** 
 342:Libraries/uC-LIB/lib_ascii.c ****     return (dig_hex);
 473              		.loc 1 342 0 is_stmt 1 discriminator 3
 474 01d2 FB7B     		ldrb	r3, [r7, #15]	@ zero_extendqisi2
 343:Libraries/uC-LIB/lib_ascii.c **** }
 475              		.loc 1 343 0 discriminator 3
 476 01d4 1846     		mov	r0, r3
 477 01d6 07F11407 		add	r7, r7, #20
 478 01da BD46     		mov	sp, r7
 479 01dc 80BC     		pop	{r7}
 480 01de 7047     		bx	lr
 481              		.cfi_endproc
 482              	.LFE6:
 484              		.align	2
 485              		.global	ASCII_IsBlank
 486              		.thumb
 487              		.thumb_func
 489              	ASCII_IsBlank:
 490              	.LFB7:
 344:Libraries/uC-LIB/lib_ascii.c **** 
 345:Libraries/uC-LIB/lib_ascii.c **** 
 346:Libraries/uC-LIB/lib_ascii.c **** /*$PAGE*/
 347:Libraries/uC-LIB/lib_ascii.c **** /*
 348:Libraries/uC-LIB/lib_ascii.c **** ***************************************************************************************************
 349:Libraries/uC-LIB/lib_ascii.c **** *                                           ASCII_IsBlank()
 350:Libraries/uC-LIB/lib_ascii.c **** *
 351:Libraries/uC-LIB/lib_ascii.c **** * Description : Determine whether a character is a standard blank character.
 352:Libraries/uC-LIB/lib_ascii.c **** *
 353:Libraries/uC-LIB/lib_ascii.c **** * Argument(s) : c           Character to examine.
 354:Libraries/uC-LIB/lib_ascii.c **** *
 355:Libraries/uC-LIB/lib_ascii.c **** * Return(s)   : DEF_YES, if character is     a standard blank character.
 356:Libraries/uC-LIB/lib_ascii.c **** *
 357:Libraries/uC-LIB/lib_ascii.c **** *               DEF_NO,	 if character is NOT a standard blank character.
 358:Libraries/uC-LIB/lib_ascii.c **** *
 359:Libraries/uC-LIB/lib_ascii.c **** * Caller(s)   : Application.
 360:Libraries/uC-LIB/lib_ascii.c **** *
 361:Libraries/uC-LIB/lib_ascii.c **** * Note(s)     : (1) (a) ISO/IEC 9899:TC2, Section 7.4.1.3.(2) states that "isblank() returns true o
 362:Libraries/uC-LIB/lib_ascii.c **** *                       the standard blank characters".
 363:Libraries/uC-LIB/lib_ascii.c **** *
 364:Libraries/uC-LIB/lib_ascii.c **** *                   (b) ISO/IEC 9899:TC2, Section 7.4.1.3.(2) defines "the standard blank character
 365:Libraries/uC-LIB/lib_ascii.c **** *                       the "space (' '), and horizontal tab ('\t')".
 366:Libraries/uC-LIB/lib_ascii.c **** ***************************************************************************************************
 367:Libraries/uC-LIB/lib_ascii.c **** */
 368:Libraries/uC-LIB/lib_ascii.c **** 
 369:Libraries/uC-LIB/lib_ascii.c **** CPU_BOOLEAN  ASCII_IsBlank (CPU_CHAR  c)
 370:Libraries/uC-LIB/lib_ascii.c **** {
 491              		.loc 1 370 0
 492              		.cfi_startproc
 493              		@ args = 0, pretend = 0, frame = 16
 494              		@ frame_needed = 1, uses_anonymous_args = 0
 495              		@ link register save eliminated.
 496 01e0 80B4     		push	{r7}
 497              	.LCFI21:
 498              		.cfi_def_cfa_offset 4
 499              		.cfi_offset 7, -4
 500 01e2 85B0     		sub	sp, sp, #20
 501              	.LCFI22:
 502              		.cfi_def_cfa_offset 24
 503 01e4 00AF     		add	r7, sp, #0
 504              	.LCFI23:
 505              		.cfi_def_cfa_register 7
 506 01e6 0346     		mov	r3, r0
 507 01e8 FB71     		strb	r3, [r7, #7]
 371:Libraries/uC-LIB/lib_ascii.c ****     CPU_BOOLEAN  blank;
 372:Libraries/uC-LIB/lib_ascii.c **** 
 373:Libraries/uC-LIB/lib_ascii.c **** 
 374:Libraries/uC-LIB/lib_ascii.c ****     blank = ASCII_IS_BLANK(c);
 508              		.loc 1 374 0
 509 01ea FB79     		ldrb	r3, [r7, #7]	@ zero_extendqisi2
 510 01ec 202B     		cmp	r3, #32
 511 01ee 02D0     		beq	.L41
 512              		.loc 1 374 0 is_stmt 0 discriminator 2
 513 01f0 FB79     		ldrb	r3, [r7, #7]	@ zero_extendqisi2
 514 01f2 092B     		cmp	r3, #9
 515 01f4 02D1     		bne	.L42
 516              	.L41:
 517              		.loc 1 374 0 discriminator 1
 518 01f6 4FF00103 		mov	r3, #1
 519 01fa 01E0     		b	.L43
 520              	.L42:
 521 01fc 4FF00003 		mov	r3, #0
 522              	.L43:
 523              		.loc 1 374 0 discriminator 3
 524 0200 FB73     		strb	r3, [r7, #15]
 375:Libraries/uC-LIB/lib_ascii.c **** 
 376:Libraries/uC-LIB/lib_ascii.c ****     return (blank);
 525              		.loc 1 376 0 is_stmt 1 discriminator 3
 526 0202 FB7B     		ldrb	r3, [r7, #15]	@ zero_extendqisi2
 377:Libraries/uC-LIB/lib_ascii.c **** }
 527              		.loc 1 377 0 discriminator 3
 528 0204 1846     		mov	r0, r3
 529 0206 07F11407 		add	r7, r7, #20
 530 020a BD46     		mov	sp, r7
 531 020c 80BC     		pop	{r7}
 532 020e 7047     		bx	lr
 533              		.cfi_endproc
 534              	.LFE7:
 536              		.align	2
 537              		.global	ASCII_IsSpace
 538              		.thumb
 539              		.thumb_func
 541              	ASCII_IsSpace:
 542              	.LFB8:
 378:Libraries/uC-LIB/lib_ascii.c **** 
 379:Libraries/uC-LIB/lib_ascii.c **** 
 380:Libraries/uC-LIB/lib_ascii.c **** /*
 381:Libraries/uC-LIB/lib_ascii.c **** ***************************************************************************************************
 382:Libraries/uC-LIB/lib_ascii.c **** *                                           ASCII_IsSpace()
 383:Libraries/uC-LIB/lib_ascii.c **** *
 384:Libraries/uC-LIB/lib_ascii.c **** * Description : Determine whether a character is a white-space character.
 385:Libraries/uC-LIB/lib_ascii.c **** *
 386:Libraries/uC-LIB/lib_ascii.c **** * Argument(s) : c           Character to examine.
 387:Libraries/uC-LIB/lib_ascii.c **** *
 388:Libraries/uC-LIB/lib_ascii.c **** * Return(s)   : DEF_YES, if character is     a white-space character.
 389:Libraries/uC-LIB/lib_ascii.c **** *
 390:Libraries/uC-LIB/lib_ascii.c **** *               DEF_NO,	 if character is NOT a white-space character.
 391:Libraries/uC-LIB/lib_ascii.c **** *
 392:Libraries/uC-LIB/lib_ascii.c **** * Caller(s)   : Application.
 393:Libraries/uC-LIB/lib_ascii.c **** *
 394:Libraries/uC-LIB/lib_ascii.c **** * Note(s)     : (1) (a) ISO/IEC 9899:TC2, Section 7.4.1.10.(2) states that "isspace() returns true 
 395:Libraries/uC-LIB/lib_ascii.c **** *                       for the standard white-space characters".
 396:Libraries/uC-LIB/lib_ascii.c **** *
 397:Libraries/uC-LIB/lib_ascii.c **** *                   (b) ISO/IEC 9899:TC2, Section 7.4.1.10.(2) defines "the standard white-space ch
 398:Libraries/uC-LIB/lib_ascii.c **** *                       as the "space (' '), form feed ('\f'), new-line ('\n'), carriage return ('\
 399:Libraries/uC-LIB/lib_ascii.c **** *                       horizontal tab ('\t'), and vertical tab ('\v')".
 400:Libraries/uC-LIB/lib_ascii.c **** ***************************************************************************************************
 401:Libraries/uC-LIB/lib_ascii.c **** */
 402:Libraries/uC-LIB/lib_ascii.c **** 
 403:Libraries/uC-LIB/lib_ascii.c **** CPU_BOOLEAN  ASCII_IsSpace (CPU_CHAR  c)
 404:Libraries/uC-LIB/lib_ascii.c **** {
 543              		.loc 1 404 0
 544              		.cfi_startproc
 545              		@ args = 0, pretend = 0, frame = 16
 546              		@ frame_needed = 1, uses_anonymous_args = 0
 547              		@ link register save eliminated.
 548 0210 80B4     		push	{r7}
 549              	.LCFI24:
 550              		.cfi_def_cfa_offset 4
 551              		.cfi_offset 7, -4
 552 0212 85B0     		sub	sp, sp, #20
 553              	.LCFI25:
 554              		.cfi_def_cfa_offset 24
 555 0214 00AF     		add	r7, sp, #0
 556              	.LCFI26:
 557              		.cfi_def_cfa_register 7
 558 0216 0346     		mov	r3, r0
 559 0218 FB71     		strb	r3, [r7, #7]
 405:Libraries/uC-LIB/lib_ascii.c ****     CPU_BOOLEAN  space;
 406:Libraries/uC-LIB/lib_ascii.c **** 
 407:Libraries/uC-LIB/lib_ascii.c **** 
 408:Libraries/uC-LIB/lib_ascii.c ****     space = ASCII_IS_SPACE(c);
 560              		.loc 1 408 0
 561 021a FB79     		ldrb	r3, [r7, #7]	@ zero_extendqisi2
 562 021c 202B     		cmp	r3, #32
 563 021e 0ED0     		beq	.L45
 564              		.loc 1 408 0 is_stmt 0 discriminator 2
 565 0220 FB79     		ldrb	r3, [r7, #7]	@ zero_extendqisi2
 566 0222 0D2B     		cmp	r3, #13
 567 0224 0BD0     		beq	.L45
 568              		.loc 1 408 0 discriminator 1
 569 0226 FB79     		ldrb	r3, [r7, #7]	@ zero_extendqisi2
 570 0228 0A2B     		cmp	r3, #10
 571 022a 08D0     		beq	.L45
 572              		.loc 1 408 0 discriminator 2
 573 022c FB79     		ldrb	r3, [r7, #7]	@ zero_extendqisi2
 574 022e 0C2B     		cmp	r3, #12
 575 0230 05D0     		beq	.L45
 576              		.loc 1 408 0 discriminator 3
 577 0232 FB79     		ldrb	r3, [r7, #7]	@ zero_extendqisi2
 578 0234 092B     		cmp	r3, #9
 579 0236 02D0     		beq	.L45
 580              		.loc 1 408 0 discriminator 4
 581 0238 FB79     		ldrb	r3, [r7, #7]	@ zero_extendqisi2
 582 023a 0B2B     		cmp	r3, #11
 583 023c 02D1     		bne	.L46
 584              	.L45:
 585              		.loc 1 408 0 discriminator 1
 586 023e 4FF00103 		mov	r3, #1
 587 0242 01E0     		b	.L47
 588              	.L46:
 589              		.loc 1 408 0 discriminator 5
 590 0244 4FF00003 		mov	r3, #0
 591              	.L47:
 592              		.loc 1 408 0 discriminator 3
 593 0248 FB73     		strb	r3, [r7, #15]
 409:Libraries/uC-LIB/lib_ascii.c **** 
 410:Libraries/uC-LIB/lib_ascii.c ****     return (space);
 594              		.loc 1 410 0 is_stmt 1 discriminator 3
 595 024a FB7B     		ldrb	r3, [r7, #15]	@ zero_extendqisi2
 411:Libraries/uC-LIB/lib_ascii.c **** }
 596              		.loc 1 411 0 discriminator 3
 597 024c 1846     		mov	r0, r3
 598 024e 07F11407 		add	r7, r7, #20
 599 0252 BD46     		mov	sp, r7
 600 0254 80BC     		pop	{r7}
 601 0256 7047     		bx	lr
 602              		.cfi_endproc
 603              	.LFE8:
 605              		.align	2
 606              		.global	ASCII_IsPrint
 607              		.thumb
 608              		.thumb_func
 610              	ASCII_IsPrint:
 611              	.LFB9:
 412:Libraries/uC-LIB/lib_ascii.c **** 
 413:Libraries/uC-LIB/lib_ascii.c **** 
 414:Libraries/uC-LIB/lib_ascii.c **** /*$PAGE*/
 415:Libraries/uC-LIB/lib_ascii.c **** /*
 416:Libraries/uC-LIB/lib_ascii.c **** ***************************************************************************************************
 417:Libraries/uC-LIB/lib_ascii.c **** *                                           ASCII_IsPrint()
 418:Libraries/uC-LIB/lib_ascii.c **** *
 419:Libraries/uC-LIB/lib_ascii.c **** * Description : Determine whether a character is a printing character.
 420:Libraries/uC-LIB/lib_ascii.c **** *
 421:Libraries/uC-LIB/lib_ascii.c **** * Argument(s) : c           Character to examine.
 422:Libraries/uC-LIB/lib_ascii.c **** *
 423:Libraries/uC-LIB/lib_ascii.c **** * Return(s)   : DEF_YES, if character is     a printing character.
 424:Libraries/uC-LIB/lib_ascii.c **** *
 425:Libraries/uC-LIB/lib_ascii.c **** *               DEF_NO,	 if character is NOT a printing character.
 426:Libraries/uC-LIB/lib_ascii.c **** *
 427:Libraries/uC-LIB/lib_ascii.c **** * Caller(s)   : Application.
 428:Libraries/uC-LIB/lib_ascii.c **** *
 429:Libraries/uC-LIB/lib_ascii.c **** * Note(s)     : (1) (a) ISO/IEC 9899:TC2, Section 7.4.1.8.(2) states that "isprint() ... tests for 
 430:Libraries/uC-LIB/lib_ascii.c **** *                       printing character including space (' ')".
 431:Libraries/uC-LIB/lib_ascii.c **** *
 432:Libraries/uC-LIB/lib_ascii.c **** *                   (b) ISO/IEC 9899:TC2, Section 7.4.(3), Note 169, states that in "the seven-bit 
 433:Libraries/uC-LIB/lib_ascii.c **** *                       ASCII character set, the printing characters are those whose values lie fro
 434:Libraries/uC-LIB/lib_ascii.c **** *                       0x20 (space) through 0x7E (tilde)".
 435:Libraries/uC-LIB/lib_ascii.c **** ***************************************************************************************************
 436:Libraries/uC-LIB/lib_ascii.c **** */
 437:Libraries/uC-LIB/lib_ascii.c **** 
 438:Libraries/uC-LIB/lib_ascii.c **** CPU_BOOLEAN  ASCII_IsPrint (CPU_CHAR  c)
 439:Libraries/uC-LIB/lib_ascii.c **** {
 612              		.loc 1 439 0
 613              		.cfi_startproc
 614              		@ args = 0, pretend = 0, frame = 16
 615              		@ frame_needed = 1, uses_anonymous_args = 0
 616              		@ link register save eliminated.
 617 0258 80B4     		push	{r7}
 618              	.LCFI27:
 619              		.cfi_def_cfa_offset 4
 620              		.cfi_offset 7, -4
 621 025a 85B0     		sub	sp, sp, #20
 622              	.LCFI28:
 623              		.cfi_def_cfa_offset 24
 624 025c 00AF     		add	r7, sp, #0
 625              	.LCFI29:
 626              		.cfi_def_cfa_register 7
 627 025e 0346     		mov	r3, r0
 628 0260 FB71     		strb	r3, [r7, #7]
 440:Libraries/uC-LIB/lib_ascii.c ****     CPU_BOOLEAN  print;
 441:Libraries/uC-LIB/lib_ascii.c **** 
 442:Libraries/uC-LIB/lib_ascii.c **** 
 443:Libraries/uC-LIB/lib_ascii.c ****     print = ASCII_IS_PRINT(c);
 629              		.loc 1 443 0
 630 0262 FB79     		ldrb	r3, [r7, #7]	@ zero_extendqisi2
 631 0264 1F2B     		cmp	r3, #31
 632 0266 05D9     		bls	.L49
 633              		.loc 1 443 0 is_stmt 0 discriminator 1
 634 0268 FB79     		ldrb	r3, [r7, #7]	@ zero_extendqisi2
 635 026a 7E2B     		cmp	r3, #126
 636 026c 02D8     		bhi	.L49
 637 026e 4FF00103 		mov	r3, #1
 638 0272 01E0     		b	.L50
 639              	.L49:
 640              		.loc 1 443 0 discriminator 2
 641 0274 4FF00003 		mov	r3, #0
 642              	.L50:
 643              		.loc 1 443 0 discriminator 3
 644 0278 FB73     		strb	r3, [r7, #15]
 444:Libraries/uC-LIB/lib_ascii.c **** 
 445:Libraries/uC-LIB/lib_ascii.c ****     return (print);
 645              		.loc 1 445 0 is_stmt 1 discriminator 3
 646 027a FB7B     		ldrb	r3, [r7, #15]	@ zero_extendqisi2
 446:Libraries/uC-LIB/lib_ascii.c **** }
 647              		.loc 1 446 0 discriminator 3
 648 027c 1846     		mov	r0, r3
 649 027e 07F11407 		add	r7, r7, #20
 650 0282 BD46     		mov	sp, r7
 651 0284 80BC     		pop	{r7}
 652 0286 7047     		bx	lr
 653              		.cfi_endproc
 654              	.LFE9:
 656              		.align	2
 657              		.global	ASCII_IsGraph
 658              		.thumb
 659              		.thumb_func
 661              	ASCII_IsGraph:
 662              	.LFB10:
 447:Libraries/uC-LIB/lib_ascii.c **** 
 448:Libraries/uC-LIB/lib_ascii.c **** 
 449:Libraries/uC-LIB/lib_ascii.c **** /*
 450:Libraries/uC-LIB/lib_ascii.c **** ***************************************************************************************************
 451:Libraries/uC-LIB/lib_ascii.c **** *                                           ASCII_IsGraph()
 452:Libraries/uC-LIB/lib_ascii.c **** *
 453:Libraries/uC-LIB/lib_ascii.c **** * Description : Determine whether a character is any printing character except a space character.
 454:Libraries/uC-LIB/lib_ascii.c **** *
 455:Libraries/uC-LIB/lib_ascii.c **** * Argument(s) : c           Character to examine.
 456:Libraries/uC-LIB/lib_ascii.c **** *
 457:Libraries/uC-LIB/lib_ascii.c **** * Return(s)   : DEF_YES, if character is     a graphic character.
 458:Libraries/uC-LIB/lib_ascii.c **** *
 459:Libraries/uC-LIB/lib_ascii.c **** *               DEF_NO,	 if character is NOT a graphic character.
 460:Libraries/uC-LIB/lib_ascii.c **** *
 461:Libraries/uC-LIB/lib_ascii.c **** * Caller(s)   : Application.
 462:Libraries/uC-LIB/lib_ascii.c **** *
 463:Libraries/uC-LIB/lib_ascii.c **** * Note(s)     : (1) (a) ISO/IEC 9899:TC2, Section 7.4.1.6.(2) states that "isgraph() ... tests for 
 464:Libraries/uC-LIB/lib_ascii.c **** *                       printing character except space (' ')".
 465:Libraries/uC-LIB/lib_ascii.c **** *
 466:Libraries/uC-LIB/lib_ascii.c **** *                   (b) ISO/IEC 9899:TC2, Section 7.4.(3), Note 169, states that in "the seven-bit 
 467:Libraries/uC-LIB/lib_ascii.c **** *                       ASCII character set, the printing characters are those whose values lie fro
 468:Libraries/uC-LIB/lib_ascii.c **** *                       0x20 (space) through 0x7E (tilde)".
 469:Libraries/uC-LIB/lib_ascii.c **** ***************************************************************************************************
 470:Libraries/uC-LIB/lib_ascii.c **** */
 471:Libraries/uC-LIB/lib_ascii.c **** 
 472:Libraries/uC-LIB/lib_ascii.c **** CPU_BOOLEAN  ASCII_IsGraph (CPU_CHAR  c)
 473:Libraries/uC-LIB/lib_ascii.c **** {
 663              		.loc 1 473 0
 664              		.cfi_startproc
 665              		@ args = 0, pretend = 0, frame = 16
 666              		@ frame_needed = 1, uses_anonymous_args = 0
 667              		@ link register save eliminated.
 668 0288 80B4     		push	{r7}
 669              	.LCFI30:
 670              		.cfi_def_cfa_offset 4
 671              		.cfi_offset 7, -4
 672 028a 85B0     		sub	sp, sp, #20
 673              	.LCFI31:
 674              		.cfi_def_cfa_offset 24
 675 028c 00AF     		add	r7, sp, #0
 676              	.LCFI32:
 677              		.cfi_def_cfa_register 7
 678 028e 0346     		mov	r3, r0
 679 0290 FB71     		strb	r3, [r7, #7]
 474:Libraries/uC-LIB/lib_ascii.c ****     CPU_BOOLEAN  graph;
 475:Libraries/uC-LIB/lib_ascii.c **** 
 476:Libraries/uC-LIB/lib_ascii.c **** 
 477:Libraries/uC-LIB/lib_ascii.c ****     graph = ASCII_IS_GRAPH(c);
 680              		.loc 1 477 0
 681 0292 FB79     		ldrb	r3, [r7, #7]	@ zero_extendqisi2
 682 0294 202B     		cmp	r3, #32
 683 0296 05D9     		bls	.L52
 684              		.loc 1 477 0 is_stmt 0 discriminator 1
 685 0298 FB79     		ldrb	r3, [r7, #7]	@ zero_extendqisi2
 686 029a 7E2B     		cmp	r3, #126
 687 029c 02D8     		bhi	.L52
 688 029e 4FF00103 		mov	r3, #1
 689 02a2 01E0     		b	.L53
 690              	.L52:
 691              		.loc 1 477 0 discriminator 2
 692 02a4 4FF00003 		mov	r3, #0
 693              	.L53:
 694              		.loc 1 477 0 discriminator 3
 695 02a8 FB73     		strb	r3, [r7, #15]
 478:Libraries/uC-LIB/lib_ascii.c **** 
 479:Libraries/uC-LIB/lib_ascii.c ****     return (graph);
 696              		.loc 1 479 0 is_stmt 1 discriminator 3
 697 02aa FB7B     		ldrb	r3, [r7, #15]	@ zero_extendqisi2
 480:Libraries/uC-LIB/lib_ascii.c **** }
 698              		.loc 1 480 0 discriminator 3
 699 02ac 1846     		mov	r0, r3
 700 02ae 07F11407 		add	r7, r7, #20
 701 02b2 BD46     		mov	sp, r7
 702 02b4 80BC     		pop	{r7}
 703 02b6 7047     		bx	lr
 704              		.cfi_endproc
 705              	.LFE10:
 707              		.align	2
 708              		.global	ASCII_IsPunct
 709              		.thumb
 710              		.thumb_func
 712              	ASCII_IsPunct:
 713              	.LFB11:
 481:Libraries/uC-LIB/lib_ascii.c **** 
 482:Libraries/uC-LIB/lib_ascii.c **** 
 483:Libraries/uC-LIB/lib_ascii.c **** /*$PAGE*/
 484:Libraries/uC-LIB/lib_ascii.c **** /*
 485:Libraries/uC-LIB/lib_ascii.c **** ***************************************************************************************************
 486:Libraries/uC-LIB/lib_ascii.c **** *                                           ASCII_IsPunct()
 487:Libraries/uC-LIB/lib_ascii.c **** *
 488:Libraries/uC-LIB/lib_ascii.c **** * Description : Determine whether a character is a punctuation character.
 489:Libraries/uC-LIB/lib_ascii.c **** *
 490:Libraries/uC-LIB/lib_ascii.c **** * Argument(s) : c           Character to examine.
 491:Libraries/uC-LIB/lib_ascii.c **** *
 492:Libraries/uC-LIB/lib_ascii.c **** * Return(s)   : DEF_YES, if character is     a punctuation character.
 493:Libraries/uC-LIB/lib_ascii.c **** *
 494:Libraries/uC-LIB/lib_ascii.c **** *               DEF_NO,	 if character is NOT a punctuation character.
 495:Libraries/uC-LIB/lib_ascii.c **** *
 496:Libraries/uC-LIB/lib_ascii.c **** * Caller(s)   : Application.
 497:Libraries/uC-LIB/lib_ascii.c **** *
 498:Libraries/uC-LIB/lib_ascii.c **** * Note(s)     : (1) ISO/IEC 9899:TC2, Section 7.4.1.9.(2) states that "ispunct() returns true for e
 499:Libraries/uC-LIB/lib_ascii.c **** *                   printing character for which neither isspace() nor isalnum() is true".
 500:Libraries/uC-LIB/lib_ascii.c **** ***************************************************************************************************
 501:Libraries/uC-LIB/lib_ascii.c **** */
 502:Libraries/uC-LIB/lib_ascii.c **** 
 503:Libraries/uC-LIB/lib_ascii.c **** CPU_BOOLEAN  ASCII_IsPunct (CPU_CHAR  c)
 504:Libraries/uC-LIB/lib_ascii.c **** {
 714              		.loc 1 504 0
 715              		.cfi_startproc
 716              		@ args = 0, pretend = 0, frame = 16
 717              		@ frame_needed = 1, uses_anonymous_args = 0
 718              		@ link register save eliminated.
 719 02b8 80B4     		push	{r7}
 720              	.LCFI33:
 721              		.cfi_def_cfa_offset 4
 722              		.cfi_offset 7, -4
 723 02ba 85B0     		sub	sp, sp, #20
 724              	.LCFI34:
 725              		.cfi_def_cfa_offset 24
 726 02bc 00AF     		add	r7, sp, #0
 727              	.LCFI35:
 728              		.cfi_def_cfa_register 7
 729 02be 0346     		mov	r3, r0
 730 02c0 FB71     		strb	r3, [r7, #7]
 505:Libraries/uC-LIB/lib_ascii.c ****     CPU_BOOLEAN  punct;
 506:Libraries/uC-LIB/lib_ascii.c **** 
 507:Libraries/uC-LIB/lib_ascii.c **** 
 508:Libraries/uC-LIB/lib_ascii.c ****     punct = ASCII_IS_PUNCT(c);
 731              		.loc 1 508 0
 732 02c2 FB79     		ldrb	r3, [r7, #7]	@ zero_extendqisi2
 733 02c4 1F2B     		cmp	r3, #31
 734 02c6 05D9     		bls	.L55
 735              		.loc 1 508 0 is_stmt 0 discriminator 1
 736 02c8 FB79     		ldrb	r3, [r7, #7]	@ zero_extendqisi2
 737 02ca 7E2B     		cmp	r3, #126
 738 02cc 02D8     		bhi	.L55
 739              		.loc 1 508 0 discriminator 3
 740 02ce 4FF00103 		mov	r3, #1
 741 02d2 01E0     		b	.L56
 742              	.L55:
 743              		.loc 1 508 0 discriminator 2
 744 02d4 4FF00003 		mov	r3, #0
 745              	.L56:
 746              		.loc 1 508 0 discriminator 4
 747 02d8 012B     		cmp	r3, #1
 748 02da 50D1     		bne	.L57
 749              		.loc 1 508 0 discriminator 1
 750 02dc FB79     		ldrb	r3, [r7, #7]	@ zero_extendqisi2
 751 02de 202B     		cmp	r3, #32
 752 02e0 0ED0     		beq	.L58
 753              		.loc 1 508 0 discriminator 6
 754 02e2 FB79     		ldrb	r3, [r7, #7]	@ zero_extendqisi2
 755 02e4 0D2B     		cmp	r3, #13
 756 02e6 0BD0     		beq	.L58
 757              		.loc 1 508 0 discriminator 7
 758 02e8 FB79     		ldrb	r3, [r7, #7]	@ zero_extendqisi2
 759 02ea 0A2B     		cmp	r3, #10
 760 02ec 08D0     		beq	.L58
 761              		.loc 1 508 0 discriminator 8
 762 02ee FB79     		ldrb	r3, [r7, #7]	@ zero_extendqisi2
 763 02f0 0C2B     		cmp	r3, #12
 764 02f2 05D0     		beq	.L58
 765              		.loc 1 508 0 discriminator 9
 766 02f4 FB79     		ldrb	r3, [r7, #7]	@ zero_extendqisi2
 767 02f6 092B     		cmp	r3, #9
 768 02f8 02D0     		beq	.L58
 769              		.loc 1 508 0 discriminator 10
 770 02fa FB79     		ldrb	r3, [r7, #7]	@ zero_extendqisi2
 771 02fc 0B2B     		cmp	r3, #11
 772 02fe 02D1     		bne	.L59
 773              	.L58:
 774              		.loc 1 508 0 discriminator 5
 775 0300 4FF00103 		mov	r3, #1
 776 0304 01E0     		b	.L60
 777              	.L59:
 778              		.loc 1 508 0 discriminator 11
 779 0306 4FF00003 		mov	r3, #0
 780              	.L60:
 781              		.loc 1 508 0 discriminator 12
 782 030a 002B     		cmp	r3, #0
 783 030c 37D1     		bne	.L57
 784              		.loc 1 508 0 discriminator 13
 785 030e FB79     		ldrb	r3, [r7, #7]	@ zero_extendqisi2
 786 0310 402B     		cmp	r3, #64
 787 0312 05D9     		bls	.L61
 788              		.loc 1 508 0 discriminator 14
 789 0314 FB79     		ldrb	r3, [r7, #7]	@ zero_extendqisi2
 790 0316 5A2B     		cmp	r3, #90
 791 0318 02D8     		bhi	.L61
 792              		.loc 1 508 0 discriminator 16
 793 031a 4FF00103 		mov	r3, #1
 794 031e 01E0     		b	.L62
 795              	.L61:
 796              		.loc 1 508 0 discriminator 15
 797 0320 4FF00003 		mov	r3, #0
 798              	.L62:
 799              		.loc 1 508 0 discriminator 17
 800 0324 012B     		cmp	r3, #1
 801 0326 0CD0     		beq	.L63
 802              		.loc 1 508 0 discriminator 19
 803 0328 FB79     		ldrb	r3, [r7, #7]	@ zero_extendqisi2
 804 032a 602B     		cmp	r3, #96
 805 032c 05D9     		bls	.L64
 806              		.loc 1 508 0 discriminator 20
 807 032e FB79     		ldrb	r3, [r7, #7]	@ zero_extendqisi2
 808 0330 7A2B     		cmp	r3, #122
 809 0332 02D8     		bhi	.L64
 810              		.loc 1 508 0 discriminator 22
 811 0334 4FF00103 		mov	r3, #1
 812 0338 01E0     		b	.L65
 813              	.L64:
 814              		.loc 1 508 0 discriminator 21
 815 033a 4FF00003 		mov	r3, #0
 816              	.L65:
 817              		.loc 1 508 0 discriminator 23
 818 033e 012B     		cmp	r3, #1
 819 0340 02D1     		bne	.L66
 820              	.L63:
 821              		.loc 1 508 0 discriminator 18
 822 0342 4FF00103 		mov	r3, #1
 823 0346 01E0     		b	.L67
 824              	.L66:
 825              		.loc 1 508 0 discriminator 24
 826 0348 4FF00003 		mov	r3, #0
 827              	.L67:
 828              		.loc 1 508 0 discriminator 25
 829 034c 012B     		cmp	r3, #1
 830 034e 0CD0     		beq	.L68
 831              		.loc 1 508 0 discriminator 27
 832 0350 FB79     		ldrb	r3, [r7, #7]	@ zero_extendqisi2
 833 0352 2F2B     		cmp	r3, #47
 834 0354 05D9     		bls	.L69
 835              		.loc 1 508 0 discriminator 28
 836 0356 FB79     		ldrb	r3, [r7, #7]	@ zero_extendqisi2
 837 0358 392B     		cmp	r3, #57
 838 035a 02D8     		bhi	.L69
 839              		.loc 1 508 0 discriminator 30
 840 035c 4FF00103 		mov	r3, #1
 841 0360 01E0     		b	.L70
 842              	.L69:
 843              		.loc 1 508 0 discriminator 29
 844 0362 4FF00003 		mov	r3, #0
 845              	.L70:
 846              		.loc 1 508 0 discriminator 31
 847 0366 012B     		cmp	r3, #1
 848 0368 02D1     		bne	.L71
 849              	.L68:
 850              		.loc 1 508 0 discriminator 26
 851 036a 4FF00103 		mov	r3, #1
 852 036e 01E0     		b	.L72
 853              	.L71:
 854              		.loc 1 508 0 discriminator 32
 855 0370 4FF00003 		mov	r3, #0
 856              	.L72:
 857              		.loc 1 508 0 discriminator 33
 858 0374 002B     		cmp	r3, #0
 859 0376 02D1     		bne	.L57
 860              		.loc 1 508 0 discriminator 34
 861 0378 4FF00103 		mov	r3, #1
 862 037c 01E0     		b	.L73
 863              	.L57:
 864              		.loc 1 508 0 discriminator 2
 865 037e 4FF00003 		mov	r3, #0
 866              	.L73:
 867              		.loc 1 508 0 discriminator 3
 868 0382 FB73     		strb	r3, [r7, #15]
 509:Libraries/uC-LIB/lib_ascii.c **** 
 510:Libraries/uC-LIB/lib_ascii.c ****     return (punct);
 869              		.loc 1 510 0 is_stmt 1 discriminator 3
 870 0384 FB7B     		ldrb	r3, [r7, #15]	@ zero_extendqisi2
 511:Libraries/uC-LIB/lib_ascii.c **** }
 871              		.loc 1 511 0 discriminator 3
 872 0386 1846     		mov	r0, r3
 873 0388 07F11407 		add	r7, r7, #20
 874 038c BD46     		mov	sp, r7
 875 038e 80BC     		pop	{r7}
 876 0390 7047     		bx	lr
 877              		.cfi_endproc
 878              	.LFE11:
 880 0392 00BF     		.align	2
 881              		.global	ASCII_IsCtrl
 882              		.thumb
 883              		.thumb_func
 885              	ASCII_IsCtrl:
 886              	.LFB12:
 512:Libraries/uC-LIB/lib_ascii.c **** 
 513:Libraries/uC-LIB/lib_ascii.c **** 
 514:Libraries/uC-LIB/lib_ascii.c **** /*
 515:Libraries/uC-LIB/lib_ascii.c **** ***************************************************************************************************
 516:Libraries/uC-LIB/lib_ascii.c **** *                                           ASCII_IsCtrl()
 517:Libraries/uC-LIB/lib_ascii.c **** *
 518:Libraries/uC-LIB/lib_ascii.c **** * Description : Determine whether a character is a control character.
 519:Libraries/uC-LIB/lib_ascii.c **** *
 520:Libraries/uC-LIB/lib_ascii.c **** * Argument(s) : c           Character to examine.
 521:Libraries/uC-LIB/lib_ascii.c **** *
 522:Libraries/uC-LIB/lib_ascii.c **** * Return(s)   : DEF_YES, if character is     a control character.
 523:Libraries/uC-LIB/lib_ascii.c **** *
 524:Libraries/uC-LIB/lib_ascii.c **** *               DEF_NO,	 if character is NOT a control character.
 525:Libraries/uC-LIB/lib_ascii.c **** *
 526:Libraries/uC-LIB/lib_ascii.c **** * Caller(s)   : Application.
 527:Libraries/uC-LIB/lib_ascii.c **** *
 528:Libraries/uC-LIB/lib_ascii.c **** * Note(s)     : (1) (a) ISO/IEC 9899:TC2, Section 7.4.1.4.(2) states that "iscntrl() ... tests for 
 529:Libraries/uC-LIB/lib_ascii.c **** *                       control character".
 530:Libraries/uC-LIB/lib_ascii.c **** *
 531:Libraries/uC-LIB/lib_ascii.c **** *                   (b) ISO/IEC 9899:TC2, Section 7.4.(3), Note 169, states that in "the seven-bit 
 532:Libraries/uC-LIB/lib_ascii.c **** *                       ASCII character set, ... the control characters are those whose values lie 
 533:Libraries/uC-LIB/lib_ascii.c **** *                       0 (NUL) through 0x1F (US), and the character 0x7F (DEL)".
 534:Libraries/uC-LIB/lib_ascii.c **** ***************************************************************************************************
 535:Libraries/uC-LIB/lib_ascii.c **** */
 536:Libraries/uC-LIB/lib_ascii.c **** 
 537:Libraries/uC-LIB/lib_ascii.c **** CPU_BOOLEAN  ASCII_IsCtrl (CPU_CHAR  c)
 538:Libraries/uC-LIB/lib_ascii.c **** {
 887              		.loc 1 538 0
 888              		.cfi_startproc
 889              		@ args = 0, pretend = 0, frame = 16
 890              		@ frame_needed = 1, uses_anonymous_args = 0
 891              		@ link register save eliminated.
 892 0394 80B4     		push	{r7}
 893              	.LCFI36:
 894              		.cfi_def_cfa_offset 4
 895              		.cfi_offset 7, -4
 896 0396 85B0     		sub	sp, sp, #20
 897              	.LCFI37:
 898              		.cfi_def_cfa_offset 24
 899 0398 00AF     		add	r7, sp, #0
 900              	.LCFI38:
 901              		.cfi_def_cfa_register 7
 902 039a 0346     		mov	r3, r0
 903 039c FB71     		strb	r3, [r7, #7]
 539:Libraries/uC-LIB/lib_ascii.c ****     CPU_BOOLEAN  ctrl;
 540:Libraries/uC-LIB/lib_ascii.c **** 
 541:Libraries/uC-LIB/lib_ascii.c **** 
 542:Libraries/uC-LIB/lib_ascii.c ****     ctrl = ASCII_IS_CTRL(c);
 904              		.loc 1 542 0
 905 039e FB79     		ldrb	r3, [r7, #7]	@ zero_extendqisi2
 906 03a0 5BB2     		sxtb	r3, r3
 907 03a2 002B     		cmp	r3, #0
 908 03a4 02DB     		blt	.L75
 909              		.loc 1 542 0 is_stmt 0 discriminator 1
 910 03a6 FB79     		ldrb	r3, [r7, #7]	@ zero_extendqisi2
 911 03a8 1F2B     		cmp	r3, #31
 912 03aa 02D9     		bls	.L76
 913              	.L75:
 914              		.loc 1 542 0 discriminator 2
 915 03ac FB79     		ldrb	r3, [r7, #7]	@ zero_extendqisi2
 916 03ae 7F2B     		cmp	r3, #127
 917 03b0 02D1     		bne	.L77
 918              	.L76:
 919              		.loc 1 542 0 discriminator 1
 920 03b2 4FF00103 		mov	r3, #1
 921 03b6 01E0     		b	.L78
 922              	.L77:
 923              		.loc 1 542 0 discriminator 2
 924 03b8 4FF00003 		mov	r3, #0
 925              	.L78:
 926              		.loc 1 542 0 discriminator 3
 927 03bc FB73     		strb	r3, [r7, #15]
 543:Libraries/uC-LIB/lib_ascii.c **** 
 544:Libraries/uC-LIB/lib_ascii.c ****     return (ctrl);
 928              		.loc 1 544 0 is_stmt 1 discriminator 3
 929 03be FB7B     		ldrb	r3, [r7, #15]	@ zero_extendqisi2
 545:Libraries/uC-LIB/lib_ascii.c **** }
 930              		.loc 1 545 0 discriminator 3
 931 03c0 1846     		mov	r0, r3
 932 03c2 07F11407 		add	r7, r7, #20
 933 03c6 BD46     		mov	sp, r7
 934 03c8 80BC     		pop	{r7}
 935 03ca 7047     		bx	lr
 936              		.cfi_endproc
 937              	.LFE12:
 939              		.align	2
 940              		.global	ASCII_ToLower
 941              		.thumb
 942              		.thumb_func
 944              	ASCII_ToLower:
 945              	.LFB13:
 546:Libraries/uC-LIB/lib_ascii.c **** 
 547:Libraries/uC-LIB/lib_ascii.c **** 
 548:Libraries/uC-LIB/lib_ascii.c **** /*$PAGE*/
 549:Libraries/uC-LIB/lib_ascii.c **** /*
 550:Libraries/uC-LIB/lib_ascii.c **** ***************************************************************************************************
 551:Libraries/uC-LIB/lib_ascii.c **** *                                           ASCII_ToLower()
 552:Libraries/uC-LIB/lib_ascii.c **** *
 553:Libraries/uC-LIB/lib_ascii.c **** * Description : Convert uppercase alphabetic character to its corresponding lowercase alphabetic ch
 554:Libraries/uC-LIB/lib_ascii.c **** *
 555:Libraries/uC-LIB/lib_ascii.c **** * Argument(s) : c           Character to convert.
 556:Libraries/uC-LIB/lib_ascii.c **** *
 557:Libraries/uC-LIB/lib_ascii.c **** * Return(s)   : Lowercase equivalent of 'c', if character 'c' is an uppercase character (see Note #
 558:Libraries/uC-LIB/lib_ascii.c **** *
 559:Libraries/uC-LIB/lib_ascii.c **** *               Character 'c',               otherwise                                  (see Note #
 560:Libraries/uC-LIB/lib_ascii.c **** *
 561:Libraries/uC-LIB/lib_ascii.c **** * Caller(s)   : Application.
 562:Libraries/uC-LIB/lib_ascii.c **** *
 563:Libraries/uC-LIB/lib_ascii.c **** * Note(s)     : (1) (a) ISO/IEC 9899:TC2, Section 7.4.2.1.(2) states that "tolower() ... converts a
 564:Libraries/uC-LIB/lib_ascii.c **** *                       uppercase letter to a corresponding lowercase letter".
 565:Libraries/uC-LIB/lib_ascii.c **** *
 566:Libraries/uC-LIB/lib_ascii.c **** *                   (b) ISO/IEC 9899:TC2, Section 7.4.2.1.(3) states that :
 567:Libraries/uC-LIB/lib_ascii.c **** *
 568:Libraries/uC-LIB/lib_ascii.c **** *                       (1) (A) "if the argument is a character for which isupper() is true and the
 569:Libraries/uC-LIB/lib_ascii.c **** *                                one or more corresponding characters ... for which islower() is tr
 570:Libraries/uC-LIB/lib_ascii.c **** *                           (B) "tolower() ... returns one of the corresponding characters;" ...
 571:Libraries/uC-LIB/lib_ascii.c **** *
 572:Libraries/uC-LIB/lib_ascii.c **** *                       (2) "otherwise, the argument is returned unchanged."
 573:Libraries/uC-LIB/lib_ascii.c **** ***************************************************************************************************
 574:Libraries/uC-LIB/lib_ascii.c **** */
 575:Libraries/uC-LIB/lib_ascii.c **** 
 576:Libraries/uC-LIB/lib_ascii.c **** CPU_CHAR  ASCII_ToLower (CPU_CHAR  c)
 577:Libraries/uC-LIB/lib_ascii.c **** {
 946              		.loc 1 577 0
 947              		.cfi_startproc
 948              		@ args = 0, pretend = 0, frame = 16
 949              		@ frame_needed = 1, uses_anonymous_args = 0
 950              		@ link register save eliminated.
 951 03cc 80B4     		push	{r7}
 952              	.LCFI39:
 953              		.cfi_def_cfa_offset 4
 954              		.cfi_offset 7, -4
 955 03ce 85B0     		sub	sp, sp, #20
 956              	.LCFI40:
 957              		.cfi_def_cfa_offset 24
 958 03d0 00AF     		add	r7, sp, #0
 959              	.LCFI41:
 960              		.cfi_def_cfa_register 7
 961 03d2 0346     		mov	r3, r0
 962 03d4 FB71     		strb	r3, [r7, #7]
 578:Libraries/uC-LIB/lib_ascii.c ****     CPU_CHAR  lower;
 579:Libraries/uC-LIB/lib_ascii.c **** 
 580:Libraries/uC-LIB/lib_ascii.c **** 
 581:Libraries/uC-LIB/lib_ascii.c ****     lower = ASCII_TO_LOWER(c);
 963              		.loc 1 581 0
 964 03d6 FB79     		ldrb	r3, [r7, #7]	@ zero_extendqisi2
 965 03d8 402B     		cmp	r3, #64
 966 03da 05D9     		bls	.L80
 967              		.loc 1 581 0 is_stmt 0 discriminator 1
 968 03dc FB79     		ldrb	r3, [r7, #7]	@ zero_extendqisi2
 969 03de 5A2B     		cmp	r3, #90
 970 03e0 02D8     		bhi	.L80
 971              		.loc 1 581 0 discriminator 3
 972 03e2 4FF00103 		mov	r3, #1
 973 03e6 01E0     		b	.L81
 974              	.L80:
 975              		.loc 1 581 0 discriminator 2
 976 03e8 4FF00003 		mov	r3, #0
 977              	.L81:
 978              		.loc 1 581 0 discriminator 4
 979 03ec 012B     		cmp	r3, #1
 980 03ee 04D1     		bne	.L82
 981              		.loc 1 581 0 discriminator 1
 982 03f0 FB79     		ldrb	r3, [r7, #7]
 983 03f2 03F12003 		add	r3, r3, #32
 984 03f6 DBB2     		uxtb	r3, r3
 985 03f8 00E0     		b	.L83
 986              	.L82:
 987              		.loc 1 581 0 discriminator 2
 988 03fa FB79     		ldrb	r3, [r7, #7]	@ zero_extendqisi2
 989              	.L83:
 990              		.loc 1 581 0 discriminator 3
 991 03fc FB73     		strb	r3, [r7, #15]
 582:Libraries/uC-LIB/lib_ascii.c **** 
 583:Libraries/uC-LIB/lib_ascii.c ****     return (lower);
 992              		.loc 1 583 0 is_stmt 1 discriminator 3
 993 03fe FB7B     		ldrb	r3, [r7, #15]	@ zero_extendqisi2
 584:Libraries/uC-LIB/lib_ascii.c **** }
 994              		.loc 1 584 0 discriminator 3
 995 0400 1846     		mov	r0, r3
 996 0402 07F11407 		add	r7, r7, #20
 997 0406 BD46     		mov	sp, r7
 998 0408 80BC     		pop	{r7}
 999 040a 7047     		bx	lr
 1000              		.cfi_endproc
 1001              	.LFE13:
 1003              		.align	2
 1004              		.global	ASCII_ToUpper
 1005              		.thumb
 1006              		.thumb_func
 1008              	ASCII_ToUpper:
 1009              	.LFB14:
 585:Libraries/uC-LIB/lib_ascii.c **** 
 586:Libraries/uC-LIB/lib_ascii.c **** 
 587:Libraries/uC-LIB/lib_ascii.c **** /*
 588:Libraries/uC-LIB/lib_ascii.c **** ***************************************************************************************************
 589:Libraries/uC-LIB/lib_ascii.c **** *                                           ASCII_ToUpper()
 590:Libraries/uC-LIB/lib_ascii.c **** *
 591:Libraries/uC-LIB/lib_ascii.c **** * Description : Convert lowercase alphabetic character to its corresponding uppercase alphabetic ch
 592:Libraries/uC-LIB/lib_ascii.c **** *
 593:Libraries/uC-LIB/lib_ascii.c **** * Argument(s) : c           Character to convert.
 594:Libraries/uC-LIB/lib_ascii.c **** *
 595:Libraries/uC-LIB/lib_ascii.c **** * Return(s)   : Uppercase equivalent of 'c', if character 'c' is a lowercase character (see Note #1
 596:Libraries/uC-LIB/lib_ascii.c **** *
 597:Libraries/uC-LIB/lib_ascii.c **** *               Character 'c',               otherwise                                 (see Note #1
 598:Libraries/uC-LIB/lib_ascii.c **** *
 599:Libraries/uC-LIB/lib_ascii.c **** * Caller(s)   : Application.
 600:Libraries/uC-LIB/lib_ascii.c **** *
 601:Libraries/uC-LIB/lib_ascii.c **** * Note(s)     : (1) (a) ISO/IEC 9899:TC2, Section 7.4.2.2.(2) states that "toupper() ... converts a
 602:Libraries/uC-LIB/lib_ascii.c **** *                       lowercase letter to a corresponding uppercase letter".
 603:Libraries/uC-LIB/lib_ascii.c **** *
 604:Libraries/uC-LIB/lib_ascii.c **** *                   (b) ISO/IEC 9899:TC2, Section 7.4.2.2.(3) states that :
 605:Libraries/uC-LIB/lib_ascii.c **** *
 606:Libraries/uC-LIB/lib_ascii.c **** *                       (1) (A) "if the argument is a character for which islower() is true and the
 607:Libraries/uC-LIB/lib_ascii.c **** *                                one or more corresponding characters ... for which isupper() is tr
 608:Libraries/uC-LIB/lib_ascii.c **** *                           (B) "toupper() ... returns one of the corresponding characters;" ...
 609:Libraries/uC-LIB/lib_ascii.c **** *
 610:Libraries/uC-LIB/lib_ascii.c **** *                       (2) "otherwise, the argument is returned unchanged."
 611:Libraries/uC-LIB/lib_ascii.c **** ***************************************************************************************************
 612:Libraries/uC-LIB/lib_ascii.c **** */
 613:Libraries/uC-LIB/lib_ascii.c **** 
 614:Libraries/uC-LIB/lib_ascii.c **** CPU_CHAR  ASCII_ToUpper (CPU_CHAR  c)
 615:Libraries/uC-LIB/lib_ascii.c **** {
 1010              		.loc 1 615 0
 1011              		.cfi_startproc
 1012              		@ args = 0, pretend = 0, frame = 16
 1013              		@ frame_needed = 1, uses_anonymous_args = 0
 1014              		@ link register save eliminated.
 1015 040c 80B4     		push	{r7}
 1016              	.LCFI42:
 1017              		.cfi_def_cfa_offset 4
 1018              		.cfi_offset 7, -4
 1019 040e 85B0     		sub	sp, sp, #20
 1020              	.LCFI43:
 1021              		.cfi_def_cfa_offset 24
 1022 0410 00AF     		add	r7, sp, #0
 1023              	.LCFI44:
 1024              		.cfi_def_cfa_register 7
 1025 0412 0346     		mov	r3, r0
 1026 0414 FB71     		strb	r3, [r7, #7]
 616:Libraries/uC-LIB/lib_ascii.c ****     CPU_CHAR  upper;
 617:Libraries/uC-LIB/lib_ascii.c **** 
 618:Libraries/uC-LIB/lib_ascii.c **** 
 619:Libraries/uC-LIB/lib_ascii.c ****     upper = ASCII_TO_UPPER(c);
 1027              		.loc 1 619 0
 1028 0416 FB79     		ldrb	r3, [r7, #7]	@ zero_extendqisi2
 1029 0418 602B     		cmp	r3, #96
 1030 041a 05D9     		bls	.L85
 1031              		.loc 1 619 0 is_stmt 0 discriminator 1
 1032 041c FB79     		ldrb	r3, [r7, #7]	@ zero_extendqisi2
 1033 041e 7A2B     		cmp	r3, #122
 1034 0420 02D8     		bhi	.L85
 1035              		.loc 1 619 0 discriminator 3
 1036 0422 4FF00103 		mov	r3, #1
 1037 0426 01E0     		b	.L86
 1038              	.L85:
 1039              		.loc 1 619 0 discriminator 2
 1040 0428 4FF00003 		mov	r3, #0
 1041              	.L86:
 1042              		.loc 1 619 0 discriminator 4
 1043 042c 012B     		cmp	r3, #1
 1044 042e 04D1     		bne	.L87
 1045              		.loc 1 619 0 discriminator 1
 1046 0430 FB79     		ldrb	r3, [r7, #7]
 1047 0432 A3F12003 		sub	r3, r3, #32
 1048 0436 DBB2     		uxtb	r3, r3
 1049 0438 00E0     		b	.L88
 1050              	.L87:
 1051              		.loc 1 619 0 discriminator 2
 1052 043a FB79     		ldrb	r3, [r7, #7]	@ zero_extendqisi2
 1053              	.L88:
 1054              		.loc 1 619 0 discriminator 3
 1055 043c FB73     		strb	r3, [r7, #15]
 620:Libraries/uC-LIB/lib_ascii.c **** 
 621:Libraries/uC-LIB/lib_ascii.c ****     return (upper);
 1056              		.loc 1 621 0 is_stmt 1 discriminator 3
 1057 043e FB7B     		ldrb	r3, [r7, #15]	@ zero_extendqisi2
 622:Libraries/uC-LIB/lib_ascii.c **** }
 1058              		.loc 1 622 0 discriminator 3
 1059 0440 1846     		mov	r0, r3
 1060 0442 07F11407 		add	r7, r7, #20
 1061 0446 BD46     		mov	sp, r7
 1062 0448 80BC     		pop	{r7}
 1063 044a 7047     		bx	lr
 1064              		.cfi_endproc
 1065              	.LFE14:
 1067              		.align	2
 1068              		.global	ASCII_Cmp
 1069              		.thumb
 1070              		.thumb_func
 1072              	ASCII_Cmp:
 1073              	.LFB15:
 623:Libraries/uC-LIB/lib_ascii.c **** 
 624:Libraries/uC-LIB/lib_ascii.c **** 
 625:Libraries/uC-LIB/lib_ascii.c **** /*$PAGE*/
 626:Libraries/uC-LIB/lib_ascii.c **** /*
 627:Libraries/uC-LIB/lib_ascii.c **** ***************************************************************************************************
 628:Libraries/uC-LIB/lib_ascii.c **** *                                             ASCII_Cmp()
 629:Libraries/uC-LIB/lib_ascii.c **** *
 630:Libraries/uC-LIB/lib_ascii.c **** * Description : Determine if two characters are identical (case-insensitive).
 631:Libraries/uC-LIB/lib_ascii.c **** *
 632:Libraries/uC-LIB/lib_ascii.c **** * Argument(s) : c1          First  character.
 633:Libraries/uC-LIB/lib_ascii.c **** *
 634:Libraries/uC-LIB/lib_ascii.c **** *               c2          Second character.
 635:Libraries/uC-LIB/lib_ascii.c **** *
 636:Libraries/uC-LIB/lib_ascii.c **** * Return(s)   : DEF_YES, if the characters are     identical.
 637:Libraries/uC-LIB/lib_ascii.c **** *
 638:Libraries/uC-LIB/lib_ascii.c **** *               DEF_NO,  if the characters are NOT identical.
 639:Libraries/uC-LIB/lib_ascii.c **** *
 640:Libraries/uC-LIB/lib_ascii.c **** * Caller(s)   : Application.
 641:Libraries/uC-LIB/lib_ascii.c **** *
 642:Libraries/uC-LIB/lib_ascii.c **** * Note(s)     : none.
 643:Libraries/uC-LIB/lib_ascii.c **** ***************************************************************************************************
 644:Libraries/uC-LIB/lib_ascii.c **** */
 645:Libraries/uC-LIB/lib_ascii.c **** 
 646:Libraries/uC-LIB/lib_ascii.c **** CPU_BOOLEAN  ASCII_Cmp (CPU_CHAR  c1,
 647:Libraries/uC-LIB/lib_ascii.c ****                         CPU_CHAR  c2)
 648:Libraries/uC-LIB/lib_ascii.c **** {
 1074              		.loc 1 648 0
 1075              		.cfi_startproc
 1076              		@ args = 0, pretend = 0, frame = 16
 1077              		@ frame_needed = 1, uses_anonymous_args = 0
 1078 044c 80B5     		push	{r7, lr}
 1079              	.LCFI45:
 1080              		.cfi_def_cfa_offset 8
 1081              		.cfi_offset 14, -4
 1082              		.cfi_offset 7, -8
 1083 044e 84B0     		sub	sp, sp, #16
 1084              	.LCFI46:
 1085              		.cfi_def_cfa_offset 24
 1086 0450 00AF     		add	r7, sp, #0
 1087              	.LCFI47:
 1088              		.cfi_def_cfa_register 7
 1089 0452 0246     		mov	r2, r0
 1090 0454 0B46     		mov	r3, r1
 1091 0456 FA71     		strb	r2, [r7, #7]
 1092 0458 BB71     		strb	r3, [r7, #6]
 649:Libraries/uC-LIB/lib_ascii.c ****     CPU_CHAR     c1_upper;
 650:Libraries/uC-LIB/lib_ascii.c ****     CPU_CHAR     c2_upper;
 651:Libraries/uC-LIB/lib_ascii.c ****     CPU_BOOLEAN  cmp;
 652:Libraries/uC-LIB/lib_ascii.c **** 
 653:Libraries/uC-LIB/lib_ascii.c **** 
 654:Libraries/uC-LIB/lib_ascii.c ****     c1_upper =  ASCII_ToUpper(c1);
 1093              		.loc 1 654 0
 1094 045a FB79     		ldrb	r3, [r7, #7]	@ zero_extendqisi2
 1095 045c 1846     		mov	r0, r3
 1096 045e FFF7FEFF 		bl	ASCII_ToUpper
 1097 0462 0346     		mov	r3, r0
 1098 0464 FB73     		strb	r3, [r7, #15]
 655:Libraries/uC-LIB/lib_ascii.c ****     c2_upper =  ASCII_ToUpper(c2);
 1099              		.loc 1 655 0
 1100 0466 BB79     		ldrb	r3, [r7, #6]	@ zero_extendqisi2
 1101 0468 1846     		mov	r0, r3
 1102 046a FFF7FEFF 		bl	ASCII_ToUpper
 1103 046e 0346     		mov	r3, r0
 1104 0470 BB73     		strb	r3, [r7, #14]
 656:Libraries/uC-LIB/lib_ascii.c ****     cmp      = (c1_upper == c2_upper) ? (DEF_YES) : (DEF_NO);
 1105              		.loc 1 656 0
 1106 0472 FA7B     		ldrb	r2, [r7, #15]	@ zero_extendqisi2
 1107 0474 BB7B     		ldrb	r3, [r7, #14]	@ zero_extendqisi2
 1108 0476 9A42     		cmp	r2, r3
 1109 0478 14BF     		ite	ne
 1110 047a 0023     		movne	r3, #0
 1111 047c 0123     		moveq	r3, #1
 1112 047e 7B73     		strb	r3, [r7, #13]
 657:Libraries/uC-LIB/lib_ascii.c **** 
 658:Libraries/uC-LIB/lib_ascii.c ****     return (cmp);
 1113              		.loc 1 658 0
 1114 0480 7B7B     		ldrb	r3, [r7, #13]	@ zero_extendqisi2
 659:Libraries/uC-LIB/lib_ascii.c **** }
 1115              		.loc 1 659 0
 1116 0482 1846     		mov	r0, r3
 1117 0484 07F11007 		add	r7, r7, #16
 1118 0488 BD46     		mov	sp, r7
 1119 048a 80BD     		pop	{r7, pc}
 1120              		.cfi_endproc
 1121              	.LFE15:
 1123              	.Letext0:
 1124              		.file 2 "Libraries/uC-CPU/cpu.h"