   1              		.syntax unified
   2              		.cpu cortex-m3
   3              		.fpu softvfp
   4              		.eabi_attribute 20, 1
   5              		.eabi_attribute 21, 1
   6              		.eabi_attribute 23, 3
   7              		.eabi_attribute 24, 1
   8              		.eabi_attribute 25, 1
   9              		.eabi_attribute 26, 1
  10              		.eabi_attribute 30, 6
  11              		.eabi_attribute 34, 1
  12              		.eabi_attribute 18, 4
  13              		.thumb
  14              		.file	"usblibs.c"
  15              		.text
  16              	.Ltext0:
  17              		.cfi_sections	.debug_frame
  18              		.comm	BulkInSize,4,4
  19              		.comm	BulkOutSize,4,4
  20              		.comm	abBulkOutBuf,360,4
  21              		.comm	abBulkInBuf,360,4
  22              		.section	.rodata
  23              		.align	2
  26              	abDescriptors:
  27 0000 12       		.byte	18
  28 0001 01       		.byte	1
  29 0002 00       		.byte	0
  30 0003 02       		.byte	2
  31 0004 FF       		.byte	-1
  32 0005 00       		.byte	0
  33 0006 00       		.byte	0
  34 0007 40       		.byte	64
  35 0008 FE       		.byte	-2
  36 0009 FE       		.byte	-2
  37 000a 01       		.byte	1
  38 000b 00       		.byte	0
  39 000c 00       		.byte	0
  40 000d 01       		.byte	1
  41 000e 01       		.byte	1
  42 000f 02       		.byte	2
  43 0010 03       		.byte	3
  44 0011 01       		.byte	1
  45 0012 09       		.byte	9
  46 0013 02       		.byte	2
  47 0014 20       		.byte	32
  48 0015 00       		.byte	0
  49 0016 01       		.byte	1
  50 0017 01       		.byte	1
  51 0018 00       		.byte	0
  52 0019 80       		.byte	-128
  53 001a 32       		.byte	50
  54 001b 09       		.byte	9
  55 001c 04       		.byte	4
  56 001d 00       		.byte	0
  57 001e 00       		.byte	0
  58 001f 02       		.byte	2
  59 0020 FF       		.byte	-1
  60 0021 00       		.byte	0
  61 0022 00       		.byte	0
  62 0023 00       		.byte	0
  63 0024 07       		.byte	7
  64 0025 05       		.byte	5
  65 0026 05       		.byte	5
  66 0027 02       		.byte	2
  67 0028 68       		.byte	104
  68 0029 01       		.byte	1
  69 002a 00       		.byte	0
  70 002b 07       		.byte	7
  71 002c 05       		.byte	5
  72 002d 82       		.byte	-126
  73 002e 02       		.byte	2
  74 002f 68       		.byte	104
  75 0030 01       		.byte	1
  76 0031 00       		.byte	0
  77 0032 04       		.byte	4
  78 0033 03       		.byte	3
  79 0034 09       		.byte	9
  80 0035 04       		.byte	4
  81 0036 0A       		.byte	10
  82 0037 03       		.byte	3
  83 0038 46       		.byte	70
  84 0039 00       		.byte	0
  85 003a 48       		.byte	72
  86 003b 00       		.byte	0
  87 003c 54       		.byte	84
  88 003d 00       		.byte	0
  89 003e 57       		.byte	87
  90 003f 00       		.byte	0
  91 0040 14       		.byte	20
  92 0041 03       		.byte	3
  93 0042 43       		.byte	67
  94 0043 00       		.byte	0
  95 0044 4E       		.byte	78
  96 0045 00       		.byte	0
  97 0046 43       		.byte	67
  98 0047 00       		.byte	0
  99 0048 20       		.byte	32
 100 0049 00       		.byte	0
 101 004a 75       		.byte	117
 102 004b 00       		.byte	0
 103 004c 43       		.byte	67
 104 004d 00       		.byte	0
 105 004e 4F       		.byte	79
 106 004f 00       		.byte	0
 107 0050 53       		.byte	83
 108 0051 00       		.byte	0
 109 0052 33       		.byte	51
 110 0053 00       		.byte	0
 111 0054 14       		.byte	20
 112 0055 03       		.byte	3
 113 0056 30       		.byte	48
 114 0057 00       		.byte	0
 115 0058 30       		.byte	48
 116 0059 00       		.byte	0
 117 005a 30       		.byte	48
 118 005b 00       		.byte	0
 119 005c 30       		.byte	48
 120 005d 00       		.byte	0
 121 005e 3A       		.byte	58
 122 005f 00       		.byte	0
 123 0060 30       		.byte	48
 124 0061 00       		.byte	0
 125 0062 30       		.byte	48
 126 0063 00       		.byte	0
 127 0064 3A       		.byte	58
 128 0065 00       		.byte	0
 129 0066 31       		.byte	49
 130 0067 00       		.byte	0
 131 0068 00       		.byte	0
 132 0069 000000   		.text
 133              		.align	2
 134              		.global	deleteBulkOutBuf
 135              		.thumb
 136              		.thumb_func
 138              	deleteBulkOutBuf:
 139              	.LFB0:
 140              		.file 1 "Libraries/uC-CSP/LPC17xx/USB/src/usblibs.c"
   1:Libraries/uC-CSP/LPC17xx/USB/src/usblibs.c **** #include <usbdesc.h>
   2:Libraries/uC-CSP/LPC17xx/USB/src/usblibs.c **** #include <csp_grp.h>
   3:Libraries/uC-CSP/LPC17xx/USB/src/usblibs.c **** #include <csp.h>
   4:Libraries/uC-CSP/LPC17xx/USB/src/usblibs.c **** 
   5:Libraries/uC-CSP/LPC17xx/USB/src/usblibs.c **** void deleteBulkOutBuf()
   6:Libraries/uC-CSP/LPC17xx/USB/src/usblibs.c **** {
 141              		.loc 1 6 0
 142              		.cfi_startproc
 143              		@ args = 0, pretend = 0, frame = 8
 144              		@ frame_needed = 1, uses_anonymous_args = 0
 145              		@ link register save eliminated.
 146 0000 80B4     		push	{r7}
 147              	.LCFI0:
 148              		.cfi_def_cfa_offset 4
 149              		.cfi_offset 7, -4
 150 0002 83B0     		sub	sp, sp, #12
 151              	.LCFI1:
 152              		.cfi_def_cfa_offset 16
 153 0004 00AF     		add	r7, sp, #0
 154              	.LCFI2:
 155              		.cfi_def_cfa_register 7
   7:Libraries/uC-CSP/LPC17xx/USB/src/usblibs.c **** 	unsigned int count=0;
 156              		.loc 1 7 0
 157 0006 4FF00003 		mov	r3, #0
 158 000a 7B60     		str	r3, [r7, #4]
   8:Libraries/uC-CSP/LPC17xx/USB/src/usblibs.c **** 	while(count<=USB_BUFFER_SIZE-1)
 159              		.loc 1 8 0
 160 000c 0CE0     		b	.L2
 161              	.L3:
   9:Libraries/uC-CSP/LPC17xx/USB/src/usblibs.c **** 	{
  10:Libraries/uC-CSP/LPC17xx/USB/src/usblibs.c **** 		abBulkOutBuf[count] = 0;
 162              		.loc 1 10 0
 163 000e 40F20003 		movw	r3, #:lower16:abBulkOutBuf
 164 0012 C0F20003 		movt	r3, #:upper16:abBulkOutBuf
 165 0016 7A68     		ldr	r2, [r7, #4]
 166 0018 9B18     		adds	r3, r3, r2
 167 001a 4FF00002 		mov	r2, #0
 168 001e 1A70     		strb	r2, [r3, #0]
  11:Libraries/uC-CSP/LPC17xx/USB/src/usblibs.c **** 		count++;
 169              		.loc 1 11 0
 170 0020 7B68     		ldr	r3, [r7, #4]
 171 0022 03F10103 		add	r3, r3, #1
 172 0026 7B60     		str	r3, [r7, #4]
 173              	.L2:
   8:Libraries/uC-CSP/LPC17xx/USB/src/usblibs.c **** 	while(count<=USB_BUFFER_SIZE-1)
 174              		.loc 1 8 0 discriminator 1
 175 0028 7A68     		ldr	r2, [r7, #4]
 176 002a 40F26713 		movw	r3, #359
 177 002e 9A42     		cmp	r2, r3
 178 0030 EDD9     		bls	.L3
  12:Libraries/uC-CSP/LPC17xx/USB/src/usblibs.c **** 	}
  13:Libraries/uC-CSP/LPC17xx/USB/src/usblibs.c **** 	count = 0;
 179              		.loc 1 13 0
 180 0032 4FF00003 		mov	r3, #0
 181 0036 7B60     		str	r3, [r7, #4]
  14:Libraries/uC-CSP/LPC17xx/USB/src/usblibs.c **** 	BulkOutSize = 0;
 182              		.loc 1 14 0
 183 0038 40F20003 		movw	r3, #:lower16:BulkOutSize
 184 003c C0F20003 		movt	r3, #:upper16:BulkOutSize
 185 0040 4FF00002 		mov	r2, #0
 186 0044 1A60     		str	r2, [r3, #0]
  15:Libraries/uC-CSP/LPC17xx/USB/src/usblibs.c **** }
 187              		.loc 1 15 0
 188 0046 07F10C07 		add	r7, r7, #12
 189 004a BD46     		mov	sp, r7
 190 004c 80BC     		pop	{r7}
 191 004e 7047     		bx	lr
 192              		.cfi_endproc
 193              	.LFE0:
 195              		.align	2
 196              		.global	deleteBulkInBuf
 197              		.thumb
 198              		.thumb_func
 200              	deleteBulkInBuf:
 201              	.LFB1:
  16:Libraries/uC-CSP/LPC17xx/USB/src/usblibs.c **** 
  17:Libraries/uC-CSP/LPC17xx/USB/src/usblibs.c **** void deleteBulkInBuf()
  18:Libraries/uC-CSP/LPC17xx/USB/src/usblibs.c **** {
 202              		.loc 1 18 0
 203              		.cfi_startproc
 204              		@ args = 0, pretend = 0, frame = 8
 205              		@ frame_needed = 1, uses_anonymous_args = 0
 206              		@ link register save eliminated.
 207 0050 80B4     		push	{r7}
 208              	.LCFI3:
 209              		.cfi_def_cfa_offset 4
 210              		.cfi_offset 7, -4
 211 0052 83B0     		sub	sp, sp, #12
 212              	.LCFI4:
 213              		.cfi_def_cfa_offset 16
 214 0054 00AF     		add	r7, sp, #0
 215              	.LCFI5:
 216              		.cfi_def_cfa_register 7
  19:Libraries/uC-CSP/LPC17xx/USB/src/usblibs.c **** 	unsigned int count=0;
 217              		.loc 1 19 0
 218 0056 4FF00003 		mov	r3, #0
 219 005a 7B60     		str	r3, [r7, #4]
  20:Libraries/uC-CSP/LPC17xx/USB/src/usblibs.c **** 	while(count<=USB_BUFFER_SIZE-1)
 220              		.loc 1 20 0
 221 005c 0CE0     		b	.L5
 222              	.L6:
  21:Libraries/uC-CSP/LPC17xx/USB/src/usblibs.c **** 	{
  22:Libraries/uC-CSP/LPC17xx/USB/src/usblibs.c **** 		abBulkInBuf[count] = 0;
 223              		.loc 1 22 0
 224 005e 40F20003 		movw	r3, #:lower16:abBulkInBuf
 225 0062 C0F20003 		movt	r3, #:upper16:abBulkInBuf
 226 0066 7A68     		ldr	r2, [r7, #4]
 227 0068 9B18     		adds	r3, r3, r2
 228 006a 4FF00002 		mov	r2, #0
 229 006e 1A70     		strb	r2, [r3, #0]
  23:Libraries/uC-CSP/LPC17xx/USB/src/usblibs.c **** 		count++;
 230              		.loc 1 23 0
 231 0070 7B68     		ldr	r3, [r7, #4]
 232 0072 03F10103 		add	r3, r3, #1
 233 0076 7B60     		str	r3, [r7, #4]
 234              	.L5:
  20:Libraries/uC-CSP/LPC17xx/USB/src/usblibs.c **** 	while(count<=USB_BUFFER_SIZE-1)
 235              		.loc 1 20 0 discriminator 1
 236 0078 7A68     		ldr	r2, [r7, #4]
 237 007a 40F26713 		movw	r3, #359
 238 007e 9A42     		cmp	r2, r3
 239 0080 EDD9     		bls	.L6
  24:Libraries/uC-CSP/LPC17xx/USB/src/usblibs.c **** 	}
  25:Libraries/uC-CSP/LPC17xx/USB/src/usblibs.c **** 	count = 0;
 240              		.loc 1 25 0
 241 0082 4FF00003 		mov	r3, #0
 242 0086 7B60     		str	r3, [r7, #4]
  26:Libraries/uC-CSP/LPC17xx/USB/src/usblibs.c **** 	BulkInSize = 0;
 243              		.loc 1 26 0
 244 0088 40F20003 		movw	r3, #:lower16:BulkInSize
 245 008c C0F20003 		movt	r3, #:upper16:BulkInSize
 246 0090 4FF00002 		mov	r2, #0
 247 0094 1A60     		str	r2, [r3, #0]
  27:Libraries/uC-CSP/LPC17xx/USB/src/usblibs.c **** }
 248              		.loc 1 27 0
 249 0096 07F10C07 		add	r7, r7, #12
 250 009a BD46     		mov	sp, r7
 251 009c 80BC     		pop	{r7}
 252 009e 7047     		bx	lr
 253              		.cfi_endproc
 254              	.LFE1:
 256              		.align	2
 257              		.global	USB_IRQHandler
 258              		.thumb
 259              		.thumb_func
 261              	USB_IRQHandler:
 262              	.LFB2:
  28:Libraries/uC-CSP/LPC17xx/USB/src/usblibs.c **** 
  29:Libraries/uC-CSP/LPC17xx/USB/src/usblibs.c **** /*
  30:Libraries/uC-CSP/LPC17xx/USB/src/usblibs.c **** 	Interrupt handler
  31:Libraries/uC-CSP/LPC17xx/USB/src/usblibs.c **** 	Simply calls the USB ISR
  32:Libraries/uC-CSP/LPC17xx/USB/src/usblibs.c **** */
  33:Libraries/uC-CSP/LPC17xx/USB/src/usblibs.c **** void USB_IRQHandler(void)
  34:Libraries/uC-CSP/LPC17xx/USB/src/usblibs.c **** {
 263              		.loc 1 34 0
 264              		.cfi_startproc
 265              		@ args = 0, pretend = 0, frame = 0
 266              		@ frame_needed = 1, uses_anonymous_args = 0
 267 00a0 80B5     		push	{r7, lr}
 268              	.LCFI6:
 269              		.cfi_def_cfa_offset 8
 270              		.cfi_offset 14, -4
 271              		.cfi_offset 7, -8
 272 00a2 00AF     		add	r7, sp, #0
 273              	.LCFI7:
 274              		.cfi_def_cfa_register 7
  35:Libraries/uC-CSP/LPC17xx/USB/src/usblibs.c **** 	USBHwISR();
 275              		.loc 1 35 0
 276 00a4 FFF7FEFF 		bl	USBHwISR
  36:Libraries/uC-CSP/LPC17xx/USB/src/usblibs.c **** 	CSP_IntClr(CSP_INT_CTRL_NBR_MAIN, CSP_INT_SRC_NBR_USB_00);
 277              		.loc 1 36 0
 278 00a8 4FF00000 		mov	r0, #0
 279 00ac 4FF01801 		mov	r1, #24
 280 00b0 FFF7FEFF 		bl	CSP_IntClr
  37:Libraries/uC-CSP/LPC17xx/USB/src/usblibs.c **** 	CPU_IntSrcEn(CPU_INT_SYSTICK);                              /* Enable the SYSTICK interrupt. Resum
 281              		.loc 1 37 0
 282 00b4 4FF00F00 		mov	r0, #15
 283 00b8 FFF7FEFF 		bl	CPU_IntSrcEn
  38:Libraries/uC-CSP/LPC17xx/USB/src/usblibs.c **** }
 284              		.loc 1 38 0
 285 00bc 80BD     		pop	{r7, pc}
 286              		.cfi_endproc
 287              	.LFE2:
 289 00be 00BF     		.align	2
 290              		.global	BulkOut
 291              		.thumb
 292              		.thumb_func
 294              	BulkOut:
 295              	.LFB3:
  39:Libraries/uC-CSP/LPC17xx/USB/src/usblibs.c **** 
  40:Libraries/uC-CSP/LPC17xx/USB/src/usblibs.c **** /*
  41:Libraries/uC-CSP/LPC17xx/USB/src/usblibs.c **** 	Local function to handle incoming bulk data
  42:Libraries/uC-CSP/LPC17xx/USB/src/usblibs.c **** 	@param [in] bEP
  43:Libraries/uC-CSP/LPC17xx/USB/src/usblibs.c **** 	@param [in] bEPStatus
  44:Libraries/uC-CSP/LPC17xx/USB/src/usblibs.c **** */
  45:Libraries/uC-CSP/LPC17xx/USB/src/usblibs.c **** void BulkOut(uint8_t bEP, uint8_t bEPStatus)
  46:Libraries/uC-CSP/LPC17xx/USB/src/usblibs.c **** {
 296              		.loc 1 46 0
 297              		.cfi_startproc
 298              		@ args = 0, pretend = 0, frame = 16
 299              		@ frame_needed = 1, uses_anonymous_args = 0
 300 00c0 80B5     		push	{r7, lr}
 301              	.LCFI8:
 302              		.cfi_def_cfa_offset 8
 303              		.cfi_offset 14, -4
 304              		.cfi_offset 7, -8
 305 00c2 84B0     		sub	sp, sp, #16
 306              	.LCFI9:
 307              		.cfi_def_cfa_offset 24
 308 00c4 00AF     		add	r7, sp, #0
 309              	.LCFI10:
 310              		.cfi_def_cfa_register 7
 311 00c6 0246     		mov	r2, r0
 312 00c8 0B46     		mov	r3, r1
 313 00ca FA71     		strb	r2, [r7, #7]
 314 00cc BB71     		strb	r3, [r7, #6]
  47:Libraries/uC-CSP/LPC17xx/USB/src/usblibs.c **** 	int i;
  48:Libraries/uC-CSP/LPC17xx/USB/src/usblibs.c **** 	/* disable_USB_interrupts(); */
  49:Libraries/uC-CSP/LPC17xx/USB/src/usblibs.c **** 	for(i=0;i<=USB_BUFFER_SIZE-1;i++)
 315              		.loc 1 49 0
 316 00ce 4FF00003 		mov	r3, #0
 317 00d2 FB60     		str	r3, [r7, #12]
 318 00d4 0CE0     		b	.L9
 319              	.L10:
  50:Libraries/uC-CSP/LPC17xx/USB/src/usblibs.c **** 	{
  51:Libraries/uC-CSP/LPC17xx/USB/src/usblibs.c **** 		abBulkOutBuf[i] = 0;
 320              		.loc 1 51 0 discriminator 2
 321 00d6 40F20003 		movw	r3, #:lower16:abBulkOutBuf
 322 00da C0F20003 		movt	r3, #:upper16:abBulkOutBuf
 323 00de FA68     		ldr	r2, [r7, #12]
 324 00e0 9B18     		adds	r3, r3, r2
 325 00e2 4FF00002 		mov	r2, #0
 326 00e6 1A70     		strb	r2, [r3, #0]
  49:Libraries/uC-CSP/LPC17xx/USB/src/usblibs.c **** 	for(i=0;i<=USB_BUFFER_SIZE-1;i++)
 327              		.loc 1 49 0 discriminator 2
 328 00e8 FB68     		ldr	r3, [r7, #12]
 329 00ea 03F10103 		add	r3, r3, #1
 330 00ee FB60     		str	r3, [r7, #12]
 331              	.L9:
  49:Libraries/uC-CSP/LPC17xx/USB/src/usblibs.c **** 	for(i=0;i<=USB_BUFFER_SIZE-1;i++)
 332              		.loc 1 49 0 is_stmt 0 discriminator 1
 333 00f0 FA68     		ldr	r2, [r7, #12]
 334 00f2 40F26713 		movw	r3, #359
 335 00f6 9A42     		cmp	r2, r3
 336 00f8 EDDD     		ble	.L10
  52:Libraries/uC-CSP/LPC17xx/USB/src/usblibs.c **** 	}
  53:Libraries/uC-CSP/LPC17xx/USB/src/usblibs.c **** 
  54:Libraries/uC-CSP/LPC17xx/USB/src/usblibs.c **** 	USBHwEPRead(bEP, abBulkOutBuf, sizeof(abBulkOutBuf));
 337              		.loc 1 54 0 is_stmt 1
 338 00fa FB79     		ldrb	r3, [r7, #7]	@ zero_extendqisi2
 339 00fc 1846     		mov	r0, r3
 340 00fe 40F20001 		movw	r1, #:lower16:abBulkOutBuf
 341 0102 C0F20001 		movt	r1, #:upper16:abBulkOutBuf
 342 0106 4FF4B472 		mov	r2, #360
 343 010a FFF7FEFF 		bl	USBHwEPRead
  55:Libraries/uC-CSP/LPC17xx/USB/src/usblibs.c **** 
  56:Libraries/uC-CSP/LPC17xx/USB/src/usblibs.c **** 	BulkOutSize = abBulkOutBuf[1]<<8 | abBulkOutBuf[2];
 344              		.loc 1 56 0
 345 010e 40F20003 		movw	r3, #:lower16:abBulkOutBuf
 346 0112 C0F20003 		movt	r3, #:upper16:abBulkOutBuf
 347 0116 5B78     		ldrb	r3, [r3, #1]	@ zero_extendqisi2
 348 0118 4FEA0322 		lsl	r2, r3, #8
 349 011c 40F20003 		movw	r3, #:lower16:abBulkOutBuf
 350 0120 C0F20003 		movt	r3, #:upper16:abBulkOutBuf
 351 0124 9B78     		ldrb	r3, [r3, #2]	@ zero_extendqisi2
 352 0126 1A43     		orrs	r2, r2, r3
 353 0128 40F20003 		movw	r3, #:lower16:BulkOutSize
 354 012c C0F20003 		movt	r3, #:upper16:BulkOutSize
 355 0130 1A60     		str	r2, [r3, #0]
  57:Libraries/uC-CSP/LPC17xx/USB/src/usblibs.c **** 	BulkOutSize = BulkOutSize - 1;
 356              		.loc 1 57 0
 357 0132 40F20003 		movw	r3, #:lower16:BulkOutSize
 358 0136 C0F20003 		movt	r3, #:upper16:BulkOutSize
 359 013a 1B68     		ldr	r3, [r3, #0]
 360 013c 03F1FF32 		add	r2, r3, #-1
 361 0140 40F20003 		movw	r3, #:lower16:BulkOutSize
 362 0144 C0F20003 		movt	r3, #:upper16:BulkOutSize
 363 0148 1A60     		str	r2, [r3, #0]
  58:Libraries/uC-CSP/LPC17xx/USB/src/usblibs.c **** }
 364              		.loc 1 58 0
 365 014a 07F11007 		add	r7, r7, #16
 366 014e BD46     		mov	sp, r7
 367 0150 80BD     		pop	{r7, pc}
 368              		.cfi_endproc
 369              	.LFE3:
 371 0152 00BF     		.align	2
 372              		.global	BulkIn
 373              		.thumb
 374              		.thumb_func
 376              	BulkIn:
 377              	.LFB4:
  59:Libraries/uC-CSP/LPC17xx/USB/src/usblibs.c **** 
  60:Libraries/uC-CSP/LPC17xx/USB/src/usblibs.c **** 
  61:Libraries/uC-CSP/LPC17xx/USB/src/usblibs.c **** /*
  62:Libraries/uC-CSP/LPC17xx/USB/src/usblibs.c **** 	Local function to handle outgoing bulk data
  63:Libraries/uC-CSP/LPC17xx/USB/src/usblibs.c **** 	@param [in] bEP
  64:Libraries/uC-CSP/LPC17xx/USB/src/usblibs.c **** 	@param [in] bEPStatus
  65:Libraries/uC-CSP/LPC17xx/USB/src/usblibs.c **** */
  66:Libraries/uC-CSP/LPC17xx/USB/src/usblibs.c **** void BulkIn(uint8_t bEP, uint8_t bEPStatus)
  67:Libraries/uC-CSP/LPC17xx/USB/src/usblibs.c **** {
 378              		.loc 1 67 0
 379              		.cfi_startproc
 380              		@ args = 0, pretend = 0, frame = 8
 381              		@ frame_needed = 1, uses_anonymous_args = 0
 382 0154 80B5     		push	{r7, lr}
 383              	.LCFI11:
 384              		.cfi_def_cfa_offset 8
 385              		.cfi_offset 14, -4
 386              		.cfi_offset 7, -8
 387 0156 82B0     		sub	sp, sp, #8
 388              	.LCFI12:
 389              		.cfi_def_cfa_offset 16
 390 0158 00AF     		add	r7, sp, #0
 391              	.LCFI13:
 392              		.cfi_def_cfa_register 7
 393 015a 0246     		mov	r2, r0
 394 015c 0B46     		mov	r3, r1
 395 015e FA71     		strb	r2, [r7, #7]
 396 0160 BB71     		strb	r3, [r7, #6]
  68:Libraries/uC-CSP/LPC17xx/USB/src/usblibs.c **** 	if(BulkInSize > 0)
 397              		.loc 1 68 0
 398 0162 40F20003 		movw	r3, #:lower16:BulkInSize
 399 0166 C0F20003 		movt	r3, #:upper16:BulkInSize
 400 016a 1B68     		ldr	r3, [r3, #0]
 401 016c 002B     		cmp	r3, #0
 402 016e 0FDD     		ble	.L11
  69:Libraries/uC-CSP/LPC17xx/USB/src/usblibs.c **** 	{
  70:Libraries/uC-CSP/LPC17xx/USB/src/usblibs.c **** 		USBHwEPWrite(bEP, abBulkInBuf, BulkInSize);
 403              		.loc 1 70 0
 404 0170 40F20003 		movw	r3, #:lower16:BulkInSize
 405 0174 C0F20003 		movt	r3, #:upper16:BulkInSize
 406 0178 1B68     		ldr	r3, [r3, #0]
 407 017a FA79     		ldrb	r2, [r7, #7]	@ zero_extendqisi2
 408 017c 1046     		mov	r0, r2
 409 017e 40F20001 		movw	r1, #:lower16:abBulkInBuf
 410 0182 C0F20001 		movt	r1, #:upper16:abBulkInBuf
 411 0186 1A46     		mov	r2, r3
 412 0188 FFF7FEFF 		bl	USBHwEPWrite
  71:Libraries/uC-CSP/LPC17xx/USB/src/usblibs.c **** 		deleteBulkInBuf();
 413              		.loc 1 71 0
 414 018c FFF7FEFF 		bl	deleteBulkInBuf
 415              	.L11:
  72:Libraries/uC-CSP/LPC17xx/USB/src/usblibs.c **** 	}
  73:Libraries/uC-CSP/LPC17xx/USB/src/usblibs.c **** }
 416              		.loc 1 73 0
 417 0190 07F10807 		add	r7, r7, #8
 418 0194 BD46     		mov	sp, r7
 419 0196 80BD     		pop	{r7, pc}
 420              		.cfi_endproc
 421              	.LFE4:
 423              	.Letext0:
 424              		.file 2 "/home/wimma/bin/codesourcery/Sourcery_CodeBench_Lite_for_ARM_EABI/bin/../lib/gcc/arm-none
 425              		.file 3 "Libraries/uC-CPU/cpu.h"
 426              		.file 4 "Libraries/uC-CSP/csp_types.h"
 427              		.file 5 "Libraries/uC-CSP/LPC17xx/USB/inc/usbdesc.h"